SF:/home/runner/work/mostro/mostro/src/app.rs
FN:145,_RNCNCNvNtCsawjdjYzw0zz_7mostrod3app17check_trade_index00B7_
FN:279,_RNCNCNvNtCsawjdjYzw0zz_7mostrod3app21handle_message_action00B7_
FN:285,_RNCNCNvNtCsawjdjYzw0zz_7mostrod3app21handle_message_action0s0_0B7_
FN:288,_RNCNCNvNtCsawjdjYzw0zz_7mostrod3app21handle_message_action0s1_0B7_
FN:282,_RNCNCNvNtCsawjdjYzw0zz_7mostrod3app21handle_message_action0s_0B7_
FN:214,_RNCNCNvNtCsawjdjYzw0zz_7mostrod3app27handle_message_action_no_ln00B7_
FN:220,_RNCNCNvNtCsawjdjYzw0zz_7mostrod3app27handle_message_action_no_ln0s0_0B7_
FN:225,_RNCNCNvNtCsawjdjYzw0zz_7mostrod3app27handle_message_action_no_ln0s1_0B7_
FN:228,_RNCNCNvNtCsawjdjYzw0zz_7mostrod3app27handle_message_action_no_ln0s2_0B7_
FN:231,_RNCNCNvNtCsawjdjYzw0zz_7mostrod3app27handle_message_action_no_ln0s3_0B7_
FN:235,_RNCNCNvNtCsawjdjYzw0zz_7mostrod3app27handle_message_action_no_ln0s4_0B7_
FN:240,_RNCNCNvNtCsawjdjYzw0zz_7mostrod3app27handle_message_action_no_ln0s5_0B7_
FN:243,_RNCNCNvNtCsawjdjYzw0zz_7mostrod3app27handle_message_action_no_ln0s6_0B7_
FN:248,_RNCNCNvNtCsawjdjYzw0zz_7mostrod3app27handle_message_action_no_ln0s7_0B7_
FN:251,_RNCNCNvNtCsawjdjYzw0zz_7mostrod3app27handle_message_action_no_ln0s8_0B7_
FN:254,_RNCNCNvNtCsawjdjYzw0zz_7mostrod3app27handle_message_action_no_ln0s9_0B7_
FN:217,_RNCNCNvNtCsawjdjYzw0zz_7mostrod3app27handle_message_action_no_ln0s_0B7_
FN:257,_RNCNCNvNtCsawjdjYzw0zz_7mostrod3app27handle_message_action_no_ln0sa_0B7_
FN:258,_RNCNCNvNtCsawjdjYzw0zz_7mostrod3app27handle_message_action_no_ln0sb_0B7_
FN:94,_RNCNvNtCsawjdjYzw0zz_7mostrod3app13manage_errors0B5_
FN:128,_RNCNvNtCsawjdjYzw0zz_7mostrod3app17check_trade_index0B5_
FN:275,_RNCNvNtCsawjdjYzw0zz_7mostrod3app21handle_message_action0B5_
FN:209,_RNCNvNtCsawjdjYzw0zz_7mostrod3app27handle_message_action_no_ln0B5_
FN:300,_RNCNvNtCsawjdjYzw0zz_7mostrod3app3run0B5_
FN:465,_RNCNvNtNtCsawjdjYzw0zz_7mostrod3app5tests19create_test_message0B7_
FN:528,_RNCNvNtNtCsawjdjYzw0zz_7mostrod3app5testss_26test_manage_errors_cant_do0B7_
FN:540,_RNCNvNtNtCsawjdjYzw0zz_7mostrod3app5testss_33test_manage_errors_internal_error0B7_
FN:65,_RNvNtCsawjdjYzw0zz_7mostrod3app11warning_msg
FN:89,_RNvNtCsawjdjYzw0zz_7mostrod3app13manage_errors
FN:124,_RNvNtCsawjdjYzw0zz_7mostrod3app17check_trade_index
FN:268,_RNvNtCsawjdjYzw0zz_7mostrod3app21handle_message_action
FN:203,_RNvNtCsawjdjYzw0zz_7mostrod3app27handle_message_action_no_ln
FN:456,_RNvNtNtCsawjdjYzw0zz_7mostrod3app5tests16create_test_keys
FN:461,_RNvNtNtCsawjdjYzw0zz_7mostrod3app5tests19create_test_message
FN:473,_RNvNtNtCsawjdjYzw0zz_7mostrod3app5tests29create_test_unwrapped_message
FN:528,_RNvNtNtCsawjdjYzw0zz_7mostrod3app5testss_26test_manage_errors_cant_do
FN:487,_RNvNtNtCsawjdjYzw0zz_7mostrod3app5testss_32test_warning_msg_all_error_types
FN:540,_RNvNtNtCsawjdjYzw0zz_7mostrod3app5testss_33test_manage_errors_internal_error
FN:919,_RNvNtNtNtCsawjdjYzw0zz_7mostrod3app5tests24message_validation_testss_25test_timestamp_validation
FN:937,_RNvNtNtNtCsawjdjYzw0zz_7mostrod3app5tests24message_validation_testss_27test_pow_verification_logic
FN:905,_RNvNtNtNtCsawjdjYzw0zz_7mostrod3app5tests24message_validation_testss_33test_signature_verification_logic
FN:599,_RNCNvNtNtNtCsawjdjYzw0zz_7mostrod3app5tests23check_trade_index_tests11insert_user0B9_
FN:558,_RNCNvNtNtNtCsawjdjYzw0zz_7mostrod3app5tests23check_trade_index_tests15create_test_ctx0B9_
FN:586,_RNCNvNtNtNtCsawjdjYzw0zz_7mostrod3app5tests23check_trade_index_tests19create_migrated_ctx0B9_
FN:643,_RNCNvNtNtNtCsawjdjYzw0zz_7mostrod3app5tests23check_trade_index_testss_39known_user_with_stale_index_is_rejected0B9_
FN:729,_RNCNvNtNtNtCsawjdjYzw0zz_7mostrod3app5tests23check_trade_index_testss_39test_check_trade_index_with_valid_index0B9_
FN:673,_RNCNvNtNtNtCsawjdjYzw0zz_7mostrod3app5tests23check_trade_index_testss_40known_user_missing_signature_is_rejected0B9_
FN:701,_RNCNvNtNtNtCsawjdjYzw0zz_7mostrod3app5tests23check_trade_index_testss_40unknown_user_with_index_zero_is_rejected0B9_
FN:567,_RNCNvNtNtNtCsawjdjYzw0zz_7mostrod3app5tests23check_trade_index_testss_41test_check_trade_index_non_trading_action0B9_
FN:656,_RNCNvNtNtNtCsawjdjYzw0zz_7mostrod3app5tests23check_trade_index_testss_43known_user_with_wrong_signature_is_rejected0B9_
FN:714,_RNCNvNtNtNtCsawjdjYzw0zz_7mostrod3app5tests23check_trade_index_testss_43unknown_user_with_valid_index_is_registered0B9_
FN:687,_RNCNvNtNtNtCsawjdjYzw0zz_7mostrod3app5tests23check_trade_index_testss_45known_user_with_index_zero_skips_index_checks0B9_
FN:577,_RNCNvNtNtNtCsawjdjYzw0zz_7mostrod3app5tests23check_trade_index_testss_46test_check_trade_index_trading_action_no_index0B9_
FN:630,_RNCNvNtNtNtCsawjdjYzw0zz_7mostrod3app5tests23check_trade_index_testss_54known_user_with_fresh_index_and_valid_signature_passes0B9_
FN:599,_RNvNtNtNtCsawjdjYzw0zz_7mostrod3app5tests23check_trade_index_tests11insert_user
FN:558,_RNvNtNtNtCsawjdjYzw0zz_7mostrod3app5tests23check_trade_index_tests15create_test_ctx
FN:586,_RNvNtNtNtCsawjdjYzw0zz_7mostrod3app5tests23check_trade_index_tests19create_migrated_ctx
FN:614,_RNvNtNtNtCsawjdjYzw0zz_7mostrod3app5tests23check_trade_index_tests24signed_event_and_message
FN:643,_RNvNtNtNtCsawjdjYzw0zz_7mostrod3app5tests23check_trade_index_testss_39known_user_with_stale_index_is_rejected
FN:729,_RNvNtNtNtCsawjdjYzw0zz_7mostrod3app5tests23check_trade_index_testss_39test_check_trade_index_with_valid_index
FN:673,_RNvNtNtNtCsawjdjYzw0zz_7mostrod3app5tests23check_trade_index_testss_40known_user_missing_signature_is_rejected
FN:701,_RNvNtNtNtCsawjdjYzw0zz_7mostrod3app5tests23check_trade_index_testss_40unknown_user_with_index_zero_is_rejected
FN:567,_RNvNtNtNtCsawjdjYzw0zz_7mostrod3app5tests23check_trade_index_testss_41test_check_trade_index_non_trading_action
FN:656,_RNvNtNtNtCsawjdjYzw0zz_7mostrod3app5tests23check_trade_index_testss_43known_user_with_wrong_signature_is_rejected
FN:714,_RNvNtNtNtCsawjdjYzw0zz_7mostrod3app5tests23check_trade_index_testss_43unknown_user_with_valid_index_is_registered
FN:687,_RNvNtNtNtCsawjdjYzw0zz_7mostrod3app5tests23check_trade_index_testss_45known_user_with_index_zero_skips_index_checks
FN:577,_RNvNtNtNtCsawjdjYzw0zz_7mostrod3app5tests23check_trade_index_testss_46test_check_trade_index_trading_action_no_index
FN:630,_RNvNtNtNtCsawjdjYzw0zz_7mostrod3app5tests23check_trade_index_testss_54known_user_with_fresh_index_and_valid_signature_passes
FN:803,_RNCNvNtNtNtCsawjdjYzw0zz_7mostrod3app5tests27handle_message_action_testss_45routes_orders_to_handler_and_propagates_error0B9_
FN:873,_RNCNvNtNtNtCsawjdjYzw0zz_7mostrod3app5tests27handle_message_action_testss_47routes_payinvoice_to_typed_invalid_action_error0B9_
FN:779,_RNCNvNtNtNtCsawjdjYzw0zz_7mostrod3app5tests27handle_message_action_testss_48routes_restore_session_to_handler_and_returns_ok0B9_
FN:753,_RNCNvNtNtNtCsawjdjYzw0zz_7mostrod3app5tests27handle_message_action_testss_55routes_last_trade_index_to_handler_and_propagates_error0B9_
FN:828,_RNCNvNtNtNtCsawjdjYzw0zz_7mostrod3app5tests27handle_message_action_testss_58routes_every_no_ln_action_to_its_handler_without_panicking0B9_
FN:748,_RNvNtNtNtCsawjdjYzw0zz_7mostrod3app5tests27handle_message_action_tests30create_restore_session_message
FN:803,_RNvNtNtNtCsawjdjYzw0zz_7mostrod3app5tests27handle_message_action_testss_45routes_orders_to_handler_and_propagates_error
FN:873,_RNvNtNtNtCsawjdjYzw0zz_7mostrod3app5tests27handle_message_action_testss_47routes_payinvoice_to_typed_invalid_action_error
FN:779,_RNvNtNtNtCsawjdjYzw0zz_7mostrod3app5tests27handle_message_action_testss_48routes_restore_session_to_handler_and_returns_ok
FN:753,_RNvNtNtNtCsawjdjYzw0zz_7mostrod3app5tests27handle_message_action_testss_55routes_last_trade_index_to_handler_and_propagates_error
FN:828,_RNvNtNtNtCsawjdjYzw0zz_7mostrod3app5tests27handle_message_action_testss_58routes_every_no_ln_action_to_its_handler_without_panicking
FN:967,_RNvNtNtNtCsawjdjYzw0zz_7mostrod3app5tests22event_processing_testss_30test_message_parsing_structure
FN:953,_RNvNtNtNtCsawjdjYzw0zz_7mostrod3app5tests22event_processing_testss_35test_gift_wrap_processing_structure
FN:300,_RNvNtCsawjdjYzw0zz_7mostrod3app3run
FNDA:1,_RNCNCNvNtCsawjdjYzw0zz_7mostrod3app17check_trade_index00B7_
FNDA:0,_RNCNCNvNtCsawjdjYzw0zz_7mostrod3app21handle_message_action00B7_
FNDA:0,_RNCNCNvNtCsawjdjYzw0zz_7mostrod3app21handle_message_action0s0_0B7_
FNDA:0,_RNCNCNvNtCsawjdjYzw0zz_7mostrod3app21handle_message_action0s1_0B7_
FNDA:0,_RNCNCNvNtCsawjdjYzw0zz_7mostrod3app21handle_message_action0s_0B7_
FNDA:0,_RNCNCNvNtCsawjdjYzw0zz_7mostrod3app27handle_message_action_no_ln00B7_
FNDA:1,_RNCNCNvNtCsawjdjYzw0zz_7mostrod3app27handle_message_action_no_ln0s0_0B7_
FNDA:1,_RNCNCNvNtCsawjdjYzw0zz_7mostrod3app27handle_message_action_no_ln0s1_0B7_
FNDA:1,_RNCNCNvNtCsawjdjYzw0zz_7mostrod3app27handle_message_action_no_ln0s2_0B7_
FNDA:1,_RNCNCNvNtCsawjdjYzw0zz_7mostrod3app27handle_message_action_no_ln0s3_0B7_
FNDA:1,_RNCNCNvNtCsawjdjYzw0zz_7mostrod3app27handle_message_action_no_ln0s4_0B7_
FNDA:1,_RNCNCNvNtCsawjdjYzw0zz_7mostrod3app27handle_message_action_no_ln0s5_0B7_
FNDA:1,_RNCNCNvNtCsawjdjYzw0zz_7mostrod3app27handle_message_action_no_ln0s6_0B7_
FNDA:1,_RNCNCNvNtCsawjdjYzw0zz_7mostrod3app27handle_message_action_no_ln0s7_0B7_
FNDA:1,_RNCNCNvNtCsawjdjYzw0zz_7mostrod3app27handle_message_action_no_ln0s8_0B7_
FNDA:1,_RNCNCNvNtCsawjdjYzw0zz_7mostrod3app27handle_message_action_no_ln0s9_0B7_
FNDA:1,_RNCNCNvNtCsawjdjYzw0zz_7mostrod3app27handle_message_action_no_ln0s_0B7_
FNDA:0,_RNCNCNvNtCsawjdjYzw0zz_7mostrod3app27handle_message_action_no_ln0sa_0B7_
FNDA:1,_RNCNCNvNtCsawjdjYzw0zz_7mostrod3app27handle_message_action_no_ln0sb_0B7_
FNDA:3,_RNCNvNtCsawjdjYzw0zz_7mostrod3app13manage_errors0B5_
FNDA:10,_RNCNvNtCsawjdjYzw0zz_7mostrod3app17check_trade_index0B5_
FNDA:0,_RNCNvNtCsawjdjYzw0zz_7mostrod3app21handle_message_action0B5_
FNDA:16,_RNCNvNtCsawjdjYzw0zz_7mostrod3app27handle_message_action_no_ln0B5_
FNDA:0,_RNCNvNtCsawjdjYzw0zz_7mostrod3app3run0B5_
FNDA:7,_RNCNvNtNtCsawjdjYzw0zz_7mostrod3app5tests19create_test_message0B7_
FNDA:1,_RNCNvNtNtCsawjdjYzw0zz_7mostrod3app5testss_26test_manage_errors_cant_do0B7_
FNDA:1,_RNCNvNtNtCsawjdjYzw0zz_7mostrod3app5testss_33test_manage_errors_internal_error0B7_
FNDA:12,_RNvNtCsawjdjYzw0zz_7mostrod3app11warning_msg
FNDA:3,_RNvNtCsawjdjYzw0zz_7mostrod3app13manage_errors
FNDA:10,_RNvNtCsawjdjYzw0zz_7mostrod3app17check_trade_index
FNDA:0,_RNvNtCsawjdjYzw0zz_7mostrod3app21handle_message_action
FNDA:16,_RNvNtCsawjdjYzw0zz_7mostrod3app27handle_message_action_no_ln
FNDA:43,_RNvNtNtCsawjdjYzw0zz_7mostrod3app5tests16create_test_keys
FNDA:40,_RNvNtNtCsawjdjYzw0zz_7mostrod3app5tests19create_test_message
FNDA:13,_RNvNtNtCsawjdjYzw0zz_7mostrod3app5tests29create_test_unwrapped_message
FNDA:1,_RNvNtNtCsawjdjYzw0zz_7mostrod3app5testss_26test_manage_errors_cant_do
FNDA:1,_RNvNtNtCsawjdjYzw0zz_7mostrod3app5testss_32test_warning_msg_all_error_types
FNDA:1,_RNvNtNtCsawjdjYzw0zz_7mostrod3app5testss_33test_manage_errors_internal_error
FNDA:1,_RNvNtNtNtCsawjdjYzw0zz_7mostrod3app5tests24message_validation_testss_25test_timestamp_validation
FNDA:1,_RNvNtNtNtCsawjdjYzw0zz_7mostrod3app5tests24message_validation_testss_27test_pow_verification_logic
FNDA:1,_RNvNtNtNtCsawjdjYzw0zz_7mostrod3app5tests24message_validation_testss_33test_signature_verification_logic
FNDA:5,_RNCNvNtNtNtCsawjdjYzw0zz_7mostrod3app5tests23check_trade_index_tests11insert_user0B9_
FNDA:3,_RNCNvNtNtNtCsawjdjYzw0zz_7mostrod3app5tests23check_trade_index_tests15create_test_ctx0B9_
FNDA:7,_RNCNvNtNtNtCsawjdjYzw0zz_7mostrod3app5tests23check_trade_index_tests19create_migrated_ctx0B9_
FNDA:1,_RNCNvNtNtNtCsawjdjYzw0zz_7mostrod3app5tests23check_trade_index_testss_39known_user_with_stale_index_is_rejected0B9_
FNDA:1,_RNCNvNtNtNtCsawjdjYzw0zz_7mostrod3app5tests23check_trade_index_testss_39test_check_trade_index_with_valid_index0B9_
FNDA:1,_RNCNvNtNtNtCsawjdjYzw0zz_7mostrod3app5tests23check_trade_index_testss_40known_user_missing_signature_is_rejected0B9_
FNDA:1,_RNCNvNtNtNtCsawjdjYzw0zz_7mostrod3app5tests23check_trade_index_testss_40unknown_user_with_index_zero_is_rejected0B9_
FNDA:1,_RNCNvNtNtNtCsawjdjYzw0zz_7mostrod3app5tests23check_trade_index_testss_41test_check_trade_index_non_trading_action0B9_
FNDA:1,_RNCNvNtNtNtCsawjdjYzw0zz_7mostrod3app5tests23check_trade_index_testss_43known_user_with_wrong_signature_is_rejected0B9_
FNDA:1,_RNCNvNtNtNtCsawjdjYzw0zz_7mostrod3app5tests23check_trade_index_testss_43unknown_user_with_valid_index_is_registered0B9_
FNDA:1,_RNCNvNtNtNtCsawjdjYzw0zz_7mostrod3app5tests23check_trade_index_testss_45known_user_with_index_zero_skips_index_checks0B9_
FNDA:1,_RNCNvNtNtNtCsawjdjYzw0zz_7mostrod3app5tests23check_trade_index_testss_46test_check_trade_index_trading_action_no_index0B9_
FNDA:1,_RNCNvNtNtNtCsawjdjYzw0zz_7mostrod3app5tests23check_trade_index_testss_54known_user_with_fresh_index_and_valid_signature_passes0B9_
FNDA:5,_RNvNtNtNtCsawjdjYzw0zz_7mostrod3app5tests23check_trade_index_tests11insert_user
FNDA:3,_RNvNtNtNtCsawjdjYzw0zz_7mostrod3app5tests23check_trade_index_tests15create_test_ctx
FNDA:7,_RNvNtNtNtCsawjdjYzw0zz_7mostrod3app5tests23check_trade_index_tests19create_migrated_ctx
FNDA:4,_RNvNtNtNtCsawjdjYzw0zz_7mostrod3app5tests23check_trade_index_tests24signed_event_and_message
FNDA:1,_RNvNtNtNtCsawjdjYzw0zz_7mostrod3app5tests23check_trade_index_testss_39known_user_with_stale_index_is_rejected
FNDA:1,_RNvNtNtNtCsawjdjYzw0zz_7mostrod3app5tests23check_trade_index_testss_39test_check_trade_index_with_valid_index
FNDA:1,_RNvNtNtNtCsawjdjYzw0zz_7mostrod3app5tests23check_trade_index_testss_40known_user_missing_signature_is_rejected
FNDA:1,_RNvNtNtNtCsawjdjYzw0zz_7mostrod3app5tests23check_trade_index_testss_40unknown_user_with_index_zero_is_rejected
FNDA:1,_RNvNtNtNtCsawjdjYzw0zz_7mostrod3app5tests23check_trade_index_testss_41test_check_trade_index_non_trading_action
FNDA:1,_RNvNtNtNtCsawjdjYzw0zz_7mostrod3app5tests23check_trade_index_testss_43known_user_with_wrong_signature_is_rejected
FNDA:1,_RNvNtNtNtCsawjdjYzw0zz_7mostrod3app5tests23check_trade_index_testss_43unknown_user_with_valid_index_is_registered
FNDA:1,_RNvNtNtNtCsawjdjYzw0zz_7mostrod3app5tests23check_trade_index_testss_45known_user_with_index_zero_skips_index_checks
FNDA:1,_RNvNtNtNtCsawjdjYzw0zz_7mostrod3app5tests23check_trade_index_testss_46test_check_trade_index_trading_action_no_index
FNDA:1,_RNvNtNtNtCsawjdjYzw0zz_7mostrod3app5tests23check_trade_index_testss_54known_user_with_fresh_index_and_valid_signature_passes
FNDA:1,_RNCNvNtNtNtCsawjdjYzw0zz_7mostrod3app5tests27handle_message_action_testss_45routes_orders_to_handler_and_propagates_error0B9_
FNDA:1,_RNCNvNtNtNtCsawjdjYzw0zz_7mostrod3app5tests27handle_message_action_testss_47routes_payinvoice_to_typed_invalid_action_error0B9_
FNDA:1,_RNCNvNtNtNtCsawjdjYzw0zz_7mostrod3app5tests27handle_message_action_testss_48routes_restore_session_to_handler_and_returns_ok0B9_
FNDA:1,_RNCNvNtNtNtCsawjdjYzw0zz_7mostrod3app5tests27handle_message_action_testss_55routes_last_trade_index_to_handler_and_propagates_error0B9_
FNDA:1,_RNCNvNtNtNtCsawjdjYzw0zz_7mostrod3app5tests27handle_message_action_testss_58routes_every_no_ln_action_to_its_handler_without_panicking0B9_
FNDA:1,_RNvNtNtNtCsawjdjYzw0zz_7mostrod3app5tests27handle_message_action_tests30create_restore_session_message
FNDA:1,_RNvNtNtNtCsawjdjYzw0zz_7mostrod3app5tests27handle_message_action_testss_45routes_orders_to_handler_and_propagates_error
FNDA:1,_RNvNtNtNtCsawjdjYzw0zz_7mostrod3app5tests27handle_message_action_testss_47routes_payinvoice_to_typed_invalid_action_error
FNDA:1,_RNvNtNtNtCsawjdjYzw0zz_7mostrod3app5tests27handle_message_action_testss_48routes_restore_session_to_handler_and_returns_ok
FNDA:1,_RNvNtNtNtCsawjdjYzw0zz_7mostrod3app5tests27handle_message_action_testss_55routes_last_trade_index_to_handler_and_propagates_error
FNDA:1,_RNvNtNtNtCsawjdjYzw0zz_7mostrod3app5tests27handle_message_action_testss_58routes_every_no_ln_action_to_its_handler_without_panicking
FNDA:1,_RNvNtNtNtCsawjdjYzw0zz_7mostrod3app5tests22event_processing_testss_30test_message_parsing_structure
FNDA:1,_RNvNtNtNtCsawjdjYzw0zz_7mostrod3app5tests22event_processing_testss_35test_gift_wrap_processing_structure
FNDA:0,_RNvNtCsawjdjYzw0zz_7mostrod3app3run
FNF:82
FNH:72
DA:65,12
DA:66,12
DA:67,1
DA:68,1
DA:69,1
DA:70,1
DA:71,2
DA:72,1
DA:73,1
DA:74,1
DA:75,1
DA:76,1
DA:77,1
DA:80,12
DA:86,12
DA:89,3
DA:90,3
DA:91,3
DA:92,3
DA:93,3
DA:94,3
DA:95,3
DA:96,2
DA:97,2
DA:98,2
DA:99,2
DA:100,2
DA:101,2
DA:102,2
DA:103,2
DA:104,2
DA:106,1
DA:108,3
DA:124,10
DA:125,10
DA:126,10
DA:127,10
DA:128,10
DA:129,10
DA:130,10
DA:133,1
DA:134,10
DA:137,1
DA:138,9
DA:141,9
DA:142,5
DA:143,5
DA:145,4
DA:146,1
DA:147,1
DA:148,1
DA:150,3
DA:151,1
DA:152,1
DA:153,1
DA:154,1
DA:155,1
DA:156,1
DA:157,1
DA:158,1
DA:159,1
DA:160,2
DA:161,2
DA:162,2
DA:163,0
DA:164,0
DA:168,0
DA:169,0
DA:170,0
DA:173,2
DA:174,1
DA:175,1
DA:176,1
DA:177,1
DA:178,2
DA:181,4
DA:183,3
DA:184,1
DA:185,2
DA:186,2
DA:187,2
DA:188,2
DA:189,2
DA:190,2
DA:191,2
DA:192,2
DA:193,1
DA:194,1
DA:195,1
DA:196,0
DA:197,1
DA:198,2
DA:201,10
DA:203,16
DA:204,16
DA:205,16
DA:206,16
DA:207,16
DA:208,16
DA:209,16
DA:210,16
DA:212,1
DA:213,1
DA:214,1
DA:215,1
DA:216,1
DA:217,1
DA:218,1
DA:219,1
DA:220,1
DA:223,1
DA:224,1
DA:225,1
DA:226,1
DA:227,1
DA:228,1
DA:229,1
DA:230,1
DA:231,1
DA:232,1
DA:233,1
DA:234,1
DA:235,1
DA:238,1
DA:239,1
DA:240,1
DA:241,1
DA:242,1
DA:243,1
DA:246,1
DA:247,1
DA:248,1
DA:249,1
DA:250,1
DA:251,1
DA:252,1
DA:253,1
DA:254,1
DA:255,1
DA:256,1
DA:257,1
DA:258,1
DA:260,1
DA:261,1
DA:264,16
DA:268,0
DA:269,0
DA:270,0
DA:271,0
DA:272,0
DA:273,0
DA:274,0
DA:275,0
DA:276,0
DA:277,0
DA:278,0
DA:279,0
DA:280,0
DA:281,0
DA:282,0
DA:283,0
DA:284,0
DA:285,0
DA:286,0
DA:287,0
DA:288,0
DA:289,0
DA:291,0
DA:300,0
DA:301,0
DA:302,0
DA:303,0
DA:310,0
DA:316,0
DA:317,0
DA:320,0
DA:322,0
DA:323,0
DA:325,0
DA:327,0
DA:328,0
DA:329,0
DA:330,0
DA:335,0
DA:336,0
DA:337,0
DA:340,0
DA:341,0
DA:342,0
DA:343,0
DA:350,0
DA:351,0
DA:353,0
DA:358,0
DA:359,0
DA:360,0
DA:361,0
DA:364,0
DA:365,0
DA:366,0
DA:374,0
DA:375,0
DA:377,0
DA:378,0
DA:379,0
DA:380,0
DA:384,0
DA:385,0
DA:386,0
DA:387,0
DA:388,0
DA:389,0
DA:390,0
DA:391,0
DA:397,0
DA:398,0
DA:403,0
DA:404,0
DA:407,0
DA:409,0
DA:410,0
DA:411,0
DA:412,0
DA:414,0
DA:415,0
DA:416,0
DA:417,0
DA:418,0
DA:419,0
DA:420,0
DA:421,0
DA:422,0
DA:424,0
DA:426,0
DA:427,0
DA:428,0
DA:430,0
DA:431,0
DA:432,0
DA:433,0
DA:434,0
DA:438,0
DA:439,0
DA:440,0
DA:441,0
DA:442,0
DA:456,43
DA:457,43
DA:458,43
DA:461,40
DA:462,40
DA:463,40
DA:464,40
DA:465,40
DA:466,40
DA:467,40
DA:469,40
DA:473,13
DA:474,13
DA:475,13
DA:477,13
DA:478,13
DA:479,13
DA:480,13
DA:481,13
DA:482,13
DA:483,13
DA:484,13
DA:487,1
DA:488,1
DA:491,1
DA:492,1
DA:493,1
DA:494,1
DA:496,1
DA:497,1
DA:498,1
DA:500,1
DA:501,1
DA:502,1
DA:503,1
DA:505,1
DA:506,1
DA:507,1
DA:509,1
DA:510,1
DA:511,1
DA:513,1
DA:514,1
DA:515,1
DA:517,1
DA:518,1
DA:519,1
DA:520,1
DA:524,1
DA:525,1
DA:528,1
DA:529,1
DA:530,1
DA:531,1
DA:533,1
DA:534,1
DA:537,1
DA:540,1
DA:541,1
DA:542,1
DA:543,1
DA:545,1
DA:546,1
DA:547,1
DA:550,1
DA:558,3
DA:559,3
DA:560,3
DA:561,3
DA:562,3
DA:563,3
DA:564,3
DA:567,1
DA:568,1
DA:569,1
DA:570,1
DA:572,1
DA:573,1
DA:574,1
DA:577,1
DA:578,1
DA:579,1
DA:580,1
DA:582,1
DA:583,1
DA:584,1
DA:586,7
DA:587,7
DA:588,7
DA:589,7
DA:590,7
DA:591,7
DA:592,7
DA:593,7
DA:594,7
DA:595,7
DA:596,7
DA:599,5
DA:600,5
DA:601,5
DA:602,5
DA:603,5
DA:604,5
DA:605,5
DA:606,5
DA:607,5
DA:608,5
DA:609,5
DA:610,5
DA:614,4
DA:615,4
DA:616,4
DA:617,4
DA:618,4
DA:619,4
DA:620,4
DA:621,4
DA:622,4
DA:623,4
DA:624,4
DA:625,4
DA:626,4
DA:627,4
DA:630,1
DA:631,1
DA:632,1
DA:633,1
DA:635,1
DA:636,1
DA:637,1
DA:638,1
DA:639,1
DA:640,1
DA:643,1
DA:644,1
DA:645,1
DA:646,1
DA:648,1
DA:649,1
DA:650,1
DA:651,1
DA:652,1
DA:653,1
DA:656,1
DA:657,1
DA:658,1
DA:661,1
DA:662,1
DA:663,1
DA:665,1
DA:666,1
DA:667,1
DA:668,1
DA:669,1
DA:670,1
DA:673,1
DA:674,1
DA:675,1
DA:676,1
DA:677,1
DA:679,1
DA:680,1
DA:681,1
DA:682,1
DA:683,1
DA:684,1
DA:687,1
DA:688,1
DA:689,1
DA:690,1
DA:691,1
DA:692,1
DA:694,1
DA:696,1
DA:697,1
DA:698,1
DA:701,1
DA:702,1
DA:703,1
DA:704,1
DA:706,1
DA:707,1
DA:708,1
DA:709,1
DA:710,1
DA:711,1
DA:714,1
DA:715,1
DA:716,1
DA:717,1
DA:719,1
DA:720,1
DA:722,1
DA:723,1
DA:724,1
DA:725,1
DA:726,1
DA:729,1
DA:730,1
DA:731,1
DA:732,1
DA:736,1
DA:738,1
DA:739,1
DA:748,1
DA:749,1
DA:750,1
DA:753,1
DA:754,1
DA:755,1
DA:756,1
DA:757,1
DA:758,1
DA:760,1
DA:761,1
DA:762,1
DA:763,1
DA:765,1
DA:766,1
DA:767,1
DA:769,1
DA:770,1
DA:771,1
DA:775,1
DA:776,1
DA:779,1
DA:780,1
DA:781,1
DA:782,1
DA:783,1
DA:784,1
DA:786,1
DA:787,1
DA:788,1
DA:789,1
DA:791,1
DA:792,1
DA:793,1
DA:795,1
DA:796,1
DA:797,1
DA:799,1
DA:800,1
DA:803,1
DA:804,1
DA:805,1
DA:806,1
DA:807,1
DA:808,1
DA:810,1
DA:811,1
DA:812,1
DA:813,1
DA:815,1
DA:816,1
DA:817,1
DA:819,1
DA:820,1
DA:824,1
DA:825,1
DA:828,1
DA:831,1
DA:832,1
DA:834,1
DA:835,1
DA:836,1
DA:837,1
DA:838,1
DA:840,1
DA:841,1
DA:842,1
DA:843,1
DA:845,1
DA:846,1
DA:852,12
DA:853,1
DA:854,1
DA:855,1
DA:856,1
DA:857,1
DA:858,1
DA:859,1
DA:860,1
DA:861,1
DA:862,1
DA:863,1
DA:864,1
DA:865,1
DA:866,1
DA:867,12
DA:868,12
DA:869,1
DA:870,1
DA:873,1
DA:874,1
DA:875,1
DA:876,1
DA:877,1
DA:878,1
DA:880,1
DA:881,1
DA:882,1
DA:883,1
DA:885,1
DA:886,1
DA:887,1
DA:889,1
DA:890,1
DA:892,1
DA:893,1
DA:894,1
DA:895,1
DA:896,1
DA:897,1
DA:898,1
DA:905,1
DA:906,1
DA:907,1
DA:910,1
DA:911,1
DA:914,1
DA:915,1
DA:916,1
DA:919,1
DA:920,1
DA:921,1
DA:922,1
DA:924,1
DA:925,1
DA:926,1
DA:927,1
DA:930,1
DA:933,1
DA:934,1
DA:937,1
DA:941,1
DA:942,1
DA:944,1
DA:945,1
DA:946,1
DA:953,1
DA:955,1
DA:957,1
DA:958,1
DA:959,1
DA:960,1
DA:961,1
DA:962,0
DA:964,1
DA:967,1
DA:969,1
DA:971,1
DA:972,1
DA:973,1
DA:977,1
DA:980,1
DA:982,0
DA:983,0
DA:984,0
DA:985,0
DA:987,1
BRF:0
BRH:0
LF:695
LH:575
end_of_record
SF:/home/runner/work/mostro/mostro/src/app/add_invoice.rs
FN:21,_RNCNCNvNtNtCsawjdjYzw0zz_7mostrod3app11add_invoice15pay_new_invoice00B9_
FN:80,_RNCNCNvNtNtCsawjdjYzw0zz_7mostrod3app11add_invoice18add_invoice_action00B9_
FN:15,_RNCNvNtNtCsawjdjYzw0zz_7mostrod3app11add_invoice15pay_new_invoice0B7_
FN:39,_RNCNvNtNtCsawjdjYzw0zz_7mostrod3app11add_invoice18add_invoice_action0B7_
FN:11,_RNvNtNtCsawjdjYzw0zz_7mostrod3app11add_invoice15pay_new_invoice
FN:34,_RNvNtNtCsawjdjYzw0zz_7mostrod3app11add_invoice18add_invoice_action
FN:204,_RNCNCNvNtNtNtCsawjdjYzw0zz_7mostrod3app11add_invoice5tests18queued_actions_for00Bb_
FN:205,_RNCNCNvNtNtNtCsawjdjYzw0zz_7mostrod3app11add_invoice5tests18queued_actions_for0s_0Bb_
FN:138,_RNCNvNtNtNtCsawjdjYzw0zz_7mostrod3app11add_invoice5tests10setup_pool0B9_
FN:198,_RNCNvNtNtNtCsawjdjYzw0zz_7mostrod3app11add_invoice5tests18queued_actions_for0B9_
FN:210,_RNCNvNtNtNtCsawjdjYzw0zz_7mostrod3app11add_invoice5testss_43add_invoice_action_fails_when_order_missing0B9_
FN:228,_RNCNvNtNtNtCsawjdjYzw0zz_7mostrod3app11add_invoice5testss_43add_invoice_action_rejects_non_buyer_sender0B9_
FN:251,_RNCNvNtNtNtCsawjdjYzw0zz_7mostrod3app11add_invoice5testss_44add_invoice_action_rejects_disallowed_status0B9_
FN:337,_RNCNvNtNtNtCsawjdjYzw0zz_7mostrod3app11add_invoice5testss_58add_invoice_action_without_preimage_hits_hold_invoice_seam0B9_
FN:307,_RNCNvNtNtNtCsawjdjYzw0zz_7mostrod3app11add_invoice5testss_60add_invoice_action_with_preimage_activates_and_notifies_both0B9_
FN:275,_RNCNvNtNtNtCsawjdjYzw0zz_7mostrod3app11add_invoice5testss_65add_invoice_action_settled_hold_invoice_resets_and_notifies_buyer0B9_
FN:138,_RNvNtNtNtCsawjdjYzw0zz_7mostrod3app11add_invoice5tests10setup_pool
FN:160,_RNvNtNtNtCsawjdjYzw0zz_7mostrod3app11add_invoice5tests11buyer_event
FN:194,_RNvNtNtNtCsawjdjYzw0zz_7mostrod3app11add_invoice5tests15add_invoice_msg
FN:198,_RNvNtNtNtCsawjdjYzw0zz_7mostrod3app11add_invoice5tests18queued_actions_for
FN:177,_RNvNtNtNtCsawjdjYzw0zz_7mostrod3app11add_invoice5tests26waiting_invoice_sell_order
FN:147,_RNvNtNtNtCsawjdjYzw0zz_7mostrod3app11add_invoice5tests9build_ctx
FN:210,_RNvNtNtNtCsawjdjYzw0zz_7mostrod3app11add_invoice5testss_43add_invoice_action_fails_when_order_missing
FN:228,_RNvNtNtNtCsawjdjYzw0zz_7mostrod3app11add_invoice5testss_43add_invoice_action_rejects_non_buyer_sender
FN:251,_RNvNtNtNtCsawjdjYzw0zz_7mostrod3app11add_invoice5testss_44add_invoice_action_rejects_disallowed_status
FN:337,_RNvNtNtNtCsawjdjYzw0zz_7mostrod3app11add_invoice5testss_58add_invoice_action_without_preimage_hits_hold_invoice_seam
FN:307,_RNvNtNtNtCsawjdjYzw0zz_7mostrod3app11add_invoice5testss_60add_invoice_action_with_preimage_activates_and_notifies_both
FN:275,_RNvNtNtNtCsawjdjYzw0zz_7mostrod3app11add_invoice5testss_65add_invoice_action_settled_hold_invoice_resets_and_notifies_buyer
FNDA:0,_RNCNCNvNtNtCsawjdjYzw0zz_7mostrod3app11add_invoice15pay_new_invoice00B9_
FNDA:0,_RNCNCNvNtNtCsawjdjYzw0zz_7mostrod3app11add_invoice18add_invoice_action00B9_
FNDA:1,_RNCNvNtNtCsawjdjYzw0zz_7mostrod3app11add_invoice15pay_new_invoice0B7_
FNDA:7,_RNCNvNtNtCsawjdjYzw0zz_7mostrod3app11add_invoice18add_invoice_action0B7_
FNDA:1,_RNvNtNtCsawjdjYzw0zz_7mostrod3app11add_invoice15pay_new_invoice
FNDA:7,_RNvNtNtCsawjdjYzw0zz_7mostrod3app11add_invoice18add_invoice_action
FNDA:9,_RNCNCNvNtNtNtCsawjdjYzw0zz_7mostrod3app11add_invoice5tests18queued_actions_for00Bb_
FNDA:4,_RNCNCNvNtNtNtCsawjdjYzw0zz_7mostrod3app11add_invoice5tests18queued_actions_for0s_0Bb_
FNDA:6,_RNCNvNtNtNtCsawjdjYzw0zz_7mostrod3app11add_invoice5tests10setup_pool0B9_
FNDA:3,_RNCNvNtNtNtCsawjdjYzw0zz_7mostrod3app11add_invoice5tests18queued_actions_for0B9_
FNDA:1,_RNCNvNtNtNtCsawjdjYzw0zz_7mostrod3app11add_invoice5testss_43add_invoice_action_fails_when_order_missing0B9_
FNDA:1,_RNCNvNtNtNtCsawjdjYzw0zz_7mostrod3app11add_invoice5testss_43add_invoice_action_rejects_non_buyer_sender0B9_
FNDA:1,_RNCNvNtNtNtCsawjdjYzw0zz_7mostrod3app11add_invoice5testss_44add_invoice_action_rejects_disallowed_status0B9_
FNDA:1,_RNCNvNtNtNtCsawjdjYzw0zz_7mostrod3app11add_invoice5testss_58add_invoice_action_without_preimage_hits_hold_invoice_seam0B9_
FNDA:1,_RNCNvNtNtNtCsawjdjYzw0zz_7mostrod3app11add_invoice5testss_60add_invoice_action_with_preimage_activates_and_notifies_both0B9_
FNDA:1,_RNCNvNtNtNtCsawjdjYzw0zz_7mostrod3app11add_invoice5testss_65add_invoice_action_settled_hold_invoice_resets_and_notifies_buyer0B9_
FNDA:6,_RNvNtNtNtCsawjdjYzw0zz_7mostrod3app11add_invoice5tests10setup_pool
FNDA:6,_RNvNtNtNtCsawjdjYzw0zz_7mostrod3app11add_invoice5tests11buyer_event
FNDA:6,_RNvNtNtNtCsawjdjYzw0zz_7mostrod3app11add_invoice5tests15add_invoice_msg
FNDA:3,_RNvNtNtNtCsawjdjYzw0zz_7mostrod3app11add_invoice5tests18queued_actions_for
FNDA:5,_RNvNtNtNtCsawjdjYzw0zz_7mostrod3app11add_invoice5tests26waiting_invoice_sell_order
FNDA:6,_RNvNtNtNtCsawjdjYzw0zz_7mostrod3app11add_invoice5tests9build_ctx
FNDA:1,_RNvNtNtNtCsawjdjYzw0zz_7mostrod3app11add_invoice5testss_43add_invoice_action_fails_when_order_missing
FNDA:1,_RNvNtNtNtCsawjdjYzw0zz_7mostrod3app11add_invoice5testss_43add_invoice_action_rejects_non_buyer_sender
FNDA:1,_RNvNtNtNtCsawjdjYzw0zz_7mostrod3app11add_invoice5testss_44add_invoice_action_rejects_disallowed_status
FNDA:1,_RNvNtNtNtCsawjdjYzw0zz_7mostrod3app11add_invoice5testss_58add_invoice_action_without_preimage_hits_hold_invoice_seam
FNDA:1,_RNvNtNtNtCsawjdjYzw0zz_7mostrod3app11add_invoice5testss_60add_invoice_action_with_preimage_activates_and_notifies_both
FNDA:1,_RNvNtNtNtCsawjdjYzw0zz_7mostrod3app11add_invoice5testss_65add_invoice_action_settled_hold_invoice_resets_and_notifies_buyer
FNF:28
FNH:26
DA:11,1
DA:12,1
DA:13,1
DA:14,1
DA:15,1
DA:16,1
DA:17,1
DA:18,1
DA:19,1
DA:20,1
DA:21,1
DA:22,1
DA:23,1
DA:24,1
DA:25,1
DA:26,1
DA:27,1
DA:28,1
DA:30,1
DA:31,1
DA:32,1
DA:34,7
DA:35,7
DA:36,7
DA:37,7
DA:38,7
DA:39,7
DA:40,7
DA:42,7
DA:44,5
DA:46,5
DA:48,5
DA:50,5
DA:51,1
DA:52,4
DA:54,4
DA:56,4
DA:58,1
DA:59,1
DA:61,2
DA:63,1
DA:68,2
DA:69,2
DA:72,2
DA:74,2
DA:77,1
DA:78,1
DA:80,1
DA:81,0
DA:82,0
DA:83,1
DA:85,0
DA:89,1
DA:90,1
DA:92,1
DA:93,1
DA:94,1
DA:95,1
DA:96,1
DA:97,1
DA:98,1
DA:99,1
DA:100,1
DA:101,1
DA:103,1
DA:104,1
DA:105,1
DA:106,1
DA:107,1
DA:108,1
DA:109,1
DA:110,1
DA:111,1
DA:112,1
DA:113,1
DA:114,1
DA:115,1
DA:116,1
DA:117,1
DA:118,1
DA:119,1
DA:120,1
DA:122,1
DA:124,1
DA:125,1
DA:126,1
DA:127,0
DA:128,1
DA:129,7
DA:138,6
DA:139,6
DA:140,6
DA:141,6
DA:142,6
DA:143,6
DA:144,6
DA:145,6
DA:147,6
DA:150,6
DA:151,6
DA:152,6
DA:153,6
DA:154,6
DA:155,6
DA:160,6
DA:161,6
DA:162,6
DA:163,6
DA:164,6
DA:165,6
DA:166,6
DA:167,6
DA:168,6
DA:169,6
DA:170,6
DA:171,6
DA:172,6
DA:173,6
DA:174,6
DA:177,5
DA:178,5
DA:179,5
DA:180,5
DA:181,5
DA:182,5
DA:183,5
DA:184,5
DA:185,5
DA:186,5
DA:187,5
DA:188,5
DA:189,5
DA:190,5
DA:191,5
DA:192,5
DA:194,6
DA:195,6
DA:196,6
DA:198,3
DA:199,3
DA:200,3
DA:201,3
DA:202,3
DA:203,3
DA:204,9
DA:205,4
DA:206,3
DA:207,3
DA:210,1
DA:211,1
DA:212,1
DA:213,1
DA:214,1
DA:216,1
DA:217,1
DA:218,1
DA:219,1
DA:220,1
DA:221,1
DA:222,1
DA:224,1
DA:225,1
DA:228,1
DA:229,1
DA:230,1
DA:231,1
DA:232,1
DA:234,1
DA:235,1
DA:236,1
DA:237,1
DA:240,1
DA:241,1
DA:242,1
DA:244,1
DA:245,1
DA:246,1
DA:247,1
DA:248,1
DA:251,1
DA:252,1
DA:253,1
DA:254,1
DA:255,1
DA:257,1
DA:258,1
DA:259,1
DA:261,1
DA:262,1
DA:263,1
DA:265,1
DA:266,1
DA:267,1
DA:268,1
DA:269,1
DA:275,1
DA:276,1
DA:277,1
DA:278,1
DA:279,1
DA:281,1
DA:282,1
DA:283,1
DA:284,1
DA:286,1
DA:287,1
DA:288,1
DA:290,1
DA:291,1
DA:294,1
DA:295,1
DA:296,1
DA:297,1
DA:298,1
DA:299,1
DA:307,1
DA:308,1
DA:309,1
DA:310,1
DA:311,1
DA:313,1
DA:314,1
DA:315,1
DA:317,1
DA:318,1
DA:319,1
DA:321,1
DA:322,1
DA:323,1
DA:324,1
DA:325,1
DA:326,1
DA:327,1
DA:328,1
DA:329,1
DA:330,1
DA:337,1
DA:338,1
DA:339,1
DA:340,1
DA:341,1
DA:343,1
DA:344,1
DA:345,1
DA:346,1
DA:348,1
DA:349,1
DA:350,1
DA:352,1
DA:353,1
DA:354,1
DA:355,1
DA:356,1
BRF:0
BRH:0
LF:281
LH:274
end_of_record
SF:/home/runner/work/mostro/mostro/src/app/admin_add_solver.rs
FN:68,_RNCNCNvNtNtCsawjdjYzw0zz_7mostrod3app16admin_add_solver23admin_add_solver_action00B9_
FN:89,_RNCNCNvNtNtCsawjdjYzw0zz_7mostrod3app16admin_add_solver23admin_add_solver_action0s0_0B9_
FN:85,_RNCNCNvNtNtCsawjdjYzw0zz_7mostrod3app16admin_add_solver23admin_add_solver_action0s_0B9_
FN:51,_RNCNvNtNtCsawjdjYzw0zz_7mostrod3app16admin_add_solver23admin_add_solver_action0B7_
FN:12,_RNvNtNtCsawjdjYzw0zz_7mostrod3app16admin_add_solver20parse_solver_payload
FN:46,_RNvNtNtCsawjdjYzw0zz_7mostrod3app16admin_add_solver23admin_add_solver_action
FN:109,_RNvNtNtNtCsawjdjYzw0zz_7mostrod3app16admin_add_solver5testss_38parse_solver_payload_accepts_read_only
FN:177,_RNvNtNtNtCsawjdjYzw0zz_7mostrod3app16admin_add_solver5testss_41parse_solver_payload_rejects_extra_tokens
FN:101,_RNvNtNtNtCsawjdjYzw0zz_7mostrod3app16admin_add_solver5testss_43parse_solver_payload_defaults_to_read_write
FN:148,_RNvNtNtNtCsawjdjYzw0zz_7mostrod3app16admin_add_solver5testss_45parse_solver_payload_rejects_non_text_payload
FN:116,_RNvNtNtNtCsawjdjYzw0zz_7mostrod3app16admin_add_solver5testss_47parse_solver_payload_accepts_read_write_aliases
FN:128,_RNvNtNtNtCsawjdjYzw0zz_7mostrod3app16admin_add_solver5testss_47parse_solver_payload_rejects_invalid_permission
FN:138,_RNvNtNtNtCsawjdjYzw0zz_7mostrod3app16admin_add_solver5testss_51parse_solver_payload_rejects_empty_permission_token
FN:168,_RNvNtNtNtCsawjdjYzw0zz_7mostrod3app16admin_add_solver5testss_55parse_solver_payload_rejects_empty_npub_with_permission
FN:157,_RNvNtNtNtCsawjdjYzw0zz_7mostrod3app16admin_add_solver5testss_59parse_solver_payload_rejects_empty_and_whitespace_only_text
FN:197,_RNCNvNtNtNtNtCsawjdjYzw0zz_7mostrod3app16admin_add_solver5tests6action16create_test_pool0Bb_
FN:246,_RNCNvNtNtNtNtCsawjdjYzw0zz_7mostrod3app16admin_add_solver5tests6actions_26rejects_non_admin_identity0Bb_
FN:264,_RNCNvNtNtNtNtCsawjdjYzw0zz_7mostrod3app16admin_add_solver5tests6actions_27rejects_invalid_npub_string0Bb_
FN:321,_RNCNvNtNtNtNtCsawjdjYzw0zz_7mostrod3app16admin_add_solver5tests6actions_31rejects_duplicate_solver_insert0Bb_
FN:230,_RNCNvNtNtNtNtCsawjdjYzw0zz_7mostrod3app16admin_add_solver5tests6actions_31rejects_message_without_payload0Bb_
FN:282,_RNCNvNtNtNtNtCsawjdjYzw0zz_7mostrod3app16admin_add_solver5tests6actions_35adds_solver_with_read_only_category0Bb_
FN:302,_RNCNvNtNtNtNtCsawjdjYzw0zz_7mostrod3app16admin_add_solver5tests6actions_44adds_solver_with_default_read_write_category0Bb_
FN:219,_RNvNtNtNtNtCsawjdjYzw0zz_7mostrod3app16admin_add_solver5tests6action12create_event
FN:213,_RNvNtNtNtNtCsawjdjYzw0zz_7mostrod3app16admin_add_solver5tests6action14add_solver_msg
FN:197,_RNvNtNtNtNtCsawjdjYzw0zz_7mostrod3app16admin_add_solver5tests6action16create_test_pool
FN:203,_RNvNtNtNtNtCsawjdjYzw0zz_7mostrod3app16admin_add_solver5tests6action9build_ctx
FN:246,_RNvNtNtNtNtCsawjdjYzw0zz_7mostrod3app16admin_add_solver5tests6actions_26rejects_non_admin_identity
FN:264,_RNvNtNtNtNtCsawjdjYzw0zz_7mostrod3app16admin_add_solver5tests6actions_27rejects_invalid_npub_string
FN:321,_RNvNtNtNtNtCsawjdjYzw0zz_7mostrod3app16admin_add_solver5tests6actions_31rejects_duplicate_solver_insert
FN:230,_RNvNtNtNtNtCsawjdjYzw0zz_7mostrod3app16admin_add_solver5tests6actions_31rejects_message_without_payload
FN:282,_RNvNtNtNtNtCsawjdjYzw0zz_7mostrod3app16admin_add_solver5tests6actions_35adds_solver_with_read_only_category
FN:302,_RNvNtNtNtNtCsawjdjYzw0zz_7mostrod3app16admin_add_solver5tests6actions_44adds_solver_with_default_read_write_category
FNDA:2,_RNCNCNvNtNtCsawjdjYzw0zz_7mostrod3app16admin_add_solver23admin_add_solver_action00B9_
FNDA:0,_RNCNCNvNtNtCsawjdjYzw0zz_7mostrod3app16admin_add_solver23admin_add_solver_action0s0_0B9_
FNDA:0,_RNCNCNvNtNtCsawjdjYzw0zz_7mostrod3app16admin_add_solver23admin_add_solver_action0s_0B9_
FNDA:9,_RNCNvNtNtCsawjdjYzw0zz_7mostrod3app16admin_add_solver23admin_add_solver_action0B7_
FNDA:17,_RNvNtNtCsawjdjYzw0zz_7mostrod3app16admin_add_solver20parse_solver_payload
FNDA:9,_RNvNtNtCsawjdjYzw0zz_7mostrod3app16admin_add_solver23admin_add_solver_action
FNDA:1,_RNvNtNtNtCsawjdjYzw0zz_7mostrod3app16admin_add_solver5testss_38parse_solver_payload_accepts_read_only
FNDA:1,_RNvNtNtNtCsawjdjYzw0zz_7mostrod3app16admin_add_solver5testss_41parse_solver_payload_rejects_extra_tokens
FNDA:1,_RNvNtNtNtCsawjdjYzw0zz_7mostrod3app16admin_add_solver5testss_43parse_solver_payload_defaults_to_read_write
FNDA:1,_RNvNtNtNtCsawjdjYzw0zz_7mostrod3app16admin_add_solver5testss_45parse_solver_payload_rejects_non_text_payload
FNDA:1,_RNvNtNtNtCsawjdjYzw0zz_7mostrod3app16admin_add_solver5testss_47parse_solver_payload_accepts_read_write_aliases
FNDA:1,_RNvNtNtNtCsawjdjYzw0zz_7mostrod3app16admin_add_solver5testss_47parse_solver_payload_rejects_invalid_permission
FNDA:1,_RNvNtNtNtCsawjdjYzw0zz_7mostrod3app16admin_add_solver5testss_51parse_solver_payload_rejects_empty_permission_token
FNDA:1,_RNvNtNtNtCsawjdjYzw0zz_7mostrod3app16admin_add_solver5testss_55parse_solver_payload_rejects_empty_npub_with_permission
FNDA:1,_RNvNtNtNtCsawjdjYzw0zz_7mostrod3app16admin_add_solver5testss_59parse_solver_payload_rejects_empty_and_whitespace_only_text
FNDA:6,_RNCNvNtNtNtNtCsawjdjYzw0zz_7mostrod3app16admin_add_solver5tests6action16create_test_pool0Bb_
FNDA:1,_RNCNvNtNtNtNtCsawjdjYzw0zz_7mostrod3app16admin_add_solver5tests6actions_26rejects_non_admin_identity0Bb_
FNDA:1,_RNCNvNtNtNtNtCsawjdjYzw0zz_7mostrod3app16admin_add_solver5tests6actions_27rejects_invalid_npub_string0Bb_
FNDA:1,_RNCNvNtNtNtNtCsawjdjYzw0zz_7mostrod3app16admin_add_solver5tests6actions_31rejects_duplicate_solver_insert0Bb_
FNDA:1,_RNCNvNtNtNtNtCsawjdjYzw0zz_7mostrod3app16admin_add_solver5tests6actions_31rejects_message_without_payload0Bb_
FNDA:1,_RNCNvNtNtNtNtCsawjdjYzw0zz_7mostrod3app16admin_add_solver5tests6actions_35adds_solver_with_read_only_category0Bb_
FNDA:1,_RNCNvNtNtNtNtCsawjdjYzw0zz_7mostrod3app16admin_add_solver5tests6actions_44adds_solver_with_default_read_write_category0Bb_
FNDA:6,_RNvNtNtNtNtCsawjdjYzw0zz_7mostrod3app16admin_add_solver5tests6action12create_event
FNDA:13,_RNvNtNtNtNtCsawjdjYzw0zz_7mostrod3app16admin_add_solver5tests6action14add_solver_msg
FNDA:6,_RNvNtNtNtNtCsawjdjYzw0zz_7mostrod3app16admin_add_solver5tests6action16create_test_pool
FNDA:6,_RNvNtNtNtNtCsawjdjYzw0zz_7mostrod3app16admin_add_solver5tests6action9build_ctx
FNDA:1,_RNvNtNtNtNtCsawjdjYzw0zz_7mostrod3app16admin_add_solver5tests6actions_26rejects_non_admin_identity
FNDA:1,_RNvNtNtNtNtCsawjdjYzw0zz_7mostrod3app16admin_add_solver5tests6actions_27rejects_invalid_npub_string
FNDA:1,_RNvNtNtNtNtCsawjdjYzw0zz_7mostrod3app16admin_add_solver5tests6actions_31rejects_duplicate_solver_insert
FNDA:1,_RNvNtNtNtNtCsawjdjYzw0zz_7mostrod3app16admin_add_solver5tests6actions_31rejects_message_without_payload
FNDA:1,_RNvNtNtNtNtCsawjdjYzw0zz_7mostrod3app16admin_add_solver5tests6actions_35adds_solver_with_read_only_category
FNDA:1,_RNvNtNtNtNtCsawjdjYzw0zz_7mostrod3app16admin_add_solver5tests6actions_44adds_solver_with_default_read_write_category
FNF:32
FNH:30
DA:12,17
DA:13,17
DA:14,16
DA:15,1
DA:18,16
DA:19,2
DA:20,14
DA:22,14
DA:23,14
DA:24,14
DA:25,14
DA:26,14
DA:28,14
DA:29,1
DA:30,13
DA:32,13
DA:33,6
DA:34,7
DA:35,4
DA:36,2
DA:39,11
DA:40,1
DA:41,10
DA:43,10
DA:44,17
DA:46,9
DA:47,9
DA:48,9
DA:49,9
DA:50,9
DA:51,9
DA:52,9
DA:53,9
DA:55,9
DA:56,9
DA:57,9
DA:58,9
DA:59,9
DA:61,7
DA:62,1
DA:63,6
DA:65,6
DA:66,6
DA:67,6
DA:68,6
DA:70,4
DA:72,4
DA:73,3
DA:74,1
DA:75,1
DA:76,1
DA:77,1
DA:78,1
DA:82,3
DA:83,3
DA:84,3
DA:85,3
DA:87,3
DA:88,3
DA:89,3
DA:91,3
DA:92,9
DA:101,1
DA:102,1
DA:103,1
DA:104,1
DA:105,1
DA:106,1
DA:109,1
DA:110,1
DA:111,1
DA:112,1
DA:113,1
DA:116,1
DA:117,1
DA:118,1
DA:119,1
DA:120,1
DA:122,1
DA:123,1
DA:124,1
DA:125,1
DA:128,1
DA:129,1
DA:130,1
DA:131,1
DA:135,1
DA:138,1
DA:139,1
DA:140,1
DA:141,1
DA:145,1
DA:148,1
DA:149,1
DA:150,1
DA:154,1
DA:157,1
DA:158,2
DA:159,2
DA:160,2
DA:165,1
DA:168,1
DA:169,1
DA:170,1
DA:174,1
DA:177,1
DA:178,1
DA:179,1
DA:180,1
DA:184,1
DA:197,6
DA:198,6
DA:199,6
DA:200,6
DA:201,6
DA:203,6
DA:206,6
DA:207,6
DA:208,6
DA:209,6
DA:210,6
DA:211,6
DA:213,13
DA:214,13
DA:215,13
DA:219,6
DA:220,6
DA:221,6
DA:222,6
DA:223,6
DA:224,6
DA:225,6
DA:226,6
DA:227,6
DA:230,1
DA:231,1
DA:232,1
DA:233,1
DA:234,1
DA:236,1
DA:237,1
DA:239,1
DA:240,1
DA:241,1
DA:242,1
DA:243,1
DA:246,1
DA:247,1
DA:248,1
DA:249,1
DA:251,1
DA:252,1
DA:253,1
DA:255,1
DA:257,1
DA:258,1
DA:259,1
DA:260,1
DA:261,1
DA:264,1
DA:265,1
DA:266,1
DA:267,1
DA:268,1
DA:269,1
DA:271,1
DA:273,1
DA:274,1
DA:275,1
DA:276,1
DA:277,1
DA:282,1
DA:283,1
DA:284,1
DA:285,1
DA:286,1
DA:287,1
DA:288,1
DA:289,1
DA:291,1
DA:293,1
DA:294,1
DA:295,1
DA:296,1
DA:297,1
DA:298,1
DA:299,1
DA:302,1
DA:303,1
DA:304,1
DA:305,1
DA:306,1
DA:307,1
DA:308,1
DA:309,1
DA:311,1
DA:313,1
DA:314,1
DA:315,1
DA:316,1
DA:317,1
DA:318,1
DA:321,1
DA:322,1
DA:323,1
DA:324,1
DA:325,1
DA:326,1
DA:328,1
DA:329,1
DA:330,1
DA:331,1
DA:332,1
DA:333,1
DA:334,1
DA:335,1
DA:337,1
DA:338,1
DA:339,1
DA:340,1
DA:341,1
DA:342,1
DA:343,1
DA:345,1
DA:346,1
DA:347,1
DA:348,1
DA:349,1
BRF:0
BRH:0
LF:249
LH:247
end_of_record
SF:/home/runner/work/mostro/mostro/src/app/admin_cancel.rs
FN:142,_RNCNCNvNtNtCsawjdjYzw0zz_7mostrod3app12admin_cancel19admin_cancel_action00B9_
FN:180,_RNCNCNvNtNtCsawjdjYzw0zz_7mostrod3app12admin_cancel19admin_cancel_action0s0_0B9_
FN:184,_RNCNCNvNtNtCsawjdjYzw0zz_7mostrod3app12admin_cancel19admin_cancel_action0s1_0B9_
FN:196,_RNCNCNvNtNtCsawjdjYzw0zz_7mostrod3app12admin_cancel19admin_cancel_action0s2_0B9_
FN:200,_RNCNCNvNtNtCsawjdjYzw0zz_7mostrod3app12admin_cancel19admin_cancel_action0s3_0B9_
FN:205,_RNCNCNvNtNtCsawjdjYzw0zz_7mostrod3app12admin_cancel19admin_cancel_action0s4_0B9_
FN:207,_RNCNCNvNtNtCsawjdjYzw0zz_7mostrod3app12admin_cancel19admin_cancel_action0s5_0B9_
FN:214,_RNCNCNvNtNtCsawjdjYzw0zz_7mostrod3app12admin_cancel19admin_cancel_action0s6_0B9_
FN:217,_RNCNCNvNtNtCsawjdjYzw0zz_7mostrod3app12admin_cancel19admin_cancel_action0s7_0B9_
FN:165,_RNCNCNvNtNtCsawjdjYzw0zz_7mostrod3app12admin_cancel19admin_cancel_action0s_0B9_
FN:54,_RNCNvNtNtCsawjdjYzw0zz_7mostrod3app12admin_cancel19admin_cancel_action0B7_
FN:48,_RNvNtNtCsawjdjYzw0zz_7mostrod3app12admin_cancel19admin_cancel_action
FN:355,_RNCNCNvNtNtNtCsawjdjYzw0zz_7mostrod3app12admin_cancel5tests18queued_actions_for00Bb_
FN:356,_RNCNCNvNtNtNtCsawjdjYzw0zz_7mostrod3app12admin_cancel5tests18queued_actions_for0s_0Bb_
FN:275,_RNCNvNtNtNtCsawjdjYzw0zz_7mostrod3app12admin_cancel5tests10setup_pool0B9_
FN:338,_RNCNvNtNtNtCsawjdjYzw0zz_7mostrod3app12admin_cancel5tests13assign_solver0B9_
FN:349,_RNCNvNtNtNtCsawjdjYzw0zz_7mostrod3app12admin_cancel5tests18queued_actions_for0B9_
FN:296,_RNCNvNtNtNtCsawjdjYzw0zz_7mostrod3app12admin_cancel5tests8dead_lnd0B9_
FN:361,_RNCNvNtNtNtCsawjdjYzw0zz_7mostrod3app12admin_cancel5testss_24fails_when_order_missing0B9_
FN:502,_RNCNvNtNtNtCsawjdjYzw0zz_7mostrod3app12admin_cancel5testss_28rejects_order_not_in_dispute0B9_
FN:534,_RNCNvNtNtNtCsawjdjYzw0zz_7mostrod3app12admin_cancel5testss_37dispute_without_initiator_flag_errors0B9_
FN:568,_RNCNvNtNtNtCsawjdjYzw0zz_7mostrod3app12admin_cancel5testss_40dispute_with_hash_reaches_ln_cancel_seam0B9_
FN:605,_RNCNvNtNtNtCsawjdjYzw0zz_7mostrod3app12admin_cancel5testss_47seller_dispute_without_hash_refunds_and_cancels0B9_
FN:470,_RNCNvNtNtNtCsawjdjYzw0zz_7mostrod3app12admin_cancel5testss_48cooperatively_cancelled_order_acknowledges_admin0B9_
FN:439,_RNCNvNtNtNtCsawjdjYzw0zz_7mostrod3app12admin_cancel5testss_48rejects_assigned_solver_without_write_permission0B9_
FN:380,_RNCNvNtNtNtCsawjdjYzw0zz_7mostrod3app12admin_cancel5testss_49rejects_caller_not_assigned_and_no_admin_takeover0B9_
FN:409,_RNCNvNtNtNtCsawjdjYzw0zz_7mostrod3app12admin_cancel5testss_58reports_admin_takeover_when_dispute_in_progress_with_admin0B9_
FN:345,_RNvNtNtNtCsawjdjYzw0zz_7mostrod3app12admin_cancel5tests10cancel_msg
FN:275,_RNvNtNtNtCsawjdjYzw0zz_7mostrod3app12admin_cancel5tests10setup_pool
FN:313,_RNvNtNtNtCsawjdjYzw0zz_7mostrod3app12admin_cancel5tests11admin_event
FN:338,_RNvNtNtNtCsawjdjYzw0zz_7mostrod3app12admin_cancel5tests13assign_solver
FN:323,_RNvNtNtNtCsawjdjYzw0zz_7mostrod3app12admin_cancel5tests13dispute_order
FN:349,_RNvNtNtNtCsawjdjYzw0zz_7mostrod3app12admin_cancel5tests18queued_actions_for
FN:296,_RNvNtNtNtCsawjdjYzw0zz_7mostrod3app12admin_cancel5tests8dead_lnd
FN:284,_RNvNtNtNtCsawjdjYzw0zz_7mostrod3app12admin_cancel5tests9build_ctx
FN:361,_RNvNtNtNtCsawjdjYzw0zz_7mostrod3app12admin_cancel5testss_24fails_when_order_missing
FN:502,_RNvNtNtNtCsawjdjYzw0zz_7mostrod3app12admin_cancel5testss_28rejects_order_not_in_dispute
FN:534,_RNvNtNtNtCsawjdjYzw0zz_7mostrod3app12admin_cancel5testss_37dispute_without_initiator_flag_errors
FN:568,_RNvNtNtNtCsawjdjYzw0zz_7mostrod3app12admin_cancel5testss_40dispute_with_hash_reaches_ln_cancel_seam
FN:605,_RNvNtNtNtCsawjdjYzw0zz_7mostrod3app12admin_cancel5testss_47seller_dispute_without_hash_refunds_and_cancels
FN:470,_RNvNtNtNtCsawjdjYzw0zz_7mostrod3app12admin_cancel5testss_48cooperatively_cancelled_order_acknowledges_admin
FN:439,_RNvNtNtNtCsawjdjYzw0zz_7mostrod3app12admin_cancel5testss_48rejects_assigned_solver_without_write_permission
FN:380,_RNvNtNtNtCsawjdjYzw0zz_7mostrod3app12admin_cancel5testss_49rejects_caller_not_assigned_and_no_admin_takeover
FN:409,_RNvNtNtNtCsawjdjYzw0zz_7mostrod3app12admin_cancel5testss_58reports_admin_takeover_when_dispute_in_progress_with_admin
FNDA:0,_RNCNCNvNtNtCsawjdjYzw0zz_7mostrod3app12admin_cancel19admin_cancel_action00B9_
FNDA:0,_RNCNCNvNtNtCsawjdjYzw0zz_7mostrod3app12admin_cancel19admin_cancel_action0s0_0B9_
FNDA:0,_RNCNCNvNtNtCsawjdjYzw0zz_7mostrod3app12admin_cancel19admin_cancel_action0s1_0B9_
FNDA:0,_RNCNCNvNtNtCsawjdjYzw0zz_7mostrod3app12admin_cancel19admin_cancel_action0s2_0B9_
FNDA:0,_RNCNCNvNtNtCsawjdjYzw0zz_7mostrod3app12admin_cancel19admin_cancel_action0s3_0B9_
FNDA:0,_RNCNCNvNtNtCsawjdjYzw0zz_7mostrod3app12admin_cancel19admin_cancel_action0s4_0B9_
FNDA:0,_RNCNCNvNtNtCsawjdjYzw0zz_7mostrod3app12admin_cancel19admin_cancel_action0s5_0B9_
FNDA:0,_RNCNCNvNtNtCsawjdjYzw0zz_7mostrod3app12admin_cancel19admin_cancel_action0s6_0B9_
FNDA:0,_RNCNCNvNtNtCsawjdjYzw0zz_7mostrod3app12admin_cancel19admin_cancel_action0s7_0B9_
FNDA:0,_RNCNCNvNtNtCsawjdjYzw0zz_7mostrod3app12admin_cancel19admin_cancel_action0s_0B9_
FNDA:10,_RNCNvNtNtCsawjdjYzw0zz_7mostrod3app12admin_cancel19admin_cancel_action0B7_
FNDA:10,_RNvNtNtCsawjdjYzw0zz_7mostrod3app12admin_cancel19admin_cancel_action
FNDA:6,_RNCNCNvNtNtNtCsawjdjYzw0zz_7mostrod3app12admin_cancel5tests18queued_actions_for00Bb_
FNDA:1,_RNCNCNvNtNtNtCsawjdjYzw0zz_7mostrod3app12admin_cancel5tests18queued_actions_for0s_0Bb_
FNDA:9,_RNCNvNtNtNtCsawjdjYzw0zz_7mostrod3app12admin_cancel5tests10setup_pool0B9_
FNDA:7,_RNCNvNtNtNtCsawjdjYzw0zz_7mostrod3app12admin_cancel5tests13assign_solver0B9_
FNDA:1,_RNCNvNtNtNtCsawjdjYzw0zz_7mostrod3app12admin_cancel5tests18queued_actions_for0B9_
FNDA:9,_RNCNvNtNtNtCsawjdjYzw0zz_7mostrod3app12admin_cancel5tests8dead_lnd0B9_
FNDA:1,_RNCNvNtNtNtCsawjdjYzw0zz_7mostrod3app12admin_cancel5testss_24fails_when_order_missing0B9_
FNDA:1,_RNCNvNtNtNtCsawjdjYzw0zz_7mostrod3app12admin_cancel5testss_28rejects_order_not_in_dispute0B9_
FNDA:1,_RNCNvNtNtNtCsawjdjYzw0zz_7mostrod3app12admin_cancel5testss_37dispute_without_initiator_flag_errors0B9_
FNDA:1,_RNCNvNtNtNtCsawjdjYzw0zz_7mostrod3app12admin_cancel5testss_40dispute_with_hash_reaches_ln_cancel_seam0B9_
FNDA:1,_RNCNvNtNtNtCsawjdjYzw0zz_7mostrod3app12admin_cancel5testss_47seller_dispute_without_hash_refunds_and_cancels0B9_
FNDA:1,_RNCNvNtNtNtCsawjdjYzw0zz_7mostrod3app12admin_cancel5testss_48cooperatively_cancelled_order_acknowledges_admin0B9_
FNDA:1,_RNCNvNtNtNtCsawjdjYzw0zz_7mostrod3app12admin_cancel5testss_48rejects_assigned_solver_without_write_permission0B9_
FNDA:1,_RNCNvNtNtNtCsawjdjYzw0zz_7mostrod3app12admin_cancel5testss_49rejects_caller_not_assigned_and_no_admin_takeover0B9_
FNDA:1,_RNCNvNtNtNtCsawjdjYzw0zz_7mostrod3app12admin_cancel5testss_58reports_admin_takeover_when_dispute_in_progress_with_admin0B9_
FNDA:9,_RNvNtNtNtCsawjdjYzw0zz_7mostrod3app12admin_cancel5tests10cancel_msg
FNDA:9,_RNvNtNtNtCsawjdjYzw0zz_7mostrod3app12admin_cancel5tests10setup_pool
FNDA:9,_RNvNtNtNtCsawjdjYzw0zz_7mostrod3app12admin_cancel5tests11admin_event
FNDA:7,_RNvNtNtNtCsawjdjYzw0zz_7mostrod3app12admin_cancel5tests13assign_solver
FNDA:8,_RNvNtNtNtCsawjdjYzw0zz_7mostrod3app12admin_cancel5tests13dispute_order
FNDA:1,_RNvNtNtNtCsawjdjYzw0zz_7mostrod3app12admin_cancel5tests18queued_actions_for
FNDA:9,_RNvNtNtNtCsawjdjYzw0zz_7mostrod3app12admin_cancel5tests8dead_lnd
FNDA:9,_RNvNtNtNtCsawjdjYzw0zz_7mostrod3app12admin_cancel5tests9build_ctx
FNDA:1,_RNvNtNtNtCsawjdjYzw0zz_7mostrod3app12admin_cancel5testss_24fails_when_order_missing
FNDA:1,_RNvNtNtNtCsawjdjYzw0zz_7mostrod3app12admin_cancel5testss_28rejects_order_not_in_dispute
FNDA:1,_RNvNtNtNtCsawjdjYzw0zz_7mostrod3app12admin_cancel5testss_37dispute_without_initiator_flag_errors
FNDA:1,_RNvNtNtNtCsawjdjYzw0zz_7mostrod3app12admin_cancel5testss_40dispute_with_hash_reaches_ln_cancel_seam
FNDA:1,_RNvNtNtNtCsawjdjYzw0zz_7mostrod3app12admin_cancel5testss_47seller_dispute_without_hash_refunds_and_cancels
FNDA:1,_RNvNtNtNtCsawjdjYzw0zz_7mostrod3app12admin_cancel5testss_48cooperatively_cancelled_order_acknowledges_admin
FNDA:1,_RNvNtNtNtCsawjdjYzw0zz_7mostrod3app12admin_cancel5testss_48rejects_assigned_solver_without_write_permission
FNDA:1,_RNvNtNtNtCsawjdjYzw0zz_7mostrod3app12admin_cancel5testss_49rejects_caller_not_assigned_and_no_admin_takeover
FNDA:1,_RNvNtNtNtCsawjdjYzw0zz_7mostrod3app12admin_cancel5testss_58reports_admin_takeover_when_dispute_in_progress_with_admin
FNF:44
FNH:34
DA:48,10
DA:49,10
DA:50,10
DA:51,10
DA:52,10
DA:53,10
DA:54,10
DA:55,10
DA:57,10
DA:59,10
DA:61,8
DA:64,2
DA:65,1
DA:67,1
DA:70,0
DA:71,0
DA:72,0
DA:73,0
DA:75,6
DA:78,6
DA:79,6
DA:80,6
DA:81,6
DA:82,6
DA:83,6
DA:84,6
DA:87,5
DA:88,1
DA:89,1
DA:90,1
DA:91,1
DA:92,1
DA:93,1
DA:94,1
DA:95,1
DA:96,1
DA:98,1
DA:99,4
DA:102,4
DA:103,1
DA:104,3
DA:115,3
DA:116,3
DA:118,3
DA:120,1
DA:121,1
DA:122,0
DA:123,0
DA:124,2
DA:127,2
DA:130,2
DA:131,1
DA:132,0
DA:133,1
DA:136,1
DA:137,1
DA:139,1
DA:140,1
DA:141,1
DA:142,1
DA:144,1
DA:145,1
DA:146,1
DA:147,1
DA:150,1
DA:151,1
DA:152,1
DA:154,1
DA:155,1
DA:156,1
DA:158,1
DA:159,1
DA:160,1
DA:164,1
DA:165,1
DA:168,1
DA:170,1
DA:171,1
DA:172,1
DA:173,0
DA:174,0
DA:178,1
DA:179,1
DA:180,1
DA:181,1
DA:182,1
DA:183,1
DA:184,1
DA:186,1
DA:187,1
DA:188,1
DA:189,1
DA:190,1
DA:191,1
DA:194,1
DA:195,1
DA:196,1
DA:198,1
DA:199,1
DA:200,1
DA:202,1
DA:203,1
DA:204,1
DA:205,1
DA:206,1
DA:207,1
DA:209,0
DA:210,0
DA:212,1
DA:213,1
DA:214,1
DA:215,1
DA:216,1
DA:217,1
DA:230,1
DA:231,1
DA:232,1
DA:233,1
DA:234,1
DA:235,1
DA:237,1
DA:239,1
DA:240,1
DA:241,0
DA:244,0
DA:245,0
DA:257,1
DA:258,0
DA:262,1
DA:264,1
DA:265,10
DA:275,9
DA:276,9
DA:277,9
DA:278,9
DA:279,9
DA:280,9
DA:281,9
DA:282,9
DA:284,9
DA:285,9
DA:286,9
DA:287,9
DA:288,9
DA:289,9
DA:290,9
DA:296,9
DA:297,9
DA:298,9
DA:299,9
DA:300,9
DA:301,9
DA:302,9
DA:303,9
DA:304,9
DA:305,9
DA:306,9
DA:307,9
DA:308,9
DA:309,9
DA:310,9
DA:311,9
DA:313,9
DA:314,9
DA:315,9
DA:316,9
DA:317,9
DA:318,9
DA:319,9
DA:320,9
DA:321,9
DA:323,8
DA:324,8
DA:325,8
DA:326,8
DA:327,8
DA:328,8
DA:329,8
DA:330,8
DA:331,8
DA:332,8
DA:333,8
DA:334,8
DA:335,8
DA:336,8
DA:338,7
DA:339,7
DA:340,7
DA:341,7
DA:342,7
DA:343,7
DA:345,9
DA:346,9
DA:347,9
DA:349,1
DA:350,1
DA:351,1
DA:352,1
DA:353,1
DA:354,1
DA:355,6
DA:356,1
DA:357,1
DA:358,1
DA:361,1
DA:362,1
DA:363,1
DA:364,1
DA:365,1
DA:367,1
DA:368,1
DA:369,1
DA:370,1
DA:371,1
DA:372,1
DA:373,1
DA:374,1
DA:376,1
DA:377,1
DA:380,1
DA:381,1
DA:382,1
DA:383,1
DA:384,1
DA:385,1
DA:386,1
DA:388,1
DA:389,1
DA:390,1
DA:391,1
DA:393,1
DA:394,1
DA:395,1
DA:396,1
DA:397,1
DA:398,1
DA:399,1
DA:400,1
DA:402,1
DA:403,1
DA:404,1
DA:405,1
DA:406,1
DA:409,1
DA:410,1
DA:411,1
DA:412,1
DA:413,1
DA:414,1
DA:415,1
DA:417,1
DA:418,1
DA:419,1
DA:420,1
DA:421,1
DA:423,1
DA:424,1
DA:425,1
DA:426,1
DA:427,1
DA:428,1
DA:429,1
DA:430,1
DA:432,1
DA:433,1
DA:434,1
DA:435,1
DA:436,1
DA:439,1
DA:440,1
DA:441,1
DA:442,1
DA:443,1
DA:444,1
DA:445,1
DA:446,1
DA:448,1
DA:449,1
DA:450,1
DA:451,1
DA:452,1
DA:454,1
DA:455,1
DA:456,1
DA:457,1
DA:458,1
DA:459,1
DA:460,1
DA:461,1
DA:463,1
DA:464,1
DA:465,1
DA:466,1
DA:467,1
DA:470,1
DA:471,1
DA:472,1
DA:473,1
DA:474,1
DA:475,1
DA:476,1
DA:478,1
DA:479,1
DA:480,1
DA:481,1
DA:483,1
DA:484,1
DA:485,1
DA:486,1
DA:487,1
DA:488,1
DA:489,1
DA:490,1
DA:492,1
DA:493,1
DA:496,1
DA:497,1
DA:498,1
DA:499,1
DA:502,1
DA:503,1
DA:504,1
DA:505,1
DA:506,1
DA:507,1
DA:508,1
DA:510,1
DA:511,1
DA:512,1
DA:513,1
DA:515,1
DA:516,1
DA:517,1
DA:518,1
DA:519,1
DA:520,1
DA:521,1
DA:522,1
DA:524,1
DA:525,1
DA:526,1
DA:527,1
DA:528,1
DA:534,1
DA:535,1
DA:536,1
DA:537,1
DA:538,1
DA:539,1
DA:540,1
DA:543,1
DA:544,1
DA:545,1
DA:546,1
DA:547,1
DA:549,1
DA:550,1
DA:551,1
DA:552,1
DA:553,1
DA:554,1
DA:555,1
DA:556,1
DA:558,1
DA:559,1
DA:560,1
DA:561,1
DA:562,1
DA:568,1
DA:569,1
DA:570,1
DA:571,1
DA:572,1
DA:573,1
DA:574,1
DA:576,1
DA:577,1
DA:580,1
DA:581,1
DA:582,1
DA:584,1
DA:585,1
DA:586,1
DA:587,1
DA:588,1
DA:589,1
DA:590,1
DA:591,1
DA:593,1
DA:594,1
DA:595,1
DA:596,1
DA:597,1
DA:605,1
DA:606,1
DA:607,1
DA:608,1
DA:609,1
DA:610,1
DA:611,1
DA:613,1
DA:614,1
DA:615,1
DA:616,1
DA:617,1
DA:618,1
DA:619,1
DA:622,1
DA:623,1
DA:624,1
DA:625,1
DA:626,1
DA:627,1
DA:629,1
DA:631,1
DA:632,1
DA:633,1
DA:634,1
DA:635,1
DA:636,1
DA:637,1
DA:638,1
DA:639,1
DA:640,1
DA:641,1
BRF:0
BRH:0
LF:469
LH:444
end_of_record
SF:/home/runner/work/mostro/mostro/src/app/admin_settle.rs
FN:97,_RNCNCNvNtNtCsawjdjYzw0zz_7mostrod3app12admin_settle19admin_settle_action00B9_
FN:112,_RNCNCNvNtNtCsawjdjYzw0zz_7mostrod3app12admin_settle19admin_settle_action0s0_0B9_
FN:131,_RNCNCNvNtNtCsawjdjYzw0zz_7mostrod3app12admin_settle19admin_settle_action0s1_0B9_
FN:163,_RNCNCNvNtNtCsawjdjYzw0zz_7mostrod3app12admin_settle19admin_settle_action0s2_0B9_
FN:193,_RNCNCNvNtNtCsawjdjYzw0zz_7mostrod3app12admin_settle19admin_settle_action0s3_0B9_
FN:206,_RNCNCNvNtNtCsawjdjYzw0zz_7mostrod3app12admin_settle19admin_settle_action0s4_0B9_
FN:101,_RNCNCNvNtNtCsawjdjYzw0zz_7mostrod3app12admin_settle19admin_settle_action0s_0B9_
FN:25,_RNCNvNtNtCsawjdjYzw0zz_7mostrod3app12admin_settle19admin_settle_action0B7_
FN:19,_RNvNtNtCsawjdjYzw0zz_7mostrod3app12admin_settle19admin_settle_action
FN:583,_RNvNtNtNtCsawjdjYzw0zz_7mostrod3app12admin_settle5testss_24test_dispute_error_types
FN:352,_RNCNCNvNtNtNtCsawjdjYzw0zz_7mostrod3app12admin_settle13handler_tests18queued_actions_for00Bb_
FN:353,_RNCNCNvNtNtNtCsawjdjYzw0zz_7mostrod3app12admin_settle13handler_tests18queued_actions_for0s_0Bb_
FN:268,_RNCNvNtNtNtCsawjdjYzw0zz_7mostrod3app12admin_settle13handler_tests10setup_pool0B9_
FN:333,_RNCNvNtNtNtCsawjdjYzw0zz_7mostrod3app12admin_settle13handler_tests13assign_solver0B9_
FN:346,_RNCNvNtNtNtCsawjdjYzw0zz_7mostrod3app12admin_settle13handler_tests18queued_actions_for0B9_
FN:289,_RNCNvNtNtNtCsawjdjYzw0zz_7mostrod3app12admin_settle13handler_tests8dead_lnd0B9_
FN:358,_RNCNvNtNtNtCsawjdjYzw0zz_7mostrod3app12admin_settle13handler_testss_24fails_when_order_missing0B9_
FN:513,_RNCNvNtNtNtCsawjdjYzw0zz_7mostrod3app12admin_settle13handler_testss_28rejects_order_not_in_dispute0B9_
FN:546,_RNCNvNtNtNtCsawjdjYzw0zz_7mostrod3app12admin_settle13handler_testss_33dispute_order_reaches_settle_seam0B9_
FN:477,_RNCNvNtNtNtCsawjdjYzw0zz_7mostrod3app12admin_settle13handler_testss_48cooperatively_cancelled_order_acknowledges_admin0B9_
FN:442,_RNCNvNtNtNtCsawjdjYzw0zz_7mostrod3app12admin_settle13handler_testss_48rejects_assigned_solver_without_write_permission0B9_
FN:377,_RNCNvNtNtNtCsawjdjYzw0zz_7mostrod3app12admin_settle13handler_testss_49rejects_caller_not_assigned_and_no_admin_takeover0B9_
FN:407,_RNCNvNtNtNtCsawjdjYzw0zz_7mostrod3app12admin_settle13handler_testss_58reports_admin_takeover_when_dispute_in_progress_with_admin0B9_
FN:342,_RNvNtNtNtCsawjdjYzw0zz_7mostrod3app12admin_settle13handler_tests10settle_msg
FN:268,_RNvNtNtNtCsawjdjYzw0zz_7mostrod3app12admin_settle13handler_tests10setup_pool
FN:308,_RNvNtNtNtCsawjdjYzw0zz_7mostrod3app12admin_settle13handler_tests11admin_event
FN:333,_RNvNtNtNtCsawjdjYzw0zz_7mostrod3app12admin_settle13handler_tests13assign_solver
FN:318,_RNvNtNtNtCsawjdjYzw0zz_7mostrod3app12admin_settle13handler_tests13dispute_order
FN:346,_RNvNtNtNtCsawjdjYzw0zz_7mostrod3app12admin_settle13handler_tests18queued_actions_for
FN:289,_RNvNtNtNtCsawjdjYzw0zz_7mostrod3app12admin_settle13handler_tests8dead_lnd
FN:277,_RNvNtNtNtCsawjdjYzw0zz_7mostrod3app12admin_settle13handler_tests9build_ctx
FN:358,_RNvNtNtNtCsawjdjYzw0zz_7mostrod3app12admin_settle13handler_testss_24fails_when_order_missing
FN:513,_RNvNtNtNtCsawjdjYzw0zz_7mostrod3app12admin_settle13handler_testss_28rejects_order_not_in_dispute
FN:546,_RNvNtNtNtCsawjdjYzw0zz_7mostrod3app12admin_settle13handler_testss_33dispute_order_reaches_settle_seam
FN:477,_RNvNtNtNtCsawjdjYzw0zz_7mostrod3app12admin_settle13handler_testss_48cooperatively_cancelled_order_acknowledges_admin
FN:442,_RNvNtNtNtCsawjdjYzw0zz_7mostrod3app12admin_settle13handler_testss_48rejects_assigned_solver_without_write_permission
FN:377,_RNvNtNtNtCsawjdjYzw0zz_7mostrod3app12admin_settle13handler_testss_49rejects_caller_not_assigned_and_no_admin_takeover
FN:407,_RNvNtNtNtCsawjdjYzw0zz_7mostrod3app12admin_settle13handler_testss_58reports_admin_takeover_when_dispute_in_progress_with_admin
FNDA:1,_RNCNCNvNtNtCsawjdjYzw0zz_7mostrod3app12admin_settle19admin_settle_action00B9_
FNDA:0,_RNCNCNvNtNtCsawjdjYzw0zz_7mostrod3app12admin_settle19admin_settle_action0s0_0B9_
FNDA:0,_RNCNCNvNtNtCsawjdjYzw0zz_7mostrod3app12admin_settle19admin_settle_action0s1_0B9_
FNDA:0,_RNCNCNvNtNtCsawjdjYzw0zz_7mostrod3app12admin_settle19admin_settle_action0s2_0B9_
FNDA:0,_RNCNCNvNtNtCsawjdjYzw0zz_7mostrod3app12admin_settle19admin_settle_action0s3_0B9_
FNDA:0,_RNCNCNvNtNtCsawjdjYzw0zz_7mostrod3app12admin_settle19admin_settle_action0s4_0B9_
FNDA:0,_RNCNCNvNtNtCsawjdjYzw0zz_7mostrod3app12admin_settle19admin_settle_action0s_0B9_
FNDA:8,_RNCNvNtNtCsawjdjYzw0zz_7mostrod3app12admin_settle19admin_settle_action0B7_
FNDA:8,_RNvNtNtCsawjdjYzw0zz_7mostrod3app12admin_settle19admin_settle_action
FNDA:1,_RNvNtNtNtCsawjdjYzw0zz_7mostrod3app12admin_settle5testss_24test_dispute_error_types
FNDA:7,_RNCNCNvNtNtNtCsawjdjYzw0zz_7mostrod3app12admin_settle13handler_tests18queued_actions_for00Bb_
FNDA:1,_RNCNCNvNtNtNtCsawjdjYzw0zz_7mostrod3app12admin_settle13handler_tests18queued_actions_for0s_0Bb_
FNDA:7,_RNCNvNtNtNtCsawjdjYzw0zz_7mostrod3app12admin_settle13handler_tests10setup_pool0B9_
FNDA:5,_RNCNvNtNtNtCsawjdjYzw0zz_7mostrod3app12admin_settle13handler_tests13assign_solver0B9_
FNDA:1,_RNCNvNtNtNtCsawjdjYzw0zz_7mostrod3app12admin_settle13handler_tests18queued_actions_for0B9_
FNDA:7,_RNCNvNtNtNtCsawjdjYzw0zz_7mostrod3app12admin_settle13handler_tests8dead_lnd0B9_
FNDA:1,_RNCNvNtNtNtCsawjdjYzw0zz_7mostrod3app12admin_settle13handler_testss_24fails_when_order_missing0B9_
FNDA:1,_RNCNvNtNtNtCsawjdjYzw0zz_7mostrod3app12admin_settle13handler_testss_28rejects_order_not_in_dispute0B9_
FNDA:1,_RNCNvNtNtNtCsawjdjYzw0zz_7mostrod3app12admin_settle13handler_testss_33dispute_order_reaches_settle_seam0B9_
FNDA:1,_RNCNvNtNtNtCsawjdjYzw0zz_7mostrod3app12admin_settle13handler_testss_48cooperatively_cancelled_order_acknowledges_admin0B9_
FNDA:1,_RNCNvNtNtNtCsawjdjYzw0zz_7mostrod3app12admin_settle13handler_testss_48rejects_assigned_solver_without_write_permission0B9_
FNDA:1,_RNCNvNtNtNtCsawjdjYzw0zz_7mostrod3app12admin_settle13handler_testss_49rejects_caller_not_assigned_and_no_admin_takeover0B9_
FNDA:1,_RNCNvNtNtNtCsawjdjYzw0zz_7mostrod3app12admin_settle13handler_testss_58reports_admin_takeover_when_dispute_in_progress_with_admin0B9_
FNDA:7,_RNvNtNtNtCsawjdjYzw0zz_7mostrod3app12admin_settle13handler_tests10settle_msg
FNDA:7,_RNvNtNtNtCsawjdjYzw0zz_7mostrod3app12admin_settle13handler_tests10setup_pool
FNDA:7,_RNvNtNtNtCsawjdjYzw0zz_7mostrod3app12admin_settle13handler_tests11admin_event
FNDA:5,_RNvNtNtNtCsawjdjYzw0zz_7mostrod3app12admin_settle13handler_tests13assign_solver
FNDA:6,_RNvNtNtNtCsawjdjYzw0zz_7mostrod3app12admin_settle13handler_tests13dispute_order
FNDA:1,_RNvNtNtNtCsawjdjYzw0zz_7mostrod3app12admin_settle13handler_tests18queued_actions_for
FNDA:7,_RNvNtNtNtCsawjdjYzw0zz_7mostrod3app12admin_settle13handler_tests8dead_lnd
FNDA:7,_RNvNtNtNtCsawjdjYzw0zz_7mostrod3app12admin_settle13handler_tests9build_ctx
FNDA:1,_RNvNtNtNtCsawjdjYzw0zz_7mostrod3app12admin_settle13handler_testss_24fails_when_order_missing
FNDA:1,_RNvNtNtNtCsawjdjYzw0zz_7mostrod3app12admin_settle13handler_testss_28rejects_order_not_in_dispute
FNDA:1,_RNvNtNtNtCsawjdjYzw0zz_7mostrod3app12admin_settle13handler_testss_33dispute_order_reaches_settle_seam
FNDA:1,_RNvNtNtNtCsawjdjYzw0zz_7mostrod3app12admin_settle13handler_testss_48cooperatively_cancelled_order_acknowledges_admin
FNDA:1,_RNvNtNtNtCsawjdjYzw0zz_7mostrod3app12admin_settle13handler_testss_48rejects_assigned_solver_without_write_permission
FNDA:1,_RNvNtNtNtCsawjdjYzw0zz_7mostrod3app12admin_settle13handler_testss_49rejects_caller_not_assigned_and_no_admin_takeover
FNDA:1,_RNvNtNtNtCsawjdjYzw0zz_7mostrod3app12admin_settle13handler_testss_58reports_admin_takeover_when_dispute_in_progress_with_admin
FNF:38
FNH:32
DA:19,8
DA:20,8
DA:21,8
DA:22,8
DA:23,8
DA:24,8
DA:25,8
DA:26,8
DA:28,8
DA:30,8
DA:32,6
DA:35,2
DA:36,1
DA:37,1
DA:38,1
DA:40,1
DA:41,1
DA:42,1
DA:45,0
DA:46,0
DA:47,0
DA:48,0
DA:50,4
DA:53,4
DA:54,4
DA:55,4
DA:56,4
DA:57,4
DA:58,4
DA:59,4
DA:62,3
DA:63,1
DA:64,1
DA:65,1
DA:66,1
DA:67,1
DA:68,1
DA:69,1
DA:70,1
DA:71,1
DA:73,1
DA:74,2
DA:76,2
DA:77,1
DA:78,1
DA:91,1
DA:92,1
DA:95,1
DA:96,1
DA:97,1
DA:99,0
DA:100,0
DA:101,0
DA:104,0
DA:105,0
DA:106,0
DA:107,0
DA:108,0
DA:109,0
DA:110,0
DA:111,0
DA:112,0
DA:114,0
DA:115,0
DA:119,0
DA:120,0
DA:123,0
DA:125,0
DA:126,0
DA:128,0
DA:129,0
DA:130,0
DA:131,0
DA:134,0
DA:135,0
DA:136,0
DA:137,0
DA:141,0
DA:142,0
DA:143,0
DA:144,0
DA:147,0
DA:148,0
DA:149,0
DA:151,0
DA:152,0
DA:153,0
DA:155,0
DA:156,0
DA:157,0
DA:162,0
DA:163,0
DA:166,0
DA:168,0
DA:169,0
DA:170,0
DA:171,0
DA:172,0
DA:175,0
DA:176,0
DA:177,0
DA:178,0
DA:179,0
DA:180,0
DA:181,0
DA:182,0
DA:183,0
DA:186,0
DA:187,0
DA:188,0
DA:189,0
DA:190,0
DA:191,0
DA:192,0
DA:193,0
DA:194,0
DA:196,0
DA:197,0
DA:199,0
DA:200,0
DA:201,0
DA:202,0
DA:203,0
DA:204,0
DA:205,0
DA:206,0
DA:207,0
DA:209,0
DA:210,0
DA:221,0
DA:222,0
DA:223,0
DA:224,0
DA:225,0
DA:226,0
DA:228,0
DA:230,0
DA:231,0
DA:232,0
DA:235,0
DA:236,0
DA:248,0
DA:249,0
DA:253,0
DA:255,0
DA:257,0
DA:258,8
DA:268,7
DA:269,7
DA:270,7
DA:271,7
DA:272,7
DA:273,7
DA:274,7
DA:275,7
DA:277,7
DA:278,7
DA:279,7
DA:280,7
DA:281,7
DA:282,7
DA:283,7
DA:289,7
DA:290,7
DA:291,7
DA:292,7
DA:293,7
DA:294,7
DA:295,7
DA:296,7
DA:297,7
DA:298,7
DA:299,7
DA:300,7
DA:301,7
DA:302,7
DA:303,7
DA:304,7
DA:308,7
DA:309,7
DA:310,7
DA:311,7
DA:312,7
DA:313,7
DA:314,7
DA:315,7
DA:316,7
DA:318,6
DA:319,6
DA:320,6
DA:321,6
DA:322,6
DA:323,6
DA:324,6
DA:325,6
DA:326,6
DA:327,6
DA:328,6
DA:329,6
DA:330,6
DA:331,6
DA:333,5
DA:336,5
DA:337,5
DA:338,5
DA:339,5
DA:340,5
DA:342,7
DA:343,7
DA:344,7
DA:346,1
DA:347,1
DA:348,1
DA:349,1
DA:350,1
DA:351,1
DA:352,7
DA:353,1
DA:354,1
DA:355,1
DA:358,1
DA:359,1
DA:360,1
DA:361,1
DA:362,1
DA:364,1
DA:365,1
DA:366,1
DA:367,1
DA:368,1
DA:369,1
DA:370,1
DA:371,1
DA:373,1
DA:374,1
DA:377,1
DA:378,1
DA:379,1
DA:380,1
DA:381,1
DA:382,1
DA:383,1
DA:385,1
DA:386,1
DA:387,1
DA:388,1
DA:391,1
DA:392,1
DA:393,1
DA:394,1
DA:395,1
DA:396,1
DA:397,1
DA:398,1
DA:400,1
DA:401,1
DA:402,1
DA:403,1
DA:404,1
DA:407,1
DA:408,1
DA:409,1
DA:410,1
DA:411,1
DA:412,1
DA:413,1
DA:415,1
DA:416,1
DA:417,1
DA:418,1
DA:420,1
DA:423,1
DA:424,1
DA:425,1
DA:426,1
DA:427,1
DA:428,1
DA:429,1
DA:430,1
DA:432,1
DA:433,1
DA:434,1
DA:435,1
DA:436,1
DA:442,1
DA:443,1
DA:444,1
DA:445,1
DA:446,1
DA:447,1
DA:448,1
DA:449,1
DA:451,1
DA:452,1
DA:453,1
DA:454,1
DA:455,1
DA:457,1
DA:458,1
DA:459,1
DA:460,1
DA:461,1
DA:462,1
DA:463,1
DA:464,1
DA:466,1
DA:467,1
DA:468,1
DA:469,1
DA:470,1
DA:477,1
DA:478,1
DA:479,1
DA:480,1
DA:481,1
DA:482,1
DA:483,1
DA:485,1
DA:486,1
DA:487,1
DA:490,1
DA:492,1
DA:493,1
DA:494,1
DA:495,1
DA:496,1
DA:497,1
DA:498,1
DA:499,1
DA:501,1
DA:502,1
DA:505,1
DA:506,1
DA:507,1
DA:508,1
DA:513,1
DA:514,1
DA:515,1
DA:516,1
DA:517,1
DA:518,1
DA:519,1
DA:521,1
DA:522,1
DA:523,1
DA:524,1
DA:526,1
DA:527,1
DA:528,1
DA:529,1
DA:530,1
DA:531,1
DA:532,1
DA:533,1
DA:535,1
DA:536,1
DA:537,1
DA:538,1
DA:539,1
DA:546,1
DA:547,1
DA:548,1
DA:549,1
DA:550,1
DA:551,1
DA:552,1
DA:554,1
DA:555,1
DA:556,1
DA:557,1
DA:558,1
DA:560,1
DA:561,1
DA:562,1
DA:563,1
DA:564,1
DA:565,1
DA:566,1
DA:567,1
DA:569,1
DA:570,1
DA:571,1
DA:572,1
DA:573,1
DA:583,1
DA:588,1
DA:589,1
DA:592,1
DA:593,1
DA:596,1
DA:597,1
DA:600,1
DA:601,1
DA:602,1
BRF:0
BRH:0
LF:429
LH:323
end_of_record
SF:/home/runner/work/mostro/mostro/src/app/admin_take_dispute.rs
FN:183,_RNCNCNvNtNtCsawjdjYzw0zz_7mostrod3app18admin_take_dispute25admin_take_dispute_action00B9_
FN:217,_RNCNCNvNtNtCsawjdjYzw0zz_7mostrod3app18admin_take_dispute25admin_take_dispute_action0s0_0B9_
FN:221,_RNCNCNvNtNtCsawjdjYzw0zz_7mostrod3app18admin_take_dispute25admin_take_dispute_action0s1_0B9_
FN:236,_RNCNCNvNtNtCsawjdjYzw0zz_7mostrod3app18admin_take_dispute25admin_take_dispute_action0s2_0B9_
FN:246,_RNCNCNvNtNtCsawjdjYzw0zz_7mostrod3app18admin_take_dispute25admin_take_dispute_action0s3_0B9_
FN:256,_RNCNCNvNtNtCsawjdjYzw0zz_7mostrod3app18admin_take_dispute25admin_take_dispute_action0s4_0B9_
FN:287,_RNCNCNvNtNtCsawjdjYzw0zz_7mostrod3app18admin_take_dispute25admin_take_dispute_action0s5_0B9_
FN:294,_RNCNCNvNtNtCsawjdjYzw0zz_7mostrod3app18admin_take_dispute25admin_take_dispute_action0s6_0B9_
FN:298,_RNCNCNvNtNtCsawjdjYzw0zz_7mostrod3app18admin_take_dispute25admin_take_dispute_action0s7_0B9_
FN:202,_RNCNCNvNtNtCsawjdjYzw0zz_7mostrod3app18admin_take_dispute25admin_take_dispute_action0s_0B9_
FN:44,_RNCNCNvNtNtCsawjdjYzw0zz_7mostrod3app18admin_take_dispute27prepare_solver_info_message00B9_
FN:92,_RNCNvNtNtCsawjdjYzw0zz_7mostrod3app18admin_take_dispute22pubkey_event_can_solve0B7_
FN:154,_RNCNvNtNtCsawjdjYzw0zz_7mostrod3app18admin_take_dispute25admin_take_dispute_action0B7_
FN:40,_RNCNvNtNtCsawjdjYzw0zz_7mostrod3app18admin_take_dispute27prepare_solver_info_message0B7_
FN:86,_RNvNtNtCsawjdjYzw0zz_7mostrod3app18admin_take_dispute22pubkey_event_can_solve
FN:149,_RNvNtNtCsawjdjYzw0zz_7mostrod3app18admin_take_dispute25admin_take_dispute_action
FN:36,_RNvNtNtCsawjdjYzw0zz_7mostrod3app18admin_take_dispute27prepare_solver_info_message
FN:319,_RNCNvNtNtNtCsawjdjYzw0zz_7mostrod3app18admin_take_dispute5tests13insert_solver0B9_
FN:313,_RNCNvNtNtNtCsawjdjYzw0zz_7mostrod3app18admin_take_dispute5tests16create_test_pool0B9_
FN:507,_RNCNvNtNtNtCsawjdjYzw0zz_7mostrod3app18admin_take_dispute5testss_27unknown_pubkey_cannot_solve0B9_
FN:526,_RNCNvNtNtNtCsawjdjYzw0zz_7mostrod3app18admin_take_dispute5testss_28non_solver_user_cannot_solve0B9_
FN:573,_RNCNvNtNtNtCsawjdjYzw0zz_7mostrod3app18admin_take_dispute5testss_36solver_cannot_act_on_settled_dispute0B9_
FN:550,_RNCNvNtNtNtCsawjdjYzw0zz_7mostrod3app18admin_take_dispute5testss_37any_solver_can_take_initiated_dispute0B9_
FN:490,_RNCNvNtNtNtCsawjdjYzw0zz_7mostrod3app18admin_take_dispute5testss_41mostro_admin_cannot_solve_settled_dispute0B9_
FN:645,_RNCNvNtNtNtCsawjdjYzw0zz_7mostrod3app18admin_take_dispute5testss_45takeover_fails_when_current_solver_is_unknown0B9_
FN:673,_RNCNvNtNtNtCsawjdjYzw0zz_7mostrod3app18admin_take_dispute5testss_50admin_take_dispute_action_without_dispute_id_fails0B9_
FN:779,_RNCNvNtNtNtCsawjdjYzw0zz_7mostrod3app18admin_take_dispute5testss_53admin_take_dispute_action_fails_when_order_is_missing0B9_
FN:746,_RNCNvNtNtNtCsawjdjYzw0zz_7mostrod3app18admin_take_dispute5testss_53admin_take_dispute_action_rejects_unauthorized_pubkey0B9_
FN:689,_RNCNvNtNtNtCsawjdjYzw0zz_7mostrod3app18admin_take_dispute5testss_55admin_take_dispute_action_with_unknown_dispute_id_fails0B9_
FN:445,_RNCNvNtNtNtCsawjdjYzw0zz_7mostrod3app18admin_take_dispute5testss_55prepare_solver_info_message_propagates_missing_user_row0B9_
FN:373,_RNCNvNtNtNtCsawjdjYzw0zz_7mostrod3app18admin_take_dispute5testss_55prepare_solver_info_message_seller_dispute_full_privacy0B9_
FN:425,_RNCNvNtNtNtCsawjdjYzw0zz_7mostrod3app18admin_take_dispute5testss_55prepare_solver_info_message_without_dispute_flags_fails0B9_
FN:468,_RNCNvNtNtNtCsawjdjYzw0zz_7mostrod3app18admin_take_dispute5testss_56mostro_admin_can_solve_initiated_and_inprogress_disputes0B9_
FN:619,_RNCNvNtNtNtCsawjdjYzw0zz_7mostrod3app18admin_take_dispute5testss_57currently_assigned_solver_can_continue_inprogress_dispute0B9_
FN:935,_RNCNvNtNtNtCsawjdjYzw0zz_7mostrod3app18admin_take_dispute5testss_58write_solver_cannot_take_over_inprogress_from_write_solver0B9_
FN:712,_RNCNvNtNtNtCsawjdjYzw0zz_7mostrod3app18admin_take_dispute5testss_59admin_take_dispute_action_with_garbage_dispute_status_fails0B9_
FN:863,_RNCNvNtNtNtCsawjdjYzw0zz_7mostrod3app18admin_take_dispute5testss_59write_solver_can_take_over_inprogress_from_read_only_solver0B9_
FN:815,_RNCNvNtNtNtCsawjdjYzw0zz_7mostrod3app18admin_take_dispute5testss_61admin_take_dispute_action_assigns_solver_and_persists_dispute0B9_
FN:398,_RNCNvNtNtNtCsawjdjYzw0zz_7mostrod3app18admin_take_dispute5testss_63prepare_solver_info_message_buyer_dispute_with_identified_buyer0B9_
FN:596,_RNCNvNtNtNtCsawjdjYzw0zz_7mostrod3app18admin_take_dispute5testss_63solver_cannot_act_on_inprogress_dispute_without_assigned_solver0B9_
FN:899,_RNCNvNtNtNtCsawjdjYzw0zz_7mostrod3app18admin_take_dispute5testss_66read_only_solver_cannot_take_over_inprogress_from_read_only_solver0B9_
FN:319,_RNvNtNtNtCsawjdjYzw0zz_7mostrod3app18admin_take_dispute5tests13insert_solver
FN:313,_RNvNtNtNtCsawjdjYzw0zz_7mostrod3app18admin_take_dispute5tests16create_test_pool
FN:361,_RNvNtNtNtCsawjdjYzw0zz_7mostrod3app18admin_take_dispute5tests16take_dispute_msg
FN:337,_RNvNtNtNtCsawjdjYzw0zz_7mostrod3app18admin_take_dispute5tests18create_admin_event
FN:347,_RNvNtNtNtCsawjdjYzw0zz_7mostrod3app18admin_take_dispute5tests20create_dispute_order
FN:325,_RNvNtNtNtCsawjdjYzw0zz_7mostrod3app18admin_take_dispute5tests9build_ctx
FN:507,_RNvNtNtNtCsawjdjYzw0zz_7mostrod3app18admin_take_dispute5testss_27unknown_pubkey_cannot_solve
FN:526,_RNvNtNtNtCsawjdjYzw0zz_7mostrod3app18admin_take_dispute5testss_28non_solver_user_cannot_solve
FN:573,_RNvNtNtNtCsawjdjYzw0zz_7mostrod3app18admin_take_dispute5testss_36solver_cannot_act_on_settled_dispute
FN:550,_RNvNtNtNtCsawjdjYzw0zz_7mostrod3app18admin_take_dispute5testss_37any_solver_can_take_initiated_dispute
FN:490,_RNvNtNtNtCsawjdjYzw0zz_7mostrod3app18admin_take_dispute5testss_41mostro_admin_cannot_solve_settled_dispute
FN:645,_RNvNtNtNtCsawjdjYzw0zz_7mostrod3app18admin_take_dispute5testss_45takeover_fails_when_current_solver_is_unknown
FN:673,_RNvNtNtNtCsawjdjYzw0zz_7mostrod3app18admin_take_dispute5testss_50admin_take_dispute_action_without_dispute_id_fails
FN:779,_RNvNtNtNtCsawjdjYzw0zz_7mostrod3app18admin_take_dispute5testss_53admin_take_dispute_action_fails_when_order_is_missing
FN:746,_RNvNtNtNtCsawjdjYzw0zz_7mostrod3app18admin_take_dispute5testss_53admin_take_dispute_action_rejects_unauthorized_pubkey
FN:689,_RNvNtNtNtCsawjdjYzw0zz_7mostrod3app18admin_take_dispute5testss_55admin_take_dispute_action_with_unknown_dispute_id_fails
FN:445,_RNvNtNtNtCsawjdjYzw0zz_7mostrod3app18admin_take_dispute5testss_55prepare_solver_info_message_propagates_missing_user_row
FN:373,_RNvNtNtNtCsawjdjYzw0zz_7mostrod3app18admin_take_dispute5testss_55prepare_solver_info_message_seller_dispute_full_privacy
FN:425,_RNvNtNtNtCsawjdjYzw0zz_7mostrod3app18admin_take_dispute5testss_55prepare_solver_info_message_without_dispute_flags_fails
FN:468,_RNvNtNtNtCsawjdjYzw0zz_7mostrod3app18admin_take_dispute5testss_56mostro_admin_can_solve_initiated_and_inprogress_disputes
FN:619,_RNvNtNtNtCsawjdjYzw0zz_7mostrod3app18admin_take_dispute5testss_57currently_assigned_solver_can_continue_inprogress_dispute
FN:935,_RNvNtNtNtCsawjdjYzw0zz_7mostrod3app18admin_take_dispute5testss_58write_solver_cannot_take_over_inprogress_from_write_solver
FN:712,_RNvNtNtNtCsawjdjYzw0zz_7mostrod3app18admin_take_dispute5testss_59admin_take_dispute_action_with_garbage_dispute_status_fails
FN:863,_RNvNtNtNtCsawjdjYzw0zz_7mostrod3app18admin_take_dispute5testss_59write_solver_can_take_over_inprogress_from_read_only_solver
FN:815,_RNvNtNtNtCsawjdjYzw0zz_7mostrod3app18admin_take_dispute5testss_61admin_take_dispute_action_assigns_solver_and_persists_dispute
FN:398,_RNvNtNtNtCsawjdjYzw0zz_7mostrod3app18admin_take_dispute5testss_63prepare_solver_info_message_buyer_dispute_with_identified_buyer
FN:596,_RNvNtNtNtCsawjdjYzw0zz_7mostrod3app18admin_take_dispute5testss_63solver_cannot_act_on_inprogress_dispute_without_assigned_solver
FN:899,_RNvNtNtNtCsawjdjYzw0zz_7mostrod3app18admin_take_dispute5testss_66read_only_solver_cannot_take_over_inprogress_from_read_only_solver
FNDA:0,_RNCNCNvNtNtCsawjdjYzw0zz_7mostrod3app18admin_take_dispute25admin_take_dispute_action00B9_
FNDA:0,_RNCNCNvNtNtCsawjdjYzw0zz_7mostrod3app18admin_take_dispute25admin_take_dispute_action0s0_0B9_
FNDA:0,_RNCNCNvNtNtCsawjdjYzw0zz_7mostrod3app18admin_take_dispute25admin_take_dispute_action0s1_0B9_
FNDA:0,_RNCNCNvNtNtCsawjdjYzw0zz_7mostrod3app18admin_take_dispute25admin_take_dispute_action0s2_0B9_
FNDA:0,_RNCNCNvNtNtCsawjdjYzw0zz_7mostrod3app18admin_take_dispute25admin_take_dispute_action0s3_0B9_
FNDA:0,_RNCNCNvNtNtCsawjdjYzw0zz_7mostrod3app18admin_take_dispute25admin_take_dispute_action0s4_0B9_
FNDA:0,_RNCNCNvNtNtCsawjdjYzw0zz_7mostrod3app18admin_take_dispute25admin_take_dispute_action0s5_0B9_
FNDA:1,_RNCNCNvNtNtCsawjdjYzw0zz_7mostrod3app18admin_take_dispute25admin_take_dispute_action0s6_0B9_
FNDA:1,_RNCNCNvNtNtCsawjdjYzw0zz_7mostrod3app18admin_take_dispute25admin_take_dispute_action0s7_0B9_
FNDA:0,_RNCNCNvNtNtCsawjdjYzw0zz_7mostrod3app18admin_take_dispute25admin_take_dispute_action0s_0B9_
FNDA:0,_RNCNCNvNtNtCsawjdjYzw0zz_7mostrod3app18admin_take_dispute27prepare_solver_info_message00B9_
FNDA:16,_RNCNvNtNtCsawjdjYzw0zz_7mostrod3app18admin_take_dispute22pubkey_event_can_solve0B7_
FNDA:8,_RNCNvNtNtCsawjdjYzw0zz_7mostrod3app18admin_take_dispute25admin_take_dispute_action0B7_
FNDA:5,_RNCNvNtNtCsawjdjYzw0zz_7mostrod3app18admin_take_dispute27prepare_solver_info_message0B7_
FNDA:16,_RNvNtNtCsawjdjYzw0zz_7mostrod3app18admin_take_dispute22pubkey_event_can_solve
FNDA:8,_RNvNtNtCsawjdjYzw0zz_7mostrod3app18admin_take_dispute25admin_take_dispute_action
FNDA:5,_RNvNtNtCsawjdjYzw0zz_7mostrod3app18admin_take_dispute27prepare_solver_info_message
FNDA:13,_RNCNvNtNtNtCsawjdjYzw0zz_7mostrod3app18admin_take_dispute5tests13insert_solver0B9_
FNDA:22,_RNCNvNtNtNtCsawjdjYzw0zz_7mostrod3app18admin_take_dispute5tests16create_test_pool0B9_
FNDA:1,_RNCNvNtNtNtCsawjdjYzw0zz_7mostrod3app18admin_take_dispute5testss_27unknown_pubkey_cannot_solve0B9_
FNDA:1,_RNCNvNtNtNtCsawjdjYzw0zz_7mostrod3app18admin_take_dispute5testss_28non_solver_user_cannot_solve0B9_
FNDA:1,_RNCNvNtNtNtCsawjdjYzw0zz_7mostrod3app18admin_take_dispute5testss_36solver_cannot_act_on_settled_dispute0B9_
FNDA:1,_RNCNvNtNtNtCsawjdjYzw0zz_7mostrod3app18admin_take_dispute5testss_37any_solver_can_take_initiated_dispute0B9_
FNDA:1,_RNCNvNtNtNtCsawjdjYzw0zz_7mostrod3app18admin_take_dispute5testss_41mostro_admin_cannot_solve_settled_dispute0B9_
FNDA:1,_RNCNvNtNtNtCsawjdjYzw0zz_7mostrod3app18admin_take_dispute5testss_45takeover_fails_when_current_solver_is_unknown0B9_
FNDA:1,_RNCNvNtNtNtCsawjdjYzw0zz_7mostrod3app18admin_take_dispute5testss_50admin_take_dispute_action_without_dispute_id_fails0B9_
FNDA:1,_RNCNvNtNtNtCsawjdjYzw0zz_7mostrod3app18admin_take_dispute5testss_53admin_take_dispute_action_fails_when_order_is_missing0B9_
FNDA:1,_RNCNvNtNtNtCsawjdjYzw0zz_7mostrod3app18admin_take_dispute5testss_53admin_take_dispute_action_rejects_unauthorized_pubkey0B9_
FNDA:1,_RNCNvNtNtNtCsawjdjYzw0zz_7mostrod3app18admin_take_dispute5testss_55admin_take_dispute_action_with_unknown_dispute_id_fails0B9_
FNDA:1,_RNCNvNtNtNtCsawjdjYzw0zz_7mostrod3app18admin_take_dispute5testss_55prepare_solver_info_message_propagates_missing_user_row0B9_
FNDA:1,_RNCNvNtNtNtCsawjdjYzw0zz_7mostrod3app18admin_take_dispute5testss_55prepare_solver_info_message_seller_dispute_full_privacy0B9_
FNDA:1,_RNCNvNtNtNtCsawjdjYzw0zz_7mostrod3app18admin_take_dispute5testss_55prepare_solver_info_message_without_dispute_flags_fails0B9_
FNDA:1,_RNCNvNtNtNtCsawjdjYzw0zz_7mostrod3app18admin_take_dispute5testss_56mostro_admin_can_solve_initiated_and_inprogress_disputes0B9_
FNDA:1,_RNCNvNtNtNtCsawjdjYzw0zz_7mostrod3app18admin_take_dispute5testss_57currently_assigned_solver_can_continue_inprogress_dispute0B9_
FNDA:1,_RNCNvNtNtNtCsawjdjYzw0zz_7mostrod3app18admin_take_dispute5testss_58write_solver_cannot_take_over_inprogress_from_write_solver0B9_
FNDA:1,_RNCNvNtNtNtCsawjdjYzw0zz_7mostrod3app18admin_take_dispute5testss_59admin_take_dispute_action_with_garbage_dispute_status_fails0B9_
FNDA:1,_RNCNvNtNtNtCsawjdjYzw0zz_7mostrod3app18admin_take_dispute5testss_59write_solver_can_take_over_inprogress_from_read_only_solver0B9_
FNDA:1,_RNCNvNtNtNtCsawjdjYzw0zz_7mostrod3app18admin_take_dispute5testss_61admin_take_dispute_action_assigns_solver_and_persists_dispute0B9_
FNDA:1,_RNCNvNtNtNtCsawjdjYzw0zz_7mostrod3app18admin_take_dispute5testss_63prepare_solver_info_message_buyer_dispute_with_identified_buyer0B9_
FNDA:1,_RNCNvNtNtNtCsawjdjYzw0zz_7mostrod3app18admin_take_dispute5testss_63solver_cannot_act_on_inprogress_dispute_without_assigned_solver0B9_
FNDA:1,_RNCNvNtNtNtCsawjdjYzw0zz_7mostrod3app18admin_take_dispute5testss_66read_only_solver_cannot_take_over_inprogress_from_read_only_solver0B9_
FNDA:13,_RNvNtNtNtCsawjdjYzw0zz_7mostrod3app18admin_take_dispute5tests13insert_solver
FNDA:22,_RNvNtNtNtCsawjdjYzw0zz_7mostrod3app18admin_take_dispute5tests16create_test_pool
FNDA:6,_RNvNtNtNtCsawjdjYzw0zz_7mostrod3app18admin_take_dispute5tests16take_dispute_msg
FNDA:6,_RNvNtNtNtCsawjdjYzw0zz_7mostrod3app18admin_take_dispute5tests18create_admin_event
FNDA:7,_RNvNtNtNtCsawjdjYzw0zz_7mostrod3app18admin_take_dispute5tests20create_dispute_order
FNDA:6,_RNvNtNtNtCsawjdjYzw0zz_7mostrod3app18admin_take_dispute5tests9build_ctx
FNDA:1,_RNvNtNtNtCsawjdjYzw0zz_7mostrod3app18admin_take_dispute5testss_27unknown_pubkey_cannot_solve
FNDA:1,_RNvNtNtNtCsawjdjYzw0zz_7mostrod3app18admin_take_dispute5testss_28non_solver_user_cannot_solve
FNDA:1,_RNvNtNtNtCsawjdjYzw0zz_7mostrod3app18admin_take_dispute5testss_36solver_cannot_act_on_settled_dispute
FNDA:1,_RNvNtNtNtCsawjdjYzw0zz_7mostrod3app18admin_take_dispute5testss_37any_solver_can_take_initiated_dispute
FNDA:1,_RNvNtNtNtCsawjdjYzw0zz_7mostrod3app18admin_take_dispute5testss_41mostro_admin_cannot_solve_settled_dispute
FNDA:1,_RNvNtNtNtCsawjdjYzw0zz_7mostrod3app18admin_take_dispute5testss_45takeover_fails_when_current_solver_is_unknown
FNDA:1,_RNvNtNtNtCsawjdjYzw0zz_7mostrod3app18admin_take_dispute5testss_50admin_take_dispute_action_without_dispute_id_fails
FNDA:1,_RNvNtNtNtCsawjdjYzw0zz_7mostrod3app18admin_take_dispute5testss_53admin_take_dispute_action_fails_when_order_is_missing
FNDA:1,_RNvNtNtNtCsawjdjYzw0zz_7mostrod3app18admin_take_dispute5testss_53admin_take_dispute_action_rejects_unauthorized_pubkey
FNDA:1,_RNvNtNtNtCsawjdjYzw0zz_7mostrod3app18admin_take_dispute5testss_55admin_take_dispute_action_with_unknown_dispute_id_fails
FNDA:1,_RNvNtNtNtCsawjdjYzw0zz_7mostrod3app18admin_take_dispute5testss_55prepare_solver_info_message_propagates_missing_user_row
FNDA:1,_RNvNtNtNtCsawjdjYzw0zz_7mostrod3app18admin_take_dispute5testss_55prepare_solver_info_message_seller_dispute_full_privacy
FNDA:1,_RNvNtNtNtCsawjdjYzw0zz_7mostrod3app18admin_take_dispute5testss_55prepare_solver_info_message_without_dispute_flags_fails
FNDA:1,_RNvNtNtNtCsawjdjYzw0zz_7mostrod3app18admin_take_dispute5testss_56mostro_admin_can_solve_initiated_and_inprogress_disputes
FNDA:1,_RNvNtNtNtCsawjdjYzw0zz_7mostrod3app18admin_take_dispute5testss_57currently_assigned_solver_can_continue_inprogress_dispute
FNDA:1,_RNvNtNtNtCsawjdjYzw0zz_7mostrod3app18admin_take_dispute5testss_58write_solver_cannot_take_over_inprogress_from_write_solver
FNDA:1,_RNvNtNtNtCsawjdjYzw0zz_7mostrod3app18admin_take_dispute5testss_59admin_take_dispute_action_with_garbage_dispute_status_fails
FNDA:1,_RNvNtNtNtCsawjdjYzw0zz_7mostrod3app18admin_take_dispute5testss_59write_solver_can_take_over_inprogress_from_read_only_solver
FNDA:1,_RNvNtNtNtCsawjdjYzw0zz_7mostrod3app18admin_take_dispute5testss_61admin_take_dispute_action_assigns_solver_and_persists_dispute
FNDA:1,_RNvNtNtNtCsawjdjYzw0zz_7mostrod3app18admin_take_dispute5testss_63prepare_solver_info_message_buyer_dispute_with_identified_buyer
FNDA:1,_RNvNtNtNtCsawjdjYzw0zz_7mostrod3app18admin_take_dispute5testss_63solver_cannot_act_on_inprogress_dispute_without_assigned_solver
FNDA:1,_RNvNtNtNtCsawjdjYzw0zz_7mostrod3app18admin_take_dispute5testss_66read_only_solver_cannot_take_over_inprogress_from_read_only_solver
FNF:69
FNH:60
DA:36,5
DA:37,5
DA:38,5
DA:39,5
DA:40,5
DA:42,5
DA:43,5
DA:44,5
DA:47,5
DA:48,1
DA:50,4
DA:52,5
DA:53,1
DA:55,4
DA:59,3
DA:60,4
DA:62,1
DA:63,1
DA:64,1
DA:67,2
DA:68,2
DA:69,2
DA:71,1
DA:75,3
DA:76,3
DA:77,3
DA:78,3
DA:79,3
DA:80,3
DA:83,3
DA:84,5
DA:86,16
DA:87,16
DA:88,16
DA:89,16
DA:90,16
DA:91,16
DA:92,16
DA:93,16
DA:96,16
DA:98,0
DA:101,16
DA:102,3
DA:104,2
DA:105,14
DA:108,14
DA:109,4
DA:111,10
DA:112,0
DA:113,10
DA:116,10
DA:117,3
DA:118,7
DA:121,7
DA:122,1
DA:123,6
DA:126,6
DA:127,1
DA:129,5
DA:130,1
DA:131,4
DA:134,4
DA:135,4
DA:136,4
DA:137,4
DA:138,1
DA:139,3
DA:141,3
DA:143,1
DA:146,2
DA:147,16
DA:149,8
DA:150,8
DA:151,8
DA:152,8
DA:153,8
DA:154,8
DA:155,8
DA:157,8
DA:160,8
DA:163,4
DA:164,3
DA:165,3
DA:166,3
DA:167,3
DA:168,3
DA:169,3
DA:170,3
DA:171,3
DA:174,1
DA:175,2
DA:177,1
DA:181,2
DA:182,2
DA:183,2
DA:185,1
DA:187,1
DA:191,1
DA:192,1
DA:193,1
DA:195,1
DA:198,1
DA:199,1
DA:200,1
DA:201,1
DA:202,1
DA:205,1
DA:208,1
DA:209,1
DA:210,1
DA:211,1
DA:212,1
DA:213,1
DA:215,1
DA:216,1
DA:217,1
DA:219,1
DA:220,1
DA:221,1
DA:225,1
DA:226,1
DA:227,1
DA:228,1
DA:229,1
DA:230,1
DA:231,1
DA:232,1
DA:233,1
DA:234,1
DA:235,1
DA:236,1
DA:239,1
DA:240,1
DA:241,1
DA:242,1
DA:243,1
DA:245,1
DA:246,1
DA:249,1
DA:250,1
DA:251,1
DA:252,1
DA:253,1
DA:255,1
DA:256,1
DA:259,1
DA:260,0
DA:261,1
DA:262,0
DA:266,1
DA:267,1
DA:268,1
DA:269,1
DA:272,1
DA:273,1
DA:274,1
DA:276,1
DA:277,1
DA:278,1
DA:280,1
DA:281,1
DA:282,1
DA:286,1
DA:287,1
DA:288,1
DA:290,1
DA:291,1
DA:292,1
DA:293,1
DA:294,1
DA:295,1
DA:296,1
DA:297,1
DA:298,1
DA:300,0
DA:301,8
DA:313,22
DA:314,22
DA:315,22
DA:316,22
DA:317,22
DA:319,13
DA:320,13
DA:321,13
DA:322,13
DA:323,13
DA:325,6
DA:328,6
DA:329,6
DA:330,6
DA:331,6
DA:332,6
DA:333,6
DA:337,6
DA:338,6
DA:339,6
DA:340,6
DA:341,6
DA:342,6
DA:343,6
DA:344,6
DA:345,6
DA:347,7
DA:348,7
DA:349,7
DA:350,7
DA:351,7
DA:352,7
DA:353,7
DA:354,7
DA:355,7
DA:356,7
DA:357,7
DA:358,7
DA:359,7
DA:361,6
DA:362,6
DA:363,6
DA:373,1
DA:374,1
DA:375,1
DA:376,1
DA:378,1
DA:379,1
DA:380,1
DA:382,1
DA:383,1
DA:384,1
DA:386,1
DA:387,1
DA:388,1
DA:389,1
DA:390,1
DA:391,1
DA:398,1
DA:399,1
DA:400,1
DA:401,1
DA:402,1
DA:404,1
DA:405,1
DA:406,1
DA:408,1
DA:409,1
DA:410,1
DA:411,1
DA:413,1
DA:414,1
DA:415,1
DA:417,1
DA:418,1
DA:419,1
DA:420,1
DA:421,1
DA:422,1
DA:425,1
DA:426,1
DA:427,1
DA:428,1
DA:431,1
DA:432,1
DA:434,1
DA:436,1
DA:437,1
DA:438,1
DA:439,1
DA:440,1
DA:445,1
DA:446,1
DA:447,1
DA:448,1
DA:450,1
DA:451,1
DA:452,1
DA:453,1
DA:455,1
DA:457,1
DA:458,1
DA:459,1
DA:460,1
DA:461,1
DA:468,1
DA:469,1
DA:470,1
DA:472,2
DA:473,2
DA:474,2
DA:475,2
DA:476,2
DA:477,2
DA:478,2
DA:479,2
DA:480,2
DA:481,2
DA:482,1
DA:483,1
DA:484,1
DA:490,1
DA:491,1
DA:492,1
DA:494,1
DA:495,1
DA:496,1
DA:497,1
DA:498,1
DA:499,1
DA:500,1
DA:501,1
DA:502,1
DA:503,1
DA:504,1
DA:507,1
DA:508,1
DA:510,1
DA:511,1
DA:512,1
DA:513,1
DA:514,1
DA:515,1
DA:516,1
DA:517,1
DA:518,1
DA:519,1
DA:520,1
DA:526,1
DA:527,1
DA:528,1
DA:530,1
DA:531,1
DA:532,1
DA:533,1
DA:534,1
DA:535,1
DA:537,1
DA:538,1
DA:539,1
DA:540,1
DA:541,1
DA:542,1
DA:543,1
DA:544,1
DA:545,1
DA:546,1
DA:547,1
DA:550,1
DA:551,1
DA:552,1
DA:553,1
DA:554,1
DA:555,1
DA:556,1
DA:557,1
DA:558,1
DA:560,1
DA:561,1
DA:562,1
DA:563,1
DA:564,1
DA:565,1
DA:566,1
DA:567,1
DA:568,1
DA:569,1
DA:570,1
DA:573,1
DA:574,1
DA:575,1
DA:576,1
DA:577,1
DA:578,1
DA:579,1
DA:580,1
DA:581,1
DA:583,1
DA:584,1
DA:585,1
DA:586,1
DA:587,1
DA:588,1
DA:589,1
DA:590,1
DA:591,1
DA:592,1
DA:593,1
DA:596,1
DA:597,1
DA:598,1
DA:599,1
DA:600,1
DA:601,1
DA:602,1
DA:603,1
DA:604,1
DA:606,1
DA:607,1
DA:608,1
DA:609,1
DA:610,1
DA:611,1
DA:612,1
DA:613,1
DA:614,1
DA:615,1
DA:616,1
DA:619,1
DA:620,1
DA:621,1
DA:622,1
DA:623,1
DA:624,1
DA:625,1
DA:626,1
DA:627,1
DA:629,1
DA:630,1
DA:631,1
DA:632,1
DA:633,1
DA:634,1
DA:635,1
DA:636,1
DA:637,1
DA:638,1
DA:639,1
DA:640,1
DA:645,1
DA:646,1
DA:647,1
DA:648,1
DA:649,1
DA:650,1
DA:651,1
DA:652,1
DA:653,1
DA:655,1
DA:656,1
DA:657,1
DA:658,1
DA:659,1
DA:660,1
DA:661,1
DA:662,1
DA:663,1
DA:664,1
DA:665,1
DA:666,1
DA:673,1
DA:674,1
DA:675,1
DA:676,1
DA:677,1
DA:679,1
DA:680,1
DA:682,1
DA:683,1
DA:684,1
DA:685,1
DA:686,1
DA:689,1
DA:690,1
DA:691,1
DA:692,1
DA:693,1
DA:695,1
DA:696,1
DA:697,1
DA:698,1
DA:699,1
DA:700,1
DA:701,1
DA:703,1
DA:704,1
DA:705,1
DA:706,1
DA:707,1
DA:712,1
DA:713,1
DA:714,1
DA:715,1
DA:716,1
DA:717,1
DA:719,1
DA:720,1
DA:721,1
DA:722,1
DA:723,1
DA:724,1
DA:725,1
DA:726,1
DA:727,1
DA:728,1
DA:730,1
DA:731,1
DA:732,1
DA:733,1
DA:734,1
DA:735,1
DA:736,1
DA:737,1
DA:739,1
DA:740,1
DA:741,1
DA:742,1
DA:743,1
DA:746,1
DA:747,1
DA:748,1
DA:749,1
DA:750,1
DA:751,1
DA:753,1
DA:754,1
DA:755,1
DA:756,1
DA:757,1
DA:758,1
DA:759,1
DA:760,1
DA:763,1
DA:764,1
DA:765,1
DA:766,1
DA:767,1
DA:768,1
DA:769,1
DA:770,1
DA:772,1
DA:773,1
DA:774,1
DA:775,1
DA:776,1
DA:779,1
DA:780,1
DA:781,1
DA:782,1
DA:783,1
DA:784,1
DA:785,1
DA:786,1
DA:787,1
DA:788,1
DA:789,1
DA:792,1
DA:793,1
DA:794,1
DA:795,1
DA:797,1
DA:798,1
DA:799,1
DA:800,1
DA:801,1
DA:802,1
DA:803,1
DA:804,1
DA:806,1
DA:807,1
DA:815,1
DA:816,1
DA:817,1
DA:818,1
DA:819,1
DA:820,1
DA:821,1
DA:823,1
DA:824,1
DA:825,1
DA:826,1
DA:827,1
DA:828,1
DA:830,1
DA:831,1
DA:832,1
DA:833,1
DA:834,1
DA:835,1
DA:836,1
DA:838,1
DA:839,1
DA:840,1
DA:841,1
DA:842,1
DA:843,1
DA:844,1
DA:845,1
DA:847,1
DA:848,1
DA:853,1
DA:854,1
DA:855,1
DA:857,1
DA:859,1
DA:860,1
DA:863,1
DA:864,1
DA:865,1
DA:866,1
DA:867,1
DA:869,1
DA:870,1
DA:871,1
DA:872,1
DA:873,1
DA:874,1
DA:875,1
DA:876,1
DA:877,1
DA:878,1
DA:879,1
DA:880,1
DA:882,1
DA:883,1
DA:884,1
DA:885,1
DA:886,1
DA:887,1
DA:888,1
DA:889,1
DA:890,1
DA:892,1
DA:893,1
DA:894,1
DA:895,1
DA:896,1
DA:899,1
DA:900,1
DA:901,1
DA:902,1
DA:903,1
DA:905,1
DA:906,1
DA:907,1
DA:908,1
DA:909,1
DA:910,1
DA:911,1
DA:912,1
DA:913,1
DA:914,1
DA:915,1
DA:916,1
DA:918,1
DA:919,1
DA:920,1
DA:921,1
DA:922,1
DA:923,1
DA:924,1
DA:925,1
DA:926,1
DA:928,1
DA:929,1
DA:930,1
DA:931,1
DA:932,1
DA:935,1
DA:936,1
DA:937,1
DA:938,1
DA:939,1
DA:941,1
DA:942,1
DA:943,1
DA:944,1
DA:945,1
DA:946,1
DA:947,1
DA:948,1
DA:949,1
DA:950,1
DA:951,1
DA:952,1
DA:954,1
DA:955,1
DA:956,1
DA:957,1
DA:958,1
DA:959,1
DA:960,1
DA:961,1
DA:962,1
DA:964,1
DA:965,1
DA:966,1
DA:967,1
DA:968,1
BRF:0
BRH:0
LF:827
LH:813
end_of_record
SF:/home/runner/work/mostro/mostro/src/app/bond/crud.rs
FN:152,_RNCNCNvXNtNtNtCsawjdjYzw0zz_7mostrod3app4bond4crudNtNtB8_5model4BondNtNtCslqcfxngUo0W_11mostro_core2db4Crud6create00Bc_
FN:180,_RNCNvXNtNtNtCsawjdjYzw0zz_7mostrod3app4bond4crudNtNtB6_5model4BondNtNtCslqcfxngUo0W_11mostro_core2db4Crud5by_id0Ba_
FN:143,_RNCNvXNtNtNtCsawjdjYzw0zz_7mostrod3app4bond4crudNtNtB6_5model4BondNtNtCslqcfxngUo0W_11mostro_core2db4Crud6create0Ba_
FN:162,_RNCNvXNtNtNtCsawjdjYzw0zz_7mostrod3app4bond4crudNtNtB6_5model4BondNtNtCslqcfxngUo0W_11mostro_core2db4Crud6update0Ba_
FN:82,_RNvNtNtNtCsawjdjYzw0zz_7mostrod3app4bond4crud20push_bond_update_set
FN:48,_RNvNtNtNtCsawjdjYzw0zz_7mostrod3app4bond4crud22push_bond_insert_binds
FN:175,_RNvXNtNtNtCsawjdjYzw0zz_7mostrod3app4bond4crudNtNtB4_5model4BondNtNtCslqcfxngUo0W_11mostro_core2db4Crud5by_id
FN:141,_RNvXNtNtNtCsawjdjYzw0zz_7mostrod3app4bond4crudNtNtB4_5model4BondNtNtCslqcfxngUo0W_11mostro_core2db4Crud6create
FN:160,_RNvXNtNtNtCsawjdjYzw0zz_7mostrod3app4bond4crudNtNtB4_5model4BondNtNtCslqcfxngUo0W_11mostro_core2db4Crud6update
FNDA:215,_RNCNCNvXNtNtNtCsawjdjYzw0zz_7mostrod3app4bond4crudNtNtB8_5model4BondNtNtCslqcfxngUo0W_11mostro_core2db4Crud6create00Bc_
FNDA:29,_RNCNvXNtNtNtCsawjdjYzw0zz_7mostrod3app4bond4crudNtNtB6_5model4BondNtNtCslqcfxngUo0W_11mostro_core2db4Crud5by_id0Ba_
FNDA:215,_RNCNvXNtNtNtCsawjdjYzw0zz_7mostrod3app4bond4crudNtNtB6_5model4BondNtNtCslqcfxngUo0W_11mostro_core2db4Crud6create0Ba_
FNDA:31,_RNCNvXNtNtNtCsawjdjYzw0zz_7mostrod3app4bond4crudNtNtB6_5model4BondNtNtCslqcfxngUo0W_11mostro_core2db4Crud6update0Ba_
FNDA:31,_RNvNtNtNtCsawjdjYzw0zz_7mostrod3app4bond4crud20push_bond_update_set
FNDA:215,_RNvNtNtNtCsawjdjYzw0zz_7mostrod3app4bond4crud22push_bond_insert_binds
FNDA:29,_RNvXNtNtNtCsawjdjYzw0zz_7mostrod3app4bond4crudNtNtB4_5model4BondNtNtCslqcfxngUo0W_11mostro_core2db4Crud5by_id
FNDA:215,_RNvXNtNtNtCsawjdjYzw0zz_7mostrod3app4bond4crudNtNtB4_5model4BondNtNtCslqcfxngUo0W_11mostro_core2db4Crud6create
FNDA:31,_RNvXNtNtNtCsawjdjYzw0zz_7mostrod3app4bond4crudNtNtB4_5model4BondNtNtCslqcfxngUo0W_11mostro_core2db4Crud6update
FNF:9
FNH:9
DA:48,215
DA:49,215
DA:50,215
DA:51,215
DA:52,215
DA:53,215
DA:54,215
DA:55,215
DA:56,215
DA:57,215
DA:58,215
DA:59,215
DA:60,215
DA:61,215
DA:62,215
DA:63,215
DA:64,215
DA:65,215
DA:66,215
DA:67,215
DA:68,215
DA:69,215
DA:70,215
DA:71,215
DA:72,215
DA:73,215
DA:74,215
DA:75,215
DA:76,215
DA:77,215
DA:78,215
DA:79,215
DA:80,215
DA:82,31
DA:85,31
DA:86,31
DA:87,31
DA:88,31
DA:89,31
DA:90,31
DA:91,31
DA:92,31
DA:93,31
DA:94,31
DA:95,31
DA:96,31
DA:97,31
DA:98,31
DA:99,31
DA:100,31
DA:101,31
DA:102,31
DA:103,31
DA:104,31
DA:105,31
DA:106,31
DA:107,31
DA:108,31
DA:109,31
DA:110,31
DA:111,31
DA:112,31
DA:113,31
DA:114,31
DA:115,31
DA:116,31
DA:117,31
DA:118,31
DA:119,31
DA:120,31
DA:121,31
DA:122,31
DA:123,31
DA:124,31
DA:125,31
DA:126,31
DA:127,31
DA:128,31
DA:129,31
DA:130,31
DA:131,31
DA:132,31
DA:133,31
DA:134,31
DA:135,31
DA:136,31
DA:137,31
DA:138,31
DA:141,215
DA:142,215
DA:143,215
DA:144,215
DA:146,215
DA:147,6665
DA:148,6665
DA:149,6665
DA:151,215
DA:152,215
DA:153,215
DA:154,215
DA:155,215
DA:156,215
DA:157,215
DA:158,215
DA:160,31
DA:161,31
DA:162,31
DA:163,31
DA:164,31
DA:165,31
DA:166,31
DA:167,31
DA:168,31
DA:169,31
DA:170,31
DA:171,31
DA:172,31
DA:173,31
DA:175,29
DA:176,29
DA:177,29
DA:178,29
DA:179,29
DA:180,29
DA:181,29
DA:182,29
DA:183,29
DA:184,29
DA:185,29
DA:186,29
BRF:0
BRH:0
LF:131
LH:131
end_of_record
SF:/home/runner/work/mostro/mostro/src/app/bond/db.rs
FN:28,_RNCNCNvNtNtNtCsawjdjYzw0zz_7mostrod3app4bond2db11create_bond00Bb_
FN:320,_RNCNCNvNtNtNtCsawjdjYzw0zz_7mostrod3app4bond2db11update_bond00Bb_
FN:80,_RNCNCNvNtNtNtCsawjdjYzw0zz_7mostrod3app4bond2db15find_bond_by_id00Bb_
FN:112,_RNCNCNvNtNtNtCsawjdjYzw0zz_7mostrod3app4bond2db17find_active_bonds00Bb_
FN:94,_RNCNCNvNtNtNtCsawjdjYzw0zz_7mostrod3app4bond2db17find_bond_by_hash00Bb_
FN:68,_RNCNCNvNtNtNtCsawjdjYzw0zz_7mostrod3app4bond2db19find_bonds_by_state00Bb_
FN:190,_RNCNCNvNtNtNtCsawjdjYzw0zz_7mostrod3app4bond2db21find_range_root_order00Bb_
FN:167,_RNCNCNvNtNtNtCsawjdjYzw0zz_7mostrod3app4bond2db25find_active_bond_by_taker00Bb_
FN:309,_RNCNCNvNtNtNtCsawjdjYzw0zz_7mostrod3app4bond2db25range_tree_fully_terminal0s_0Bb_
FN:134,_RNCNCNvNtNtNtCsawjdjYzw0zz_7mostrod3app4bond2db27find_active_bonds_for_order00Bb_
FN:54,_RNCNCNvNtNtNtCsawjdjYzw0zz_7mostrod3app4bond2db27find_bond_by_order_and_role00Bb_
FN:230,_RNCNCNvNtNtNtCsawjdjYzw0zz_7mostrod3app4bond2db29find_child_slashes_for_parent00Bb_
FN:267,_RNCNCNvNtNtNtCsawjdjYzw0zz_7mostrod3app4bond2db30find_locked_maker_parent_bonds00Bb_
FN:25,_RNCNvNtNtNtCsawjdjYzw0zz_7mostrod3app4bond2db11create_bond0B9_
FN:317,_RNCNvNtNtNtCsawjdjYzw0zz_7mostrod3app4bond2db11update_bond0B9_
FN:77,_RNCNvNtNtNtCsawjdjYzw0zz_7mostrod3app4bond2db15find_bond_by_id0B9_
FN:104,_RNCNvNtNtNtCsawjdjYzw0zz_7mostrod3app4bond2db17find_active_bonds0B9_
FN:89,_RNCNvNtNtNtCsawjdjYzw0zz_7mostrod3app4bond2db17find_bond_by_hash0B9_
FN:62,_RNCNvNtNtNtCsawjdjYzw0zz_7mostrod3app4bond2db19find_bonds_by_state0B9_
FN:182,_RNCNvNtNtNtCsawjdjYzw0zz_7mostrod3app4bond2db21find_range_root_order0B9_
FN:151,_RNCNvNtNtNtCsawjdjYzw0zz_7mostrod3app4bond2db25find_active_bond_by_taker0B9_
FN:212,_RNCNvNtNtNtCsawjdjYzw0zz_7mostrod3app4bond2db25find_maker_bond_for_order0B9_
FN:282,_RNCNvNtNtNtCsawjdjYzw0zz_7mostrod3app4bond2db25range_tree_fully_terminal0B9_
FN:121,_RNCNvNtNtNtCsawjdjYzw0zz_7mostrod3app4bond2db27find_active_bonds_for_order0B9_
FN:43,_RNCNvNtNtNtCsawjdjYzw0zz_7mostrod3app4bond2db27find_bond_by_order_and_role0B9_
FN:223,_RNCNvNtNtNtCsawjdjYzw0zz_7mostrod3app4bond2db29find_child_slashes_for_parent0B9_
FN:255,_RNCNvNtNtNtCsawjdjYzw0zz_7mostrod3app4bond2db30find_locked_maker_parent_bonds0B9_
FN:22,_RNvNtNtNtCsawjdjYzw0zz_7mostrod3app4bond2db11create_bond
FN:314,_RNvNtNtNtCsawjdjYzw0zz_7mostrod3app4bond2db11update_bond
FN:74,_RNvNtNtNtCsawjdjYzw0zz_7mostrod3app4bond2db15find_bond_by_id
FN:102,_RNvNtNtNtCsawjdjYzw0zz_7mostrod3app4bond2db17find_active_bonds
FN:86,_RNvNtNtNtCsawjdjYzw0zz_7mostrod3app4bond2db17find_bond_by_hash
FN:59,_RNvNtNtNtCsawjdjYzw0zz_7mostrod3app4bond2db19find_bonds_by_state
FN:179,_RNvNtNtNtCsawjdjYzw0zz_7mostrod3app4bond2db21find_range_root_order
FN:147,_RNvNtNtNtCsawjdjYzw0zz_7mostrod3app4bond2db25find_active_bond_by_taker
FN:209,_RNvNtNtNtCsawjdjYzw0zz_7mostrod3app4bond2db25find_maker_bond_for_order
FN:279,_RNvNtNtNtCsawjdjYzw0zz_7mostrod3app4bond2db25range_tree_fully_terminal
FN:118,_RNvNtNtNtCsawjdjYzw0zz_7mostrod3app4bond2db27find_active_bonds_for_order
FN:39,_RNvNtNtNtCsawjdjYzw0zz_7mostrod3app4bond2db27find_bond_by_order_and_role
FN:220,_RNvNtNtNtCsawjdjYzw0zz_7mostrod3app4bond2db29find_child_slashes_for_parent
FN:255,_RNvNtNtNtCsawjdjYzw0zz_7mostrod3app4bond2db30find_locked_maker_parent_bonds
FN:368,_RNCNCNCNvNtNtNtNtCsawjdjYzw0zz_7mostrod3app4bond2db5tests10setup_pool000Bf_
FN:375,_RNCNCNCNvNtNtNtNtCsawjdjYzw0zz_7mostrod3app4bond2db5tests10setup_pool0s_00Bf_
FN:368,_RNCNCNvNtNtNtNtCsawjdjYzw0zz_7mostrod3app4bond2db5tests10setup_pool00Bd_
FN:375,_RNCNCNvNtNtNtNtCsawjdjYzw0zz_7mostrod3app4bond2db5tests10setup_pool0s_0Bd_
FN:331,_RNCNvNtNtNtNtCsawjdjYzw0zz_7mostrod3app4bond2db5tests10setup_pool0Bb_
FN:471,_RNCNvNtNtNtNtCsawjdjYzw0zz_7mostrod3app4bond2db5tests16expected_db_text0Bb_
FN:483,_RNCNvNtNtNtNtCsawjdjYzw0zz_7mostrod3app4bond2db5tests16expected_db_texts0_0Bb_
FN:485,_RNCNvNtNtNtNtCsawjdjYzw0zz_7mostrod3app4bond2db5tests16expected_db_texts1_0Bb_
FN:488,_RNCNvNtNtNtNtCsawjdjYzw0zz_7mostrod3app4bond2db5tests16expected_db_texts2_0Bb_
FN:489,_RNCNvNtNtNtNtCsawjdjYzw0zz_7mostrod3app4bond2db5tests16expected_db_texts3_0Bb_
FN:490,_RNCNvNtNtNtNtCsawjdjYzw0zz_7mostrod3app4bond2db5tests16expected_db_texts4_0Bb_
FN:491,_RNCNvNtNtNtNtCsawjdjYzw0zz_7mostrod3app4bond2db5tests16expected_db_texts5_0Bb_
FN:494,_RNCNvNtNtNtNtCsawjdjYzw0zz_7mostrod3app4bond2db5tests16expected_db_texts6_0Bb_
FN:496,_RNCNvNtNtNtNtCsawjdjYzw0zz_7mostrod3app4bond2db5tests16expected_db_texts7_0Bb_
FN:497,_RNCNvNtNtNtNtCsawjdjYzw0zz_7mostrod3app4bond2db5tests16expected_db_texts8_0Bb_
FN:498,_RNCNvNtNtNtNtCsawjdjYzw0zz_7mostrod3app4bond2db5tests16expected_db_texts9_0Bb_
FN:472,_RNCNvNtNtNtNtCsawjdjYzw0zz_7mostrod3app4bond2db5tests16expected_db_texts_0Bb_
FN:499,_RNCNvNtNtNtNtCsawjdjYzw0zz_7mostrod3app4bond2db5tests16expected_db_textsa_0Bb_
FN:409,_RNCNvNtNtNtNtCsawjdjYzw0zz_7mostrod3app4bond2db5tests17insert_order_with0Bb_
FN:388,_RNCNvNtNtNtNtCsawjdjYzw0zz_7mostrod3app4bond2db5tests19insert_parent_order0Bb_
FN:512,_RNCNvNtNtNtNtCsawjdjYzw0zz_7mostrod3app4bond2db5tests8row_text0Bb_
FN:540,_RNCNvNtNtNtNtCsawjdjYzw0zz_7mostrod3app4bond2db5tests8row_texts_0Bb_
FN:772,_RNCNvNtNtNtNtCsawjdjYzw0zz_7mostrod3app4bond2db5testss_21find_by_state_filters0Bb_
FN:712,_RNCNvNtNtNtNtCsawjdjYzw0zz_7mostrod3app4bond2db5testss_26fetch_missing_returns_none0Bb_
FN:721,_RNCNvNtNtNtNtCsawjdjYzw0zz_7mostrod3app4bond2db5testss_26find_by_hash_returns_match0Bb_
FN:840,_RNCNvNtNtNtNtCsawjdjYzw0zz_7mostrod3app4bond2db5testss_27update_preserves_created_at0Bb_
FN:803,_RNCNvNtNtNtNtCsawjdjYzw0zz_7mostrod3app4bond2db5testss_31taker_context_columns_roundtrip0Bb_
FN:546,_RNCNvNtNtNtNtCsawjdjYzw0zz_7mostrod3app4bond2db5testss_33bond_insert_column_bind_alignment0Bb_
FN:603,_RNCNvNtNtNtNtCsawjdjYzw0zz_7mostrod3app4bond2db5testss_33range_tree_terminal_is_cycle_safe0Bb_
FN:669,_RNCNvNtNtNtNtCsawjdjYzw0zz_7mostrod3app4bond2db5testss_34insert_and_fetch_by_order_and_role0Bb_
FN:743,_RNCNvNtNtNtNtCsawjdjYzw0zz_7mostrod3app4bond2db5testss_35active_bonds_filter_terminal_states0Bb_
FN:569,_RNCNvNtNtNtNtCsawjdjYzw0zz_7mostrod3app4bond2db5testss_37range_tree_terminal_walks_descendants0Bb_
FN:685,_RNCNvNtNtNtNtCsawjdjYzw0zz_7mostrod3app4bond2db5testss_42fetch_by_order_and_role_ignores_child_rows0Bb_
FN:864,_RNCNvNtNtNtNtCsawjdjYzw0zz_7mostrod3app4bond2db5testss_42find_active_bond_by_taker_scopes_to_pubkey0Bb_
FN:934,_RNCNvNtNtNtNtCsawjdjYzw0zz_7mostrod3app4bond2db5testss_42find_range_root_order_rejects_parent_cycle0Bb_
FN:639,_RNCNvNtNtNtNtCsawjdjYzw0zz_7mostrod3app4bond2db5testss_43locked_maker_parent_bonds_excludes_children0Bb_
FN:909,_RNCNvNtNtNtNtCsawjdjYzw0zz_7mostrod3app4bond2db5testss_49find_range_root_order_stops_at_missing_parent_row0Bb_
FN:425,_RNvNtNtNtNtCsawjdjYzw0zz_7mostrod3app4bond2db5tests10dummy_bond
FN:331,_RNvNtNtNtNtCsawjdjYzw0zz_7mostrod3app4bond2db5tests10setup_pool
FN:467,_RNvNtNtNtNtCsawjdjYzw0zz_7mostrod3app4bond2db5tests16expected_db_text
FN:404,_RNvNtNtNtNtCsawjdjYzw0zz_7mostrod3app4bond2db5tests17insert_order_with
FN:388,_RNvNtNtNtNtCsawjdjYzw0zz_7mostrod3app4bond2db5tests19insert_parent_order
FN:431,_RNvNtNtNtNtCsawjdjYzw0zz_7mostrod3app4bond2db5tests24sentinel_bond_for_insert
FN:504,_RNvNtNtNtNtCsawjdjYzw0zz_7mostrod3app4bond2db5tests8row_text
FN:772,_RNvNtNtNtNtCsawjdjYzw0zz_7mostrod3app4bond2db5testss_21find_by_state_filters
FN:712,_RNvNtNtNtNtCsawjdjYzw0zz_7mostrod3app4bond2db5testss_26fetch_missing_returns_none
FN:721,_RNvNtNtNtNtCsawjdjYzw0zz_7mostrod3app4bond2db5testss_26find_by_hash_returns_match
FN:840,_RNvNtNtNtNtCsawjdjYzw0zz_7mostrod3app4bond2db5testss_27update_preserves_created_at
FN:803,_RNvNtNtNtNtCsawjdjYzw0zz_7mostrod3app4bond2db5testss_31taker_context_columns_roundtrip
FN:546,_RNvNtNtNtNtCsawjdjYzw0zz_7mostrod3app4bond2db5testss_33bond_insert_column_bind_alignment
FN:603,_RNvNtNtNtNtCsawjdjYzw0zz_7mostrod3app4bond2db5testss_33range_tree_terminal_is_cycle_safe
FN:669,_RNvNtNtNtNtCsawjdjYzw0zz_7mostrod3app4bond2db5testss_34insert_and_fetch_by_order_and_role
FN:743,_RNvNtNtNtNtCsawjdjYzw0zz_7mostrod3app4bond2db5testss_35active_bonds_filter_terminal_states
FN:569,_RNvNtNtNtNtCsawjdjYzw0zz_7mostrod3app4bond2db5testss_37range_tree_terminal_walks_descendants
FN:685,_RNvNtNtNtNtCsawjdjYzw0zz_7mostrod3app4bond2db5testss_42fetch_by_order_and_role_ignores_child_rows
FN:864,_RNvNtNtNtNtCsawjdjYzw0zz_7mostrod3app4bond2db5testss_42find_active_bond_by_taker_scopes_to_pubkey
FN:934,_RNvNtNtNtNtCsawjdjYzw0zz_7mostrod3app4bond2db5testss_42find_range_root_order_rejects_parent_cycle
FN:639,_RNvNtNtNtNtCsawjdjYzw0zz_7mostrod3app4bond2db5testss_43locked_maker_parent_bonds_excludes_children
FN:909,_RNvNtNtNtNtCsawjdjYzw0zz_7mostrod3app4bond2db5testss_49find_range_root_order_stops_at_missing_parent_row
FNDA:0,_RNCNCNvNtNtNtCsawjdjYzw0zz_7mostrod3app4bond2db11create_bond00Bb_
FNDA:0,_RNCNCNvNtNtNtCsawjdjYzw0zz_7mostrod3app4bond2db11update_bond00Bb_
FNDA:0,_RNCNCNvNtNtNtCsawjdjYzw0zz_7mostrod3app4bond2db15find_bond_by_id00Bb_
FNDA:0,_RNCNCNvNtNtNtCsawjdjYzw0zz_7mostrod3app4bond2db17find_active_bonds00Bb_
FNDA:0,_RNCNCNvNtNtNtCsawjdjYzw0zz_7mostrod3app4bond2db17find_bond_by_hash00Bb_
FNDA:1,_RNCNCNvNtNtNtCsawjdjYzw0zz_7mostrod3app4bond2db19find_bonds_by_state00Bb_
FNDA:0,_RNCNCNvNtNtNtCsawjdjYzw0zz_7mostrod3app4bond2db21find_range_root_order00Bb_
FNDA:0,_RNCNCNvNtNtNtCsawjdjYzw0zz_7mostrod3app4bond2db25find_active_bond_by_taker00Bb_
FNDA:0,_RNCNCNvNtNtNtCsawjdjYzw0zz_7mostrod3app4bond2db25range_tree_fully_terminal0s_0Bb_
FNDA:3,_RNCNCNvNtNtNtCsawjdjYzw0zz_7mostrod3app4bond2db27find_active_bonds_for_order00Bb_
FNDA:1,_RNCNCNvNtNtNtCsawjdjYzw0zz_7mostrod3app4bond2db27find_bond_by_order_and_role00Bb_
FNDA:0,_RNCNCNvNtNtNtCsawjdjYzw0zz_7mostrod3app4bond2db29find_child_slashes_for_parent00Bb_
FNDA:2,_RNCNCNvNtNtNtCsawjdjYzw0zz_7mostrod3app4bond2db30find_locked_maker_parent_bonds00Bb_
FNDA:126,_RNCNvNtNtNtCsawjdjYzw0zz_7mostrod3app4bond2db11create_bond0B9_
FNDA:4,_RNCNvNtNtNtCsawjdjYzw0zz_7mostrod3app4bond2db11update_bond0B9_
FNDA:29,_RNCNvNtNtNtCsawjdjYzw0zz_7mostrod3app4bond2db15find_bond_by_id0B9_
FNDA:2,_RNCNvNtNtNtCsawjdjYzw0zz_7mostrod3app4bond2db17find_active_bonds0B9_
FNDA:58,_RNCNvNtNtNtCsawjdjYzw0zz_7mostrod3app4bond2db17find_bond_by_hash0B9_
FNDA:5,_RNCNvNtNtNtCsawjdjYzw0zz_7mostrod3app4bond2db19find_bonds_by_state0B9_
FNDA:92,_RNCNvNtNtNtCsawjdjYzw0zz_7mostrod3app4bond2db21find_range_root_order0B9_
FNDA:8,_RNCNvNtNtNtCsawjdjYzw0zz_7mostrod3app4bond2db25find_active_bond_by_taker0B9_
FNDA:29,_RNCNvNtNtNtCsawjdjYzw0zz_7mostrod3app4bond2db25find_maker_bond_for_order0B9_
FNDA:9,_RNCNvNtNtNtCsawjdjYzw0zz_7mostrod3app4bond2db25range_tree_fully_terminal0B9_
FNDA:91,_RNCNvNtNtNtCsawjdjYzw0zz_7mostrod3app4bond2db27find_active_bonds_for_order0B9_
FNDA:33,_RNCNvNtNtNtCsawjdjYzw0zz_7mostrod3app4bond2db27find_bond_by_order_and_role0B9_
FNDA:36,_RNCNvNtNtNtCsawjdjYzw0zz_7mostrod3app4bond2db29find_child_slashes_for_parent0B9_
FNDA:12,_RNCNvNtNtNtCsawjdjYzw0zz_7mostrod3app4bond2db30find_locked_maker_parent_bonds0B9_
FNDA:126,_RNvNtNtNtCsawjdjYzw0zz_7mostrod3app4bond2db11create_bond
FNDA:4,_RNvNtNtNtCsawjdjYzw0zz_7mostrod3app4bond2db11update_bond
FNDA:29,_RNvNtNtNtCsawjdjYzw0zz_7mostrod3app4bond2db15find_bond_by_id
FNDA:2,_RNvNtNtNtCsawjdjYzw0zz_7mostrod3app4bond2db17find_active_bonds
FNDA:58,_RNvNtNtNtCsawjdjYzw0zz_7mostrod3app4bond2db17find_bond_by_hash
FNDA:5,_RNvNtNtNtCsawjdjYzw0zz_7mostrod3app4bond2db19find_bonds_by_state
FNDA:92,_RNvNtNtNtCsawjdjYzw0zz_7mostrod3app4bond2db21find_range_root_order
FNDA:8,_RNvNtNtNtCsawjdjYzw0zz_7mostrod3app4bond2db25find_active_bond_by_taker
FNDA:29,_RNvNtNtNtCsawjdjYzw0zz_7mostrod3app4bond2db25find_maker_bond_for_order
FNDA:9,_RNvNtNtNtCsawjdjYzw0zz_7mostrod3app4bond2db25range_tree_fully_terminal
FNDA:91,_RNvNtNtNtCsawjdjYzw0zz_7mostrod3app4bond2db27find_active_bonds_for_order
FNDA:33,_RNvNtNtNtCsawjdjYzw0zz_7mostrod3app4bond2db27find_bond_by_order_and_role
FNDA:36,_RNvNtNtNtCsawjdjYzw0zz_7mostrod3app4bond2db29find_child_slashes_for_parent
FNDA:12,_RNvNtNtNtCsawjdjYzw0zz_7mostrod3app4bond2db30find_locked_maker_parent_bonds
FNDA:90,_RNCNCNCNvNtNtNtNtCsawjdjYzw0zz_7mostrod3app4bond2db5tests10setup_pool000Bf_
FNDA:165,_RNCNCNCNvNtNtNtNtCsawjdjYzw0zz_7mostrod3app4bond2db5tests10setup_pool0s_00Bf_
FNDA:60,_RNCNCNvNtNtNtNtCsawjdjYzw0zz_7mostrod3app4bond2db5tests10setup_pool00Bd_
FNDA:60,_RNCNCNvNtNtNtNtCsawjdjYzw0zz_7mostrod3app4bond2db5tests10setup_pool0s_0Bd_
FNDA:15,_RNCNvNtNtNtNtCsawjdjYzw0zz_7mostrod3app4bond2db5tests10setup_pool0Bb_
FNDA:1,_RNCNvNtNtNtNtCsawjdjYzw0zz_7mostrod3app4bond2db5tests16expected_db_text0Bb_
FNDA:1,_RNCNvNtNtNtNtCsawjdjYzw0zz_7mostrod3app4bond2db5tests16expected_db_texts0_0Bb_
FNDA:1,_RNCNvNtNtNtNtCsawjdjYzw0zz_7mostrod3app4bond2db5tests16expected_db_texts1_0Bb_
FNDA:1,_RNCNvNtNtNtNtCsawjdjYzw0zz_7mostrod3app4bond2db5tests16expected_db_texts2_0Bb_
FNDA:1,_RNCNvNtNtNtNtCsawjdjYzw0zz_7mostrod3app4bond2db5tests16expected_db_texts3_0Bb_
FNDA:1,_RNCNvNtNtNtNtCsawjdjYzw0zz_7mostrod3app4bond2db5tests16expected_db_texts4_0Bb_
FNDA:1,_RNCNvNtNtNtNtCsawjdjYzw0zz_7mostrod3app4bond2db5tests16expected_db_texts5_0Bb_
FNDA:1,_RNCNvNtNtNtNtCsawjdjYzw0zz_7mostrod3app4bond2db5tests16expected_db_texts6_0Bb_
FNDA:1,_RNCNvNtNtNtNtCsawjdjYzw0zz_7mostrod3app4bond2db5tests16expected_db_texts7_0Bb_
FNDA:1,_RNCNvNtNtNtNtCsawjdjYzw0zz_7mostrod3app4bond2db5tests16expected_db_texts8_0Bb_
FNDA:1,_RNCNvNtNtNtNtCsawjdjYzw0zz_7mostrod3app4bond2db5tests16expected_db_texts9_0Bb_
FNDA:1,_RNCNvNtNtNtNtCsawjdjYzw0zz_7mostrod3app4bond2db5tests16expected_db_texts_0Bb_
FNDA:1,_RNCNvNtNtNtNtCsawjdjYzw0zz_7mostrod3app4bond2db5tests16expected_db_textsa_0Bb_
FNDA:5,_RNCNvNtNtNtNtCsawjdjYzw0zz_7mostrod3app4bond2db5tests17insert_order_with0Bb_
FNDA:16,_RNCNvNtNtNtNtCsawjdjYzw0zz_7mostrod3app4bond2db5tests19insert_parent_order0Bb_
FNDA:2,_RNCNvNtNtNtNtCsawjdjYzw0zz_7mostrod3app4bond2db5tests8row_text0Bb_
FNDA:11,_RNCNvNtNtNtNtCsawjdjYzw0zz_7mostrod3app4bond2db5tests8row_texts_0Bb_
FNDA:1,_RNCNvNtNtNtNtCsawjdjYzw0zz_7mostrod3app4bond2db5testss_21find_by_state_filters0Bb_
FNDA:1,_RNCNvNtNtNtNtCsawjdjYzw0zz_7mostrod3app4bond2db5testss_26fetch_missing_returns_none0Bb_
FNDA:1,_RNCNvNtNtNtNtCsawjdjYzw0zz_7mostrod3app4bond2db5testss_26find_by_hash_returns_match0Bb_
FNDA:1,_RNCNvNtNtNtNtCsawjdjYzw0zz_7mostrod3app4bond2db5testss_27update_preserves_created_at0Bb_
FNDA:1,_RNCNvNtNtNtNtCsawjdjYzw0zz_7mostrod3app4bond2db5testss_31taker_context_columns_roundtrip0Bb_
FNDA:1,_RNCNvNtNtNtNtCsawjdjYzw0zz_7mostrod3app4bond2db5testss_33bond_insert_column_bind_alignment0Bb_
FNDA:1,_RNCNvNtNtNtNtCsawjdjYzw0zz_7mostrod3app4bond2db5testss_33range_tree_terminal_is_cycle_safe0Bb_
FNDA:1,_RNCNvNtNtNtNtCsawjdjYzw0zz_7mostrod3app4bond2db5testss_34insert_and_fetch_by_order_and_role0Bb_
FNDA:1,_RNCNvNtNtNtNtCsawjdjYzw0zz_7mostrod3app4bond2db5testss_35active_bonds_filter_terminal_states0Bb_
FNDA:1,_RNCNvNtNtNtNtCsawjdjYzw0zz_7mostrod3app4bond2db5testss_37range_tree_terminal_walks_descendants0Bb_
FNDA:1,_RNCNvNtNtNtNtCsawjdjYzw0zz_7mostrod3app4bond2db5testss_42fetch_by_order_and_role_ignores_child_rows0Bb_
FNDA:1,_RNCNvNtNtNtNtCsawjdjYzw0zz_7mostrod3app4bond2db5testss_42find_active_bond_by_taker_scopes_to_pubkey0Bb_
FNDA:1,_RNCNvNtNtNtNtCsawjdjYzw0zz_7mostrod3app4bond2db5testss_42find_range_root_order_rejects_parent_cycle0Bb_
FNDA:1,_RNCNvNtNtNtNtCsawjdjYzw0zz_7mostrod3app4bond2db5testss_43locked_maker_parent_bonds_excludes_children0Bb_
FNDA:1,_RNCNvNtNtNtNtCsawjdjYzw0zz_7mostrod3app4bond2db5testss_49find_range_root_order_stops_at_missing_parent_row0Bb_
FNDA:15,_RNvNtNtNtNtCsawjdjYzw0zz_7mostrod3app4bond2db5tests10dummy_bond
FNDA:15,_RNvNtNtNtNtCsawjdjYzw0zz_7mostrod3app4bond2db5tests10setup_pool
FNDA:31,_RNvNtNtNtNtCsawjdjYzw0zz_7mostrod3app4bond2db5tests16expected_db_text
FNDA:5,_RNvNtNtNtNtCsawjdjYzw0zz_7mostrod3app4bond2db5tests17insert_order_with
FNDA:16,_RNvNtNtNtNtCsawjdjYzw0zz_7mostrod3app4bond2db5tests19insert_parent_order
FNDA:1,_RNvNtNtNtNtCsawjdjYzw0zz_7mostrod3app4bond2db5tests24sentinel_bond_for_insert
FNDA:31,_RNvNtNtNtNtCsawjdjYzw0zz_7mostrod3app4bond2db5tests8row_text
FNDA:1,_RNvNtNtNtNtCsawjdjYzw0zz_7mostrod3app4bond2db5testss_21find_by_state_filters
FNDA:1,_RNvNtNtNtNtCsawjdjYzw0zz_7mostrod3app4bond2db5testss_26fetch_missing_returns_none
FNDA:1,_RNvNtNtNtNtCsawjdjYzw0zz_7mostrod3app4bond2db5testss_26find_by_hash_returns_match
FNDA:1,_RNvNtNtNtNtCsawjdjYzw0zz_7mostrod3app4bond2db5testss_27update_preserves_created_at
FNDA:1,_RNvNtNtNtNtCsawjdjYzw0zz_7mostrod3app4bond2db5testss_31taker_context_columns_roundtrip
FNDA:1,_RNvNtNtNtNtCsawjdjYzw0zz_7mostrod3app4bond2db5testss_33bond_insert_column_bind_alignment
FNDA:1,_RNvNtNtNtNtCsawjdjYzw0zz_7mostrod3app4bond2db5testss_33range_tree_terminal_is_cycle_safe
FNDA:1,_RNvNtNtNtNtCsawjdjYzw0zz_7mostrod3app4bond2db5testss_34insert_and_fetch_by_order_and_role
FNDA:1,_RNvNtNtNtNtCsawjdjYzw0zz_7mostrod3app4bond2db5testss_35active_bonds_filter_terminal_states
FNDA:1,_RNvNtNtNtNtCsawjdjYzw0zz_7mostrod3app4bond2db5testss_37range_tree_terminal_walks_descendants
FNDA:1,_RNvNtNtNtNtCsawjdjYzw0zz_7mostrod3app4bond2db5testss_42fetch_by_order_and_role_ignores_child_rows
FNDA:1,_RNvNtNtNtNtCsawjdjYzw0zz_7mostrod3app4bond2db5testss_42find_active_bond_by_taker_scopes_to_pubkey
FNDA:1,_RNvNtNtNtNtCsawjdjYzw0zz_7mostrod3app4bond2db5testss_42find_range_root_order_rejects_parent_cycle
FNDA:1,_RNvNtNtNtNtCsawjdjYzw0zz_7mostrod3app4bond2db5testss_43locked_maker_parent_bonds_excludes_children
FNDA:1,_RNvNtNtNtNtCsawjdjYzw0zz_7mostrod3app4bond2db5testss_49find_range_root_order_stops_at_missing_parent_row
FNF:100
FNH:91
DA:22,126
DA:23,126
DA:24,126
DA:25,126
DA:26,126
DA:27,126
DA:28,126
DA:29,126
DA:39,33
DA:40,33
DA:41,33
DA:42,33
DA:43,33
DA:44,33
DA:45,33
DA:46,33
DA:47,33
DA:48,33
DA:49,33
DA:50,33
DA:51,33
DA:52,33
DA:53,33
DA:54,33
DA:55,33
DA:59,5
DA:60,5
DA:61,5
DA:62,5
DA:63,5
DA:64,5
DA:65,5
DA:66,5
DA:67,5
DA:68,5
DA:69,5
DA:74,29
DA:75,29
DA:76,29
DA:77,29
DA:78,29
DA:79,29
DA:80,29
DA:81,29
DA:86,58
DA:87,58
DA:88,58
DA:89,58
DA:90,58
DA:91,58
DA:92,58
DA:93,58
DA:94,58
DA:95,58
DA:102,2
DA:103,2
DA:104,2
DA:105,2
DA:106,2
DA:107,2
DA:108,2
DA:109,2
DA:110,2
DA:111,2
DA:112,2
DA:113,2
DA:118,91
DA:119,91
DA:120,91
DA:121,91
DA:122,91
DA:123,91
DA:124,91
DA:125,91
DA:126,91
DA:127,91
DA:128,91
DA:129,91
DA:130,91
DA:131,91
DA:132,91
DA:133,91
DA:134,91
DA:135,91
DA:147,8
DA:148,8
DA:149,8
DA:150,8
DA:151,8
DA:152,8
DA:153,8
DA:154,8
DA:155,8
DA:156,8
DA:157,8
DA:158,8
DA:159,8
DA:160,8
DA:161,8
DA:162,8
DA:163,8
DA:164,8
DA:165,8
DA:166,8
DA:167,8
DA:168,8
DA:179,92
DA:180,92
DA:181,92
DA:182,92
DA:183,92
DA:184,92
DA:185,1121
DA:186,90
DA:188,1031
DA:189,1031
DA:190,1031
DA:192,1030
DA:193,1
DA:196,1
DA:197,1
DA:198,1
DA:199,92
DA:209,29
DA:210,29
DA:211,29
DA:212,29
DA:213,29
DA:214,29
DA:215,29
DA:220,36
DA:221,36
DA:222,36
DA:223,36
DA:224,36
DA:225,36
DA:226,36
DA:227,36
DA:228,36
DA:229,36
DA:230,36
DA:231,36
DA:255,12
DA:256,12
DA:257,12
DA:258,12
DA:259,12
DA:260,12
DA:261,12
DA:262,12
DA:263,12
DA:264,12
DA:265,12
DA:266,12
DA:267,12
DA:268,12
DA:279,9
DA:280,9
DA:281,9
DA:282,9
DA:283,9
DA:284,9
DA:285,9
DA:286,9
DA:287,9
DA:294,9
DA:302,9
DA:303,63
DA:304,63
DA:305,63
DA:306,9
DA:307,9
DA:308,9
DA:309,9
DA:310,9
DA:311,9
DA:314,4
DA:315,4
DA:316,4
DA:317,4
DA:318,4
DA:319,4
DA:320,4
DA:321,4
DA:331,15
DA:332,15
DA:333,15
DA:334,15
DA:335,15
DA:336,15
DA:338,15
DA:339,15
DA:340,15
DA:341,15
DA:342,15
DA:343,15
DA:344,15
DA:345,15
DA:346,15
DA:347,15
DA:348,15
DA:349,15
DA:350,15
DA:351,15
DA:352,15
DA:353,15
DA:354,15
DA:355,15
DA:356,15
DA:357,15
DA:358,15
DA:359,15
DA:360,15
DA:361,15
DA:365,45
DA:366,15
DA:367,15
DA:368,90
DA:370,45
DA:372,45
DA:373,15
DA:374,15
DA:375,165
DA:377,45
DA:381,15
DA:382,15
DA:383,15
DA:384,15
DA:385,15
DA:386,15
DA:388,16
DA:389,16
DA:390,16
DA:391,16
DA:392,16
DA:393,16
DA:394,16
DA:395,16
DA:396,16
DA:397,16
DA:398,16
DA:399,16
DA:400,16
DA:404,5
DA:405,5
DA:406,5
DA:407,5
DA:408,5
DA:409,5
DA:410,5
DA:411,5
DA:412,5
DA:413,5
DA:414,5
DA:415,5
DA:416,5
DA:417,5
DA:418,5
DA:419,5
DA:420,5
DA:421,5
DA:422,5
DA:423,5
DA:425,15
DA:426,15
DA:427,15
DA:431,1
DA:432,1
DA:433,1
DA:434,1
DA:435,1
DA:436,1
DA:437,1
DA:438,1
DA:439,1
DA:440,1
DA:441,1
DA:442,1
DA:443,1
DA:444,1
DA:445,1
DA:446,1
DA:447,1
DA:448,1
DA:449,1
DA:450,1
DA:451,1
DA:452,1
DA:453,1
DA:454,1
DA:455,1
DA:456,1
DA:457,1
DA:458,1
DA:459,1
DA:460,1
DA:461,1
DA:462,1
DA:463,1
DA:464,1
DA:465,1
DA:467,31
DA:468,31
DA:469,31
DA:470,30
DA:471,29
DA:472,28
DA:473,27
DA:474,26
DA:475,25
DA:476,24
DA:477,23
DA:478,22
DA:479,21
DA:480,20
DA:481,19
DA:482,18
DA:483,17
DA:484,16
DA:485,15
DA:486,14
DA:487,13
DA:488,12
DA:489,11
DA:490,10
DA:491,9
DA:492,8
DA:493,7
DA:494,6
DA:495,5
DA:496,4
DA:497,3
DA:498,2
DA:499,1
DA:500,0
DA:502,31
DA:504,31
DA:507,31
DA:508,31
DA:509,29
DA:510,2
DA:511,2
DA:512,2
DA:513,27
DA:514,24
DA:515,23
DA:516,22
DA:517,21
DA:518,20
DA:519,19
DA:520,18
DA:521,17
DA:522,16
DA:523,15
DA:524,14
DA:525,13
DA:526,12
DA:527,11
DA:528,10
DA:529,9
DA:530,8
DA:531,7
DA:532,6
DA:533,5
DA:534,4
DA:535,3
DA:536,2
DA:537,11
DA:538,11
DA:539,11
DA:540,11
DA:541,0
DA:543,31
DA:546,1
DA:547,1
DA:548,1
DA:549,1
DA:551,1
DA:552,1
DA:553,1
DA:555,1
DA:556,1
DA:557,1
DA:558,1
DA:559,1
DA:561,31
DA:562,31
DA:563,31
DA:564,31
DA:565,1
DA:566,1
DA:569,1
DA:572,1
DA:573,1
DA:574,1
DA:575,1
DA:576,1
DA:579,1
DA:580,1
DA:585,1
DA:586,1
DA:587,1
DA:588,1
DA:589,1
DA:590,1
DA:591,1
DA:592,1
DA:597,1
DA:598,1
DA:599,1
DA:600,1
DA:603,1
DA:607,1
DA:608,1
DA:609,1
DA:611,1
DA:612,1
DA:613,1
DA:614,1
DA:615,1
DA:616,1
DA:617,1
DA:618,1
DA:619,1
DA:620,1
DA:621,1
DA:622,1
DA:623,1
DA:624,1
DA:627,1
DA:630,1
DA:631,1
DA:632,1
DA:633,1
DA:634,1
DA:635,1
DA:636,1
DA:639,1
DA:640,1
DA:641,1
DA:642,1
DA:643,1
DA:644,1
DA:647,1
DA:648,1
DA:649,1
DA:652,1
DA:653,1
DA:654,1
DA:655,1
DA:656,1
DA:659,1
DA:660,1
DA:661,1
DA:663,1
DA:664,1
DA:665,1
DA:666,1
DA:669,1
DA:670,1
DA:671,1
DA:672,1
DA:673,1
DA:674,1
DA:675,1
DA:676,1
DA:677,1
DA:678,1
DA:679,1
DA:680,1
DA:681,1
DA:682,1
DA:685,1
DA:688,1
DA:689,1
DA:690,1
DA:691,1
DA:692,1
DA:694,1
DA:695,1
DA:696,1
DA:698,1
DA:699,1
DA:700,1
DA:701,1
DA:703,1
DA:704,1
DA:705,1
DA:706,1
DA:707,1
DA:708,1
DA:709,1
DA:712,1
DA:713,1
DA:714,1
DA:715,1
DA:716,1
DA:717,1
DA:718,1
DA:721,1
DA:722,1
DA:723,1
DA:724,1
DA:726,1
DA:727,1
DA:728,1
DA:730,1
DA:731,1
DA:732,1
DA:733,1
DA:734,1
DA:736,1
DA:737,1
DA:738,1
DA:739,1
DA:740,1
DA:743,1
DA:744,1
DA:745,1
DA:746,1
DA:747,1
DA:748,1
DA:749,1
DA:750,1
DA:751,1
DA:752,1
DA:753,1
DA:754,1
DA:757,1
DA:758,1
DA:759,1
DA:761,1
DA:762,1
DA:763,1
DA:765,1
DA:766,1
DA:767,1
DA:768,1
DA:769,1
DA:772,1
DA:773,1
DA:774,1
DA:775,1
DA:776,1
DA:777,1
DA:778,1
DA:779,1
DA:780,1
DA:781,1
DA:782,1
DA:783,1
DA:786,1
DA:787,1
DA:788,1
DA:789,1
DA:791,1
DA:792,1
DA:793,1
DA:794,1
DA:795,1
DA:797,1
DA:798,1
DA:799,1
DA:800,1
DA:803,1
DA:808,1
DA:809,1
DA:810,1
DA:812,1
DA:813,1
DA:814,1
DA:815,1
DA:816,1
DA:817,1
DA:818,1
DA:819,1
DA:820,1
DA:822,1
DA:823,1
DA:824,1
DA:825,1
DA:826,1
DA:827,1
DA:828,1
DA:829,1
DA:831,1
DA:832,1
DA:833,1
DA:834,1
DA:835,1
DA:836,1
DA:837,1
DA:840,1
DA:841,1
DA:842,1
DA:843,1
DA:845,1
DA:846,1
DA:847,1
DA:848,1
DA:850,1
DA:851,1
DA:852,1
DA:853,1
DA:855,1
DA:856,1
DA:857,1
DA:858,1
DA:859,1
DA:860,1
DA:861,1
DA:864,1
DA:868,1
DA:869,1
DA:870,1
DA:872,1
DA:873,1
DA:874,1
DA:876,1
DA:877,1
DA:878,1
DA:880,1
DA:881,1
DA:882,1
DA:883,1
DA:884,1
DA:886,1
DA:887,1
DA:888,1
DA:889,1
DA:890,1
DA:893,1
DA:894,1
DA:895,1
DA:896,1
DA:899,1
DA:900,1
DA:901,1
DA:902,1
DA:903,1
DA:904,1
DA:905,1
DA:906,1
DA:909,1
DA:914,1
DA:915,1
DA:916,1
DA:917,1
DA:918,1
DA:919,1
DA:920,1
DA:921,1
DA:922,1
DA:923,1
DA:925,1
DA:926,1
DA:927,1
DA:928,1
DA:929,1
DA:930,1
DA:931,1
DA:934,1
DA:938,1
DA:939,1
DA:940,1
DA:941,1
DA:942,1
DA:943,1
DA:944,1
DA:945,1
DA:946,1
DA:948,1
DA:949,1
DA:950,1
DA:951,1
DA:952,1
DA:953,1
DA:954,1
BRF:0
BRH:0
LF:761
LH:750
end_of_record
SF:/home/runner/work/mostro/mostro/src/app/bond/flow.rs
FN:506,_RNCNCNvNtNtNtCsawjdjYzw0zz_7mostrod3app4bond4flow12release_bond00Bb_
FN:570,_RNCNCNvNtNtNtCsawjdjYzw0zz_7mostrod3app4bond4flow12release_bond0s_0Bb_
FN:343,_RNCNCNvNtNtNtCsawjdjYzw0zz_7mostrod3app4bond4flow18request_maker_bond00Bb_
FN:356,_RNCNCNvNtNtNtCsawjdjYzw0zz_7mostrod3app4bond4flow18request_maker_bond0s_0Bb_
FN:157,_RNCNCNvNtNtNtCsawjdjYzw0zz_7mostrod3app4bond4flow18request_taker_bond00Bb_
FN:173,_RNCNCNvNtNtNtCsawjdjYzw0zz_7mostrod3app4bond4flow18request_taker_bond0s_0Bb_
FN:672,_RNCNCNvNtNtNtCsawjdjYzw0zz_7mostrod3app4bond4flow22bond_invoice_subscribe00Bb_
FN:680,_RNCNCNvNtNtNtCsawjdjYzw0zz_7mostrod3app4bond4flow22bond_invoice_subscribe0s_0Bb_
FN:963,_RNCNCNvNtNtNtCsawjdjYzw0zz_7mostrod3app4bond4flow22on_maker_bond_accepted00Bb_
FN:998,_RNCNCNvNtNtNtCsawjdjYzw0zz_7mostrod3app4bond4flow22on_maker_bond_accepted0s0_0Bb_
FN:997,_RNCNCNvNtNtNtCsawjdjYzw0zz_7mostrod3app4bond4flow22on_maker_bond_accepted0s_0Bb_
FN:1308,_RNCNCNvNtNtNtCsawjdjYzw0zz_7mostrod3app4bond4flow22resume_take_after_bond00Bb_
FN:1316,_RNCNCNvNtNtNtCsawjdjYzw0zz_7mostrod3app4bond4flow22resume_take_after_bond0s0_0Bb_
FN:1312,_RNCNCNvNtNtNtCsawjdjYzw0zz_7mostrod3app4bond4flow22resume_take_after_bond0s_0Bb_
FN:822,_RNCNCNvNtNtNtCsawjdjYzw0zz_7mostrod3app4bond4flow24on_bond_invoice_accepted00Bb_
FN:902,_RNCNCNvNtNtNtCsawjdjYzw0zz_7mostrod3app4bond4flow24on_bond_invoice_accepted0s0_0Bb_
FN:903,_RNCNCNvNtNtNtCsawjdjYzw0zz_7mostrod3app4bond4flow24on_bond_invoice_accepted0s1_0Bb_
FN:881,_RNCNCNvNtNtNtCsawjdjYzw0zz_7mostrod3app4bond4flow24on_bond_invoice_accepted0s_0Bb_
FN:1104,_RNCNCNvNtNtNtCsawjdjYzw0zz_7mostrod3app4bond4flow24on_bond_invoice_canceled00Bb_
FN:1116,_RNCNCNvNtNtNtCsawjdjYzw0zz_7mostrod3app4bond4flow24on_bond_invoice_canceled0s_0Bb_
FN:1224,_RNCNCNvNtNtNtCsawjdjYzw0zz_7mostrod3app4bond4flow29maybe_drop_waiting_taker_bond00Bb_
FN:1083,_RNCNCNvNtNtNtCsawjdjYzw0zz_7mostrod3app4bond4flow30promote_taker_context_to_order00Bb_
FN:1187,_RNCNCNvNtNtNtCsawjdjYzw0zz_7mostrod3app4bond4flow34drop_waiting_taker_bond_to_pending00Bb_
FN:1023,_RNCNvNtNtNtCsawjdjYzw0zz_7mostrod3app4bond4flow12notify_loser0B9_
FN:502,_RNCNvNtNtNtCsawjdjYzw0zz_7mostrod3app4bond4flow12release_bond0B9_
FN:342,_RNCNvNtNtNtCsawjdjYzw0zz_7mostrod3app4bond4flow18request_maker_bond0B9_
FN:156,_RNCNvNtNtNtCsawjdjYzw0zz_7mostrod3app4bond4flow18request_taker_bond0B9_
FN:89,_RNCNvNtNtNtCsawjdjYzw0zz_7mostrod3app4bond4flow19maker_bond_requireds_0B9_
FN:75,_RNCNvNtNtNtCsawjdjYzw0zz_7mostrod3app4bond4flow19taker_bond_requireds_0B9_
FN:613,_RNCNvNtNtNtCsawjdjYzw0zz_7mostrod3app4bond4flow20release_active_bonds0B9_
FN:668,_RNCNvNtNtNtCsawjdjYzw0zz_7mostrod3app4bond4flow22bond_invoice_subscribe0B9_
FN:953,_RNCNvNtNtNtCsawjdjYzw0zz_7mostrod3app4bond4flow22on_maker_bond_accepted0B9_
FN:1271,_RNCNvNtNtNtCsawjdjYzw0zz_7mostrod3app4bond4flow22resume_take_after_bond0B9_
FN:596,_RNCNvNtNtNtCsawjdjYzw0zz_7mostrod3app4bond4flow23release_bonds_for_order0B9_
FN:774,_RNCNvNtNtNtCsawjdjYzw0zz_7mostrod3app4bond4flow24on_bond_invoice_accepted0B9_
FN:1097,_RNCNvNtNtNtCsawjdjYzw0zz_7mostrod3app4bond4flow24on_bond_invoice_canceled0B9_
FN:715,_RNCNvNtNtNtCsawjdjYzw0zz_7mostrod3app4bond4flow24resubscribe_active_bonds0B9_
FN:1206,_RNCNvNtNtNtCsawjdjYzw0zz_7mostrod3app4bond4flow29maybe_drop_waiting_taker_bond0B9_
FN:1050,_RNCNvNtNtNtCsawjdjYzw0zz_7mostrod3app4bond4flow30promote_taker_context_to_order0B9_
FN:638,_RNCNvNtNtNtCsawjdjYzw0zz_7mostrod3app4bond4flow31release_bonds_for_order_or_warn0B9_
FN:1169,_RNCNvNtNtNtCsawjdjYzw0zz_7mostrod3app4bond4flow34drop_waiting_taker_bond_to_pending0B9_
FN:106,_RNCNvNtNtNtCsawjdjYzw0zz_7mostrod3app4bond4flow36trade_committed_by_locked_taker_bond0B9_
FN:653,_RNCNvNtNtNtCsawjdjYzw0zz_7mostrod3app4bond4flow37release_taker_bonds_for_order_or_warn0B9_
FN:1023,_RNvNtNtNtCsawjdjYzw0zz_7mostrod3app4bond4flow12notify_loser
FN:502,_RNvNtNtNtCsawjdjYzw0zz_7mostrod3app4bond4flow12release_bond
FN:335,_RNvNtNtNtCsawjdjYzw0zz_7mostrod3app4bond4flow18request_maker_bond
FN:150,_RNvNtNtNtCsawjdjYzw0zz_7mostrod3app4bond4flow18request_taker_bond
FN:86,_RNvNtNtNtCsawjdjYzw0zz_7mostrod3app4bond4flow19maker_bond_required
FN:72,_RNvNtNtNtCsawjdjYzw0zz_7mostrod3app4bond4flow19taker_bond_required
FN:609,_RNvNtNtNtCsawjdjYzw0zz_7mostrod3app4bond4flow20release_active_bonds
FN:453,_RNvNtNtNtCsawjdjYzw0zz_7mostrod3app4bond4flow21classify_cancel_error
FN:665,_RNvNtNtNtCsawjdjYzw0zz_7mostrod3app4bond4flow22bond_invoice_subscribe
FN:948,_RNvNtNtNtCsawjdjYzw0zz_7mostrod3app4bond4flow22on_maker_bond_accepted
FN:1266,_RNvNtNtNtCsawjdjYzw0zz_7mostrod3app4bond4flow22resume_take_after_bond
FN:593,_RNvNtNtNtCsawjdjYzw0zz_7mostrod3app4bond4flow23release_bonds_for_order
FN:770,_RNvNtNtNtCsawjdjYzw0zz_7mostrod3app4bond4flow24on_bond_invoice_accepted
FN:1097,_RNvNtNtNtCsawjdjYzw0zz_7mostrod3app4bond4flow24on_bond_invoice_canceled
FN:715,_RNvNtNtNtCsawjdjYzw0zz_7mostrod3app4bond4flow24resubscribe_active_bonds
FN:1203,_RNvNtNtNtCsawjdjYzw0zz_7mostrod3app4bond4flow29maybe_drop_waiting_taker_bond
FN:1046,_RNvNtNtNtCsawjdjYzw0zz_7mostrod3app4bond4flow30promote_taker_context_to_order
FN:634,_RNvNtNtNtCsawjdjYzw0zz_7mostrod3app4bond4flow31release_bonds_for_order_or_warn
FN:1166,_RNvNtNtNtCsawjdjYzw0zz_7mostrod3app4bond4flow34drop_waiting_taker_bond_to_pending
FN:103,_RNvNtNtNtCsawjdjYzw0zz_7mostrod3app4bond4flow36trade_committed_by_locked_taker_bond
FN:649,_RNvNtNtNtCsawjdjYzw0zz_7mostrod3app4bond4flow37release_taker_bonds_for_order_or_warn
FN:1347,_RNCNCNCNvNtNtNtNtCsawjdjYzw0zz_7mostrod3app4bond4flow5tests10setup_pool000Bf_
FN:1371,_RNCNCNCNvNtNtNtNtCsawjdjYzw0zz_7mostrod3app4bond4flow5tests10setup_pool0s_00Bf_
FN:2068,_RNCNCNvNtNtNtNtCsawjdjYzw0zz_7mostrod3app4bond4flow5tests10count_msgs00Bd_
FN:1347,_RNCNCNvNtNtNtNtCsawjdjYzw0zz_7mostrod3app4bond4flow5tests10setup_pool00Bd_
FN:1371,_RNCNCNvNtNtNtNtCsawjdjYzw0zz_7mostrod3app4bond4flow5tests10setup_pool0s_0Bd_
FN:1806,_RNCNCNvNtNtNtNtCsawjdjYzw0zz_7mostrod3app4bond4flow5testss_34concurrent_requested_bonds_coexist00Bd_
FN:1653,_RNCNCNvNtNtNtNtCsawjdjYzw0zz_7mostrod3app4bond4flow5testss_38lock_race_guard_admits_only_one_winner00Bd_
FN:1659,_RNCNCNvNtNtNtNtCsawjdjYzw0zz_7mostrod3app4bond4flow5testss_38lock_race_guard_admits_only_one_winner0s0_0Bd_
FN:1656,_RNCNCNvNtNtNtNtCsawjdjYzw0zz_7mostrod3app4bond4flow5testss_38lock_race_guard_admits_only_one_winner0s_0Bd_
FN:1559,_RNCNvNCNvNtNtNtNtCsawjdjYzw0zz_7mostrod3app4bond4flow5testss_43maker_bond_lock_is_singleton_and_idempotent08try_lock0Bf_
FN:2061,_RNCNvNtNtNtNtCsawjdjYzw0zz_7mostrod3app4bond4flow5tests10count_msgs0Bb_
FN:2054,_RNCNvNtNtNtNtCsawjdjYzw0zz_7mostrod3app4bond4flow5tests10load_order0Bb_
FN:1329,_RNCNvNtNtNtNtCsawjdjYzw0zz_7mostrod3app4bond4flow5tests10setup_pool0Bb_
FN:1381,_RNCNvNtNtNtNtCsawjdjYzw0zz_7mostrod3app4bond4flow5tests12insert_order0Bb_
FN:1406,_RNCNvNtNtNtNtCsawjdjYzw0zz_7mostrod3app4bond4flow5tests8try_lock0Bb_
FN:1786,_RNCNvNtNtNtNtCsawjdjYzw0zz_7mostrod3app4bond4flow5testss_34concurrent_requested_bonds_coexist0Bb_
FN:2252,_RNCNvNtNtNtNtCsawjdjYzw0zz_7mostrod3app4bond4flow5testss_38accepted_callback_ignores_unknown_hash0Bb_
FN:2567,_RNCNvNtNtNtNtCsawjdjYzw0zz_7mostrod3app4bond4flow5testss_38canceled_callback_ignores_unknown_hash0Bb_
FN:1626,_RNCNvNtNtNtNtCsawjdjYzw0zz_7mostrod3app4bond4flow5testss_38lock_race_guard_admits_only_one_winner0Bb_
FN:2518,_RNCNvNtNtNtNtCsawjdjYzw0zz_7mostrod3app4bond4flow5testss_38maker_accepted_skips_unparseable_state0Bb_
FN:2575,_RNCNvNtNtNtNtCsawjdjYzw0zz_7mostrod3app4bond4flow5testss_40canceled_callback_noop_for_terminal_bond0Bb_
FN:1474,_RNCNvNtNtNtNtCsawjdjYzw0zz_7mostrod3app4bond4flow5testss_40release_bond_without_hash_marks_released0Bb_
FN:3020,_RNCNvNtNtNtNtCsawjdjYzw0zz_7mostrod3app4bond4flow5testss_42maker_accepted_errors_on_missing_order_row0Bb_
FN:1587,_RNCNvNtNtNtNtCsawjdjYzw0zz_7mostrod3app4bond4flow5testss_42maker_bond_lock_does_not_touch_other_bonds0Bb_
FN:1862,_RNCNvNtNtNtNtCsawjdjYzw0zz_7mostrod3app4bond4flow5testss_42maybe_drop_does_not_revert_concurrent_lock0Bb_
FN:2119,_RNCNvNtNtNtNtCsawjdjYzw0zz_7mostrod3app4bond4flow5testss_42release_bond_with_unparseable_state_errors0Bb_
FN:1544,_RNCNvNtNtNtNtCsawjdjYzw0zz_7mostrod3app4bond4flow5testss_43maker_bond_lock_is_singleton_and_idempotent0Bb_
FN:2426,_RNCNvNtNtNtNtCsawjdjYzw0zz_7mostrod3app4bond4flow5testss_45accepted_callback_errors_on_missing_order_row0Bb_
FN:2193,_RNCNvNtNtNtNtCsawjdjYzw0zz_7mostrod3app4bond4flow5testss_45release_taker_bonds_retains_locked_maker_bond0Bb_
FN:2300,_RNCNvNtNtNtNtCsawjdjYzw0zz_7mostrod3app4bond4flow5testss_46accepted_callback_terminal_loser_skips_release0Bb_
FN:3049,_RNCNvNtNtNtNtCsawjdjYzw0zz_7mostrod3app4bond4flow5testss_46canceled_callback_swallows_maybe_drop_db_error0Bb_
FN:1430,_RNCNvNtNtNtNtCsawjdjYzw0zz_7mostrod3app4bond4flow5testss_46release_bond_is_idempotent_for_terminal_states0Bb_
FN:2493,_RNCNvNtNtNtNtCsawjdjYzw0zz_7mostrod3app4bond4flow5testss_47maker_accepted_skips_when_bond_no_longer_locked0Bb_
FN:1663,_RNCNvNtNtNtNtCsawjdjYzw0zz_7mostrod3app4bond4flow5testss_48locked_maker_bond_does_not_block_taker_lock_race0Bb_
FN:2179,_RNCNvNtNtNtNtCsawjdjYzw0zz_7mostrod3app4bond4flow5testss_48release_bonds_for_order_or_warn_never_propagates0Bb_
FN:1752,_RNCNvNtNtNtNtCsawjdjYzw0zz_7mostrod3app4bond4flow5testss_49drop_waiting_taker_bond_held_by_active_taker_bond0Bb_
FN:2632,_RNCNvNtNtNtNtCsawjdjYzw0zz_7mostrod3app4bond4flow5testss_49promote_taker_context_buy_order_fills_seller_side0Bb_
FN:2790,_RNCNvNtNtNtNtCsawjdjYzw0zz_7mostrod3app4bond4flow5testss_49release_bonds_for_order_or_warn_swallows_db_error0Bb_
FN:2396,_RNCNvNtNtNtNtCsawjdjYzw0zz_7mostrod3app4bond4flow5testss_50accepted_callback_skips_resume_when_order_moved_on0Bb_
FN:2221,_RNCNvNtNtNtNtCsawjdjYzw0zz_7mostrod3app4bond4flow5testss_50bond_invoice_subscribe_errors_when_lnd_unreachable0Bb_
FN:2160,_RNCNvNtNtNtNtCsawjdjYzw0zz_7mostrod3app4bond4flow5testss_50release_bonds_for_order_swallows_per_bond_failures0Bb_
FN:2104,_RNCNvNtNtNtNtCsawjdjYzw0zz_7mostrod3app4bond4flow5testss_50request_maker_bond_errors_when_bond_config_missing0Bb_
FN:2076,_RNCNvNtNtNtNtCsawjdjYzw0zz_7mostrod3app4bond4flow5testss_50request_taker_bond_errors_when_bond_config_missing0Bb_
FN:2696,_RNCNvNtNtNtNtCsawjdjYzw0zz_7mostrod3app4bond4flow5testss_50resume_take_errors_on_bad_kind_and_missing_pubkeys0Bb_
FN:2452,_RNCNvNtNtNtNtCsawjdjYzw0zz_7mostrod3app4bond4flow5testss_51accepted_callback_skips_bond_with_unparseable_state0Bb_
FN:2860,_RNCNvNtNtNtNtCsawjdjYzw0zz_7mostrod3app4bond4flow5testss_53accepted_callback_warns_when_enumerating_losers_fails0Bb_
FN:2992,_RNCNvNtNtNtNtCsawjdjYzw0zz_7mostrod3app4bond4flow5testss_53maker_accepted_noop_when_bond_vanishes_after_lock_cas0Bb_
FN:1957,_RNCNvNtNtNtNtCsawjdjYzw0zz_7mostrod3app4bond4flow5testss_53maybe_drop_waiting_taker_bond_noop_when_order_missing0Bb_
FN:2228,_RNCNvNtNtNtNtCsawjdjYzw0zz_7mostrod3app4bond4flow5testss_53resubscribe_active_bonds_survives_bad_hash_and_no_lnd0Bb_
FN:2740,_RNCNvNtNtNtNtCsawjdjYzw0zz_7mostrod3app4bond4flow5testss_53resume_take_sell_order_with_invoice_fails_without_lnd0Bb_
FN:2333,_RNCNvNtNtNtNtCsawjdjYzw0zz_7mostrod3app4bond4flow5testss_54accepted_callback_winner_tears_down_requested_siblings0Bb_
FN:2468,_RNCNvNtNtNtNtCsawjdjYzw0zz_7mostrod3app4bond4flow5testss_55maker_accepted_locks_and_skips_publish_when_not_waiting0Bb_
FN:1709,_RNCNvNtNtNtNtCsawjdjYzw0zz_7mostrod3app4bond4flow5testss_55maybe_drop_waiting_taker_bond_ignores_locked_maker_bond0Bb_
FN:1450,_RNCNvNtNtNtNtCsawjdjYzw0zz_7mostrod3app4bond4flow5testss_55release_bonds_for_order_runs_regardless_of_feature_flag0Bb_
FN:2811,_RNCNvNtNtNtNtCsawjdjYzw0zz_7mostrod3app4bond4flow5testss_55release_taker_bonds_for_order_or_warn_swallows_db_error0Bb_
FN:2726,_RNCNvNtNtNtNtCsawjdjYzw0zz_7mostrod3app4bond4flow5testss_55resume_take_buy_order_fails_at_hold_invoice_without_lnd0Bb_
FN:2830,_RNCNvNtNtNtNtCsawjdjYzw0zz_7mostrod3app4bond4flow5testss_56accepted_callback_noop_when_bond_vanishes_after_lock_cas0Bb_
FN:2132,_RNCNvNtNtNtNtCsawjdjYzw0zz_7mostrod3app4bond4flow5testss_56release_bond_with_hash_stays_active_when_lnd_unreachable0Bb_
FN:2908,_RNCNvNtNtNtNtCsawjdjYzw0zz_7mostrod3app4bond4flow5testss_57accepted_callback_winner_warns_when_sibling_release_fails0Bb_
FN:2596,_RNCNvNtNtNtNtCsawjdjYzw0zz_7mostrod3app4bond4flow5testss_57canceled_callback_releases_last_bond_and_drops_to_pending0Bb_
FN:2760,_RNCNvNtNtNtNtCsawjdjYzw0zz_7mostrod3app4bond4flow5testss_57resume_take_sell_order_without_invoice_asks_buyer_for_one0Bb_
FN:1810,_RNCNvNtNtNtNtCsawjdjYzw0zz_7mostrod3app4bond4flow5testss_58maybe_drop_waiting_taker_bond_noop_when_other_bonds_active0Bb_
FN:2260,_RNCNvNtNtNtNtCsawjdjYzw0zz_7mostrod3app4bond4flow5testss_59accepted_callback_race_loser_is_notified_and_left_for_retry0Bb_
FN:2535,_RNCNvNtNtNtNtCsawjdjYzw0zz_7mostrod3app4bond4flow5testss_60maker_accepted_attempts_resume_when_order_waiting_maker_bond0Bb_
FN:1938,_RNCNvNtNtNtNtCsawjdjYzw0zz_7mostrod3app4bond4flow5testss_61pending_to_waiting_taker_bond_cas_flips_when_status_unchanged0Bb_
FN:2665,_RNCNvNtNtNtNtCsawjdjYzw0zz_7mostrod3app4bond4flow5testss_61promote_taker_context_sell_order_fills_buyer_side_and_invoice0Bb_
FN:3127,_RNCNvNtNtNtNtCsawjdjYzw0zz_7mostrod3app4bond4flow5testss_63maybe_drop_waiting_taker_bond_republishes_and_persists_event_id0Bb_
FN:1840,_RNCNvNtNtNtNtCsawjdjYzw0zz_7mostrod3app4bond4flow5testss_67maybe_drop_waiting_taker_bond_noop_when_order_not_in_waiting_status0Bb_
FN:3096,_RNCNvNtNtNtNtCsawjdjYzw0zz_7mostrod3app4bond4flow5testss_71maybe_drop_waiting_taker_bond_noop_when_order_vanishes_after_transition0Bb_
FN:2949,_RNCNvNtNtNtNtCsawjdjYzw0zz_7mostrod3app4bond4flow5testss_75accepted_callback_skips_resume_when_bond_flips_away_from_locked_via_trigger0Bb_
FN:1898,_RNCNvNtNtNtNtCsawjdjYzw0zz_7mostrod3app4bond4flow5testss_76pending_to_waiting_taker_bond_cas_refuses_to_overwrite_concurrent_transition0Bb_
FN:1559,_RNvNCNvNtNtNtNtCsawjdjYzw0zz_7mostrod3app4bond4flow5testss_43maker_bond_lock_is_singleton_and_idempotent08try_lock
FN:2061,_RNvNtNtNtNtCsawjdjYzw0zz_7mostrod3app4bond4flow5tests10count_msgs
FN:2054,_RNvNtNtNtNtCsawjdjYzw0zz_7mostrod3app4bond4flow5tests10load_order
FN:1329,_RNvNtNtNtNtCsawjdjYzw0zz_7mostrod3app4bond4flow5tests10setup_pool
FN:1381,_RNvNtNtNtNtCsawjdjYzw0zz_7mostrod3app4bond4flow5tests12insert_order
FN:2032,_RNvNtNtNtNtCsawjdjYzw0zz_7mostrod3app4bond4flow5tests18init_test_settings
FN:1972,_RNvNtNtNtNtCsawjdjYzw0zz_7mostrod3app4bond4flow5tests6ln_err
FN:1406,_RNvNtNtNtNtCsawjdjYzw0zz_7mostrod3app4bond4flow5tests8try_lock
FN:1395,_RNvNtNtNtNtCsawjdjYzw0zz_7mostrod3app4bond4flow5tests9make_bond
FN:1977,_RNvNtNtNtNtCsawjdjYzw0zz_7mostrod3app4bond4flow5testss_34classify_already_done_by_grpc_code
FN:1786,_RNvNtNtNtNtCsawjdjYzw0zz_7mostrod3app4bond4flow5testss_34concurrent_requested_bonds_coexist
FN:1991,_RNvNtNtNtNtCsawjdjYzw0zz_7mostrod3app4bond4flow5testss_36classify_already_done_by_lnd_message
FN:2252,_RNvNtNtNtNtCsawjdjYzw0zz_7mostrod3app4bond4flow5testss_38accepted_callback_ignores_unknown_hash
FN:2567,_RNvNtNtNtNtCsawjdjYzw0zz_7mostrod3app4bond4flow5testss_38canceled_callback_ignores_unknown_hash
FN:1626,_RNvNtNtNtNtCsawjdjYzw0zz_7mostrod3app4bond4flow5testss_38lock_race_guard_admits_only_one_winner
FN:2518,_RNvNtNtNtNtCsawjdjYzw0zz_7mostrod3app4bond4flow5testss_38maker_accepted_skips_unparseable_state
FN:2575,_RNvNtNtNtNtCsawjdjYzw0zz_7mostrod3app4bond4flow5testss_40canceled_callback_noop_for_terminal_bond
FN:1537,_RNvNtNtNtNtCsawjdjYzw0zz_7mostrod3app4bond4flow5testss_40empty_bond_set_does_not_commit_the_trade
FN:1474,_RNvNtNtNtNtCsawjdjYzw0zz_7mostrod3app4bond4flow5testss_40release_bond_without_hash_marks_released
FN:3020,_RNvNtNtNtNtCsawjdjYzw0zz_7mostrod3app4bond4flow5testss_42maker_accepted_errors_on_missing_order_row
FN:1587,_RNvNtNtNtNtCsawjdjYzw0zz_7mostrod3app4bond4flow5testss_42maker_bond_lock_does_not_touch_other_bonds
FN:1862,_RNvNtNtNtNtCsawjdjYzw0zz_7mostrod3app4bond4flow5testss_42maybe_drop_does_not_revert_concurrent_lock
FN:2119,_RNvNtNtNtNtCsawjdjYzw0zz_7mostrod3app4bond4flow5testss_42release_bond_with_unparseable_state_errors
FN:1509,_RNvNtNtNtNtCsawjdjYzw0zz_7mostrod3app4bond4flow5testss_43locked_maker_bond_does_not_commit_the_trade
FN:1544,_RNvNtNtNtNtCsawjdjYzw0zz_7mostrod3app4bond4flow5testss_43maker_bond_lock_is_singleton_and_idempotent
FN:1501,_RNvNtNtNtNtCsawjdjYzw0zz_7mostrod3app4bond4flow5testss_43maker_bond_required_is_false_without_config
FN:1493,_RNvNtNtNtNtCsawjdjYzw0zz_7mostrod3app4bond4flow5testss_43taker_bond_required_is_false_without_config
FN:2010,_RNvNtNtNtNtCsawjdjYzw0zz_7mostrod3app4bond4flow5testss_44classify_transient_for_transport_and_unknown
FN:2426,_RNvNtNtNtNtCsawjdjYzw0zz_7mostrod3app4bond4flow5testss_45accepted_callback_errors_on_missing_order_row
FN:2193,_RNvNtNtNtNtCsawjdjYzw0zz_7mostrod3app4bond4flow5testss_45release_taker_bonds_retains_locked_maker_bond
FN:2300,_RNvNtNtNtNtCsawjdjYzw0zz_7mostrod3app4bond4flow5testss_46accepted_callback_terminal_loser_skips_release
FN:3049,_RNvNtNtNtNtCsawjdjYzw0zz_7mostrod3app4bond4flow5testss_46canceled_callback_swallows_maybe_drop_db_error
FN:1430,_RNvNtNtNtNtCsawjdjYzw0zz_7mostrod3app4bond4flow5testss_46release_bond_is_idempotent_for_terminal_states
FN:2493,_RNvNtNtNtNtCsawjdjYzw0zz_7mostrod3app4bond4flow5testss_47maker_accepted_skips_when_bond_no_longer_locked
FN:1663,_RNvNtNtNtNtCsawjdjYzw0zz_7mostrod3app4bond4flow5testss_48locked_maker_bond_does_not_block_taker_lock_race
FN:2179,_RNvNtNtNtNtCsawjdjYzw0zz_7mostrod3app4bond4flow5testss_48release_bonds_for_order_or_warn_never_propagates
FN:1752,_RNvNtNtNtNtCsawjdjYzw0zz_7mostrod3app4bond4flow5testss_49drop_waiting_taker_bond_held_by_active_taker_bond
FN:2632,_RNvNtNtNtNtCsawjdjYzw0zz_7mostrod3app4bond4flow5testss_49promote_taker_context_buy_order_fills_seller_side
FN:2790,_RNvNtNtNtNtCsawjdjYzw0zz_7mostrod3app4bond4flow5testss_49release_bonds_for_order_or_warn_swallows_db_error
FN:2396,_RNvNtNtNtNtCsawjdjYzw0zz_7mostrod3app4bond4flow5testss_50accepted_callback_skips_resume_when_order_moved_on
FN:2221,_RNvNtNtNtNtCsawjdjYzw0zz_7mostrod3app4bond4flow5testss_50bond_invoice_subscribe_errors_when_lnd_unreachable
FN:2160,_RNvNtNtNtNtCsawjdjYzw0zz_7mostrod3app4bond4flow5testss_50release_bonds_for_order_swallows_per_bond_failures
FN:2104,_RNvNtNtNtNtCsawjdjYzw0zz_7mostrod3app4bond4flow5testss_50request_maker_bond_errors_when_bond_config_missing
FN:2076,_RNvNtNtNtNtCsawjdjYzw0zz_7mostrod3app4bond4flow5testss_50request_taker_bond_errors_when_bond_config_missing
FN:2696,_RNvNtNtNtNtCsawjdjYzw0zz_7mostrod3app4bond4flow5testss_50resume_take_errors_on_bad_kind_and_missing_pubkeys
FN:2452,_RNvNtNtNtNtCsawjdjYzw0zz_7mostrod3app4bond4flow5testss_51accepted_callback_skips_bond_with_unparseable_state
FN:2860,_RNvNtNtNtNtCsawjdjYzw0zz_7mostrod3app4bond4flow5testss_53accepted_callback_warns_when_enumerating_losers_fails
FN:2992,_RNvNtNtNtNtCsawjdjYzw0zz_7mostrod3app4bond4flow5testss_53maker_accepted_noop_when_bond_vanishes_after_lock_cas
FN:1957,_RNvNtNtNtNtCsawjdjYzw0zz_7mostrod3app4bond4flow5testss_53maybe_drop_waiting_taker_bond_noop_when_order_missing
FN:2228,_RNvNtNtNtNtCsawjdjYzw0zz_7mostrod3app4bond4flow5testss_53resubscribe_active_bonds_survives_bad_hash_and_no_lnd
FN:2740,_RNvNtNtNtNtCsawjdjYzw0zz_7mostrod3app4bond4flow5testss_53resume_take_sell_order_with_invoice_fails_without_lnd
FN:2333,_RNvNtNtNtNtCsawjdjYzw0zz_7mostrod3app4bond4flow5testss_54accepted_callback_winner_tears_down_requested_siblings
FN:2468,_RNvNtNtNtNtCsawjdjYzw0zz_7mostrod3app4bond4flow5testss_55maker_accepted_locks_and_skips_publish_when_not_waiting
FN:1709,_RNvNtNtNtNtCsawjdjYzw0zz_7mostrod3app4bond4flow5testss_55maybe_drop_waiting_taker_bond_ignores_locked_maker_bond
FN:1450,_RNvNtNtNtNtCsawjdjYzw0zz_7mostrod3app4bond4flow5testss_55release_bonds_for_order_runs_regardless_of_feature_flag
FN:2811,_RNvNtNtNtNtCsawjdjYzw0zz_7mostrod3app4bond4flow5testss_55release_taker_bonds_for_order_or_warn_swallows_db_error
FN:2726,_RNvNtNtNtNtCsawjdjYzw0zz_7mostrod3app4bond4flow5testss_55resume_take_buy_order_fails_at_hold_invoice_without_lnd
FN:2830,_RNvNtNtNtNtCsawjdjYzw0zz_7mostrod3app4bond4flow5testss_56accepted_callback_noop_when_bond_vanishes_after_lock_cas
FN:2132,_RNvNtNtNtNtCsawjdjYzw0zz_7mostrod3app4bond4flow5testss_56release_bond_with_hash_stays_active_when_lnd_unreachable
FN:2908,_RNvNtNtNtNtCsawjdjYzw0zz_7mostrod3app4bond4flow5testss_57accepted_callback_winner_warns_when_sibling_release_fails
FN:2596,_RNvNtNtNtNtCsawjdjYzw0zz_7mostrod3app4bond4flow5testss_57canceled_callback_releases_last_bond_and_drops_to_pending
FN:2760,_RNvNtNtNtNtCsawjdjYzw0zz_7mostrod3app4bond4flow5testss_57resume_take_sell_order_without_invoice_asks_buyer_for_one
FN:1810,_RNvNtNtNtNtCsawjdjYzw0zz_7mostrod3app4bond4flow5testss_58maybe_drop_waiting_taker_bond_noop_when_other_bonds_active
FN:2260,_RNvNtNtNtNtCsawjdjYzw0zz_7mostrod3app4bond4flow5testss_59accepted_callback_race_loser_is_notified_and_left_for_retry
FN:2535,_RNvNtNtNtNtCsawjdjYzw0zz_7mostrod3app4bond4flow5testss_60maker_accepted_attempts_resume_when_order_waiting_maker_bond
FN:1938,_RNvNtNtNtNtCsawjdjYzw0zz_7mostrod3app4bond4flow5testss_61pending_to_waiting_taker_bond_cas_flips_when_status_unchanged
FN:2665,_RNvNtNtNtNtCsawjdjYzw0zz_7mostrod3app4bond4flow5testss_61promote_taker_context_sell_order_fills_buyer_side_and_invoice
FN:3127,_RNvNtNtNtNtCsawjdjYzw0zz_7mostrod3app4bond4flow5testss_63maybe_drop_waiting_taker_bond_republishes_and_persists_event_id
FN:1840,_RNvNtNtNtNtCsawjdjYzw0zz_7mostrod3app4bond4flow5testss_67maybe_drop_waiting_taker_bond_noop_when_order_not_in_waiting_status
FN:3096,_RNvNtNtNtNtCsawjdjYzw0zz_7mostrod3app4bond4flow5testss_71maybe_drop_waiting_taker_bond_noop_when_order_vanishes_after_transition
FN:2949,_RNvNtNtNtNtCsawjdjYzw0zz_7mostrod3app4bond4flow5testss_75accepted_callback_skips_resume_when_bond_flips_away_from_locked_via_trigger
FN:1898,_RNvNtNtNtNtCsawjdjYzw0zz_7mostrod3app4bond4flow5testss_76pending_to_waiting_taker_bond_cas_refuses_to_overwrite_concurrent_transition
FNDA:1,_RNCNCNvNtNtNtCsawjdjYzw0zz_7mostrod3app4bond4flow12release_bond00Bb_
FNDA:0,_RNCNCNvNtNtNtCsawjdjYzw0zz_7mostrod3app4bond4flow12release_bond0s_0Bb_
FNDA:1,_RNCNCNvNtNtNtCsawjdjYzw0zz_7mostrod3app4bond4flow18request_maker_bond00Bb_
FNDA:0,_RNCNCNvNtNtNtCsawjdjYzw0zz_7mostrod3app4bond4flow18request_maker_bond0s_0Bb_
FNDA:1,_RNCNCNvNtNtNtCsawjdjYzw0zz_7mostrod3app4bond4flow18request_taker_bond00Bb_
FNDA:0,_RNCNCNvNtNtNtCsawjdjYzw0zz_7mostrod3app4bond4flow18request_taker_bond0s_0Bb_
FNDA:0,_RNCNCNvNtNtNtCsawjdjYzw0zz_7mostrod3app4bond4flow22bond_invoice_subscribe00Bb_
FNDA:0,_RNCNCNvNtNtNtCsawjdjYzw0zz_7mostrod3app4bond4flow22bond_invoice_subscribe0s_0Bb_
FNDA:0,_RNCNCNvNtNtNtCsawjdjYzw0zz_7mostrod3app4bond4flow22on_maker_bond_accepted00Bb_
FNDA:1,_RNCNCNvNtNtNtCsawjdjYzw0zz_7mostrod3app4bond4flow22on_maker_bond_accepted0s0_0Bb_
FNDA:0,_RNCNCNvNtNtNtCsawjdjYzw0zz_7mostrod3app4bond4flow22on_maker_bond_accepted0s_0Bb_
FNDA:0,_RNCNCNvNtNtNtCsawjdjYzw0zz_7mostrod3app4bond4flow22resume_take_after_bond00Bb_
FNDA:0,_RNCNCNvNtNtNtCsawjdjYzw0zz_7mostrod3app4bond4flow22resume_take_after_bond0s0_0Bb_
FNDA:0,_RNCNCNvNtNtNtCsawjdjYzw0zz_7mostrod3app4bond4flow22resume_take_after_bond0s_0Bb_
FNDA:0,_RNCNCNvNtNtNtCsawjdjYzw0zz_7mostrod3app4bond4flow24on_bond_invoice_accepted00Bb_
FNDA:0,_RNCNCNvNtNtNtCsawjdjYzw0zz_7mostrod3app4bond4flow24on_bond_invoice_accepted0s0_0Bb_
FNDA:1,_RNCNCNvNtNtNtCsawjdjYzw0zz_7mostrod3app4bond4flow24on_bond_invoice_accepted0s1_0Bb_
FNDA:6,_RNCNCNvNtNtNtCsawjdjYzw0zz_7mostrod3app4bond4flow24on_bond_invoice_accepted0s_0Bb_
FNDA:3,_RNCNCNvNtNtNtCsawjdjYzw0zz_7mostrod3app4bond4flow24on_bond_invoice_canceled00Bb_
FNDA:0,_RNCNCNvNtNtNtCsawjdjYzw0zz_7mostrod3app4bond4flow24on_bond_invoice_canceled0s_0Bb_
FNDA:0,_RNCNCNvNtNtNtCsawjdjYzw0zz_7mostrod3app4bond4flow29maybe_drop_waiting_taker_bond00Bb_
FNDA:0,_RNCNCNvNtNtNtCsawjdjYzw0zz_7mostrod3app4bond4flow30promote_taker_context_to_order00Bb_
FNDA:1,_RNCNCNvNtNtNtCsawjdjYzw0zz_7mostrod3app4bond4flow34drop_waiting_taker_bond_to_pending00Bb_
FNDA:4,_RNCNvNtNtNtCsawjdjYzw0zz_7mostrod3app4bond4flow12notify_loser0B9_
FNDA:32,_RNCNvNtNtNtCsawjdjYzw0zz_7mostrod3app4bond4flow12release_bond0B9_
FNDA:1,_RNCNvNtNtNtCsawjdjYzw0zz_7mostrod3app4bond4flow18request_maker_bond0B9_
FNDA:1,_RNCNvNtNtNtCsawjdjYzw0zz_7mostrod3app4bond4flow18request_taker_bond0B9_
FNDA:0,_RNCNvNtNtNtCsawjdjYzw0zz_7mostrod3app4bond4flow19maker_bond_requireds_0B9_
FNDA:0,_RNCNvNtNtNtCsawjdjYzw0zz_7mostrod3app4bond4flow19taker_bond_requireds_0B9_
FNDA:23,_RNCNvNtNtNtCsawjdjYzw0zz_7mostrod3app4bond4flow20release_active_bonds0B9_
FNDA:2,_RNCNvNtNtNtCsawjdjYzw0zz_7mostrod3app4bond4flow22bond_invoice_subscribe0B9_
FNDA:6,_RNCNvNtNtNtCsawjdjYzw0zz_7mostrod3app4bond4flow22on_maker_bond_accepted0B9_
FNDA:9,_RNCNvNtNtNtCsawjdjYzw0zz_7mostrod3app4bond4flow22resume_take_after_bond0B9_
FNDA:9,_RNCNvNtNtNtCsawjdjYzw0zz_7mostrod3app4bond4flow23release_bonds_for_order0B9_
FNDA:17,_RNCNvNtNtNtCsawjdjYzw0zz_7mostrod3app4bond4flow24on_bond_invoice_accepted0B9_
FNDA:4,_RNCNvNtNtNtCsawjdjYzw0zz_7mostrod3app4bond4flow24on_bond_invoice_canceled0B9_
FNDA:1,_RNCNvNtNtNtCsawjdjYzw0zz_7mostrod3app4bond4flow24resubscribe_active_bonds0B9_
FNDA:8,_RNCNvNtNtNtCsawjdjYzw0zz_7mostrod3app4bond4flow29maybe_drop_waiting_taker_bond0B9_
FNDA:5,_RNCNvNtNtNtCsawjdjYzw0zz_7mostrod3app4bond4flow30promote_taker_context_to_order0B9_
FNDA:7,_RNCNvNtNtNtCsawjdjYzw0zz_7mostrod3app4bond4flow31release_bonds_for_order_or_warn0B9_
FNDA:10,_RNCNvNtNtNtCsawjdjYzw0zz_7mostrod3app4bond4flow34drop_waiting_taker_bond_to_pending0B9_
FNDA:4,_RNCNvNtNtNtCsawjdjYzw0zz_7mostrod3app4bond4flow36trade_committed_by_locked_taker_bond0B9_
FNDA:14,_RNCNvNtNtNtCsawjdjYzw0zz_7mostrod3app4bond4flow37release_taker_bonds_for_order_or_warn0B9_
FNDA:4,_RNvNtNtNtCsawjdjYzw0zz_7mostrod3app4bond4flow12notify_loser
FNDA:32,_RNvNtNtNtCsawjdjYzw0zz_7mostrod3app4bond4flow12release_bond
FNDA:1,_RNvNtNtNtCsawjdjYzw0zz_7mostrod3app4bond4flow18request_maker_bond
FNDA:1,_RNvNtNtNtCsawjdjYzw0zz_7mostrod3app4bond4flow18request_taker_bond
FNDA:5,_RNvNtNtNtCsawjdjYzw0zz_7mostrod3app4bond4flow19maker_bond_required
FNDA:7,_RNvNtNtNtCsawjdjYzw0zz_7mostrod3app4bond4flow19taker_bond_required
FNDA:23,_RNvNtNtNtCsawjdjYzw0zz_7mostrod3app4bond4flow20release_active_bonds
FNDA:12,_RNvNtNtNtCsawjdjYzw0zz_7mostrod3app4bond4flow21classify_cancel_error
FNDA:2,_RNvNtNtNtCsawjdjYzw0zz_7mostrod3app4bond4flow22bond_invoice_subscribe
FNDA:6,_RNvNtNtNtCsawjdjYzw0zz_7mostrod3app4bond4flow22on_maker_bond_accepted
FNDA:9,_RNvNtNtNtCsawjdjYzw0zz_7mostrod3app4bond4flow22resume_take_after_bond
FNDA:9,_RNvNtNtNtCsawjdjYzw0zz_7mostrod3app4bond4flow23release_bonds_for_order
FNDA:17,_RNvNtNtNtCsawjdjYzw0zz_7mostrod3app4bond4flow24on_bond_invoice_accepted
FNDA:4,_RNvNtNtNtCsawjdjYzw0zz_7mostrod3app4bond4flow24on_bond_invoice_canceled
FNDA:1,_RNvNtNtNtCsawjdjYzw0zz_7mostrod3app4bond4flow24resubscribe_active_bonds
FNDA:8,_RNvNtNtNtCsawjdjYzw0zz_7mostrod3app4bond4flow29maybe_drop_waiting_taker_bond
FNDA:5,_RNvNtNtNtCsawjdjYzw0zz_7mostrod3app4bond4flow30promote_taker_context_to_order
FNDA:7,_RNvNtNtNtCsawjdjYzw0zz_7mostrod3app4bond4flow31release_bonds_for_order_or_warn
FNDA:10,_RNvNtNtNtCsawjdjYzw0zz_7mostrod3app4bond4flow34drop_waiting_taker_bond_to_pending
FNDA:3,_RNvNtNtNtCsawjdjYzw0zz_7mostrod3app4bond4flow36trade_committed_by_locked_taker_bond
FNDA:14,_RNvNtNtNtCsawjdjYzw0zz_7mostrod3app4bond4flow37release_taker_bonds_for_order_or_warn
FNDA:330,_RNCNCNCNvNtNtNtNtCsawjdjYzw0zz_7mostrod3app4bond4flow5tests10setup_pool000Bf_
FNDA:605,_RNCNCNCNvNtNtNtNtCsawjdjYzw0zz_7mostrod3app4bond4flow5tests10setup_pool0s_00Bf_
FNDA:96,_RNCNCNvNtNtNtNtCsawjdjYzw0zz_7mostrod3app4bond4flow5tests10count_msgs00Bd_
FNDA:220,_RNCNCNvNtNtNtNtCsawjdjYzw0zz_7mostrod3app4bond4flow5tests10setup_pool00Bd_
FNDA:220,_RNCNCNvNtNtNtNtCsawjdjYzw0zz_7mostrod3app4bond4flow5tests10setup_pool0s_0Bd_
FNDA:3,_RNCNCNvNtNtNtNtCsawjdjYzw0zz_7mostrod3app4bond4flow5testss_34concurrent_requested_bonds_coexist00Bd_
FNDA:2,_RNCNCNvNtNtNtNtCsawjdjYzw0zz_7mostrod3app4bond4flow5testss_38lock_race_guard_admits_only_one_winner00Bd_
FNDA:2,_RNCNCNvNtNtNtNtCsawjdjYzw0zz_7mostrod3app4bond4flow5testss_38lock_race_guard_admits_only_one_winner0s0_0Bd_
FNDA:1,_RNCNCNvNtNtNtNtCsawjdjYzw0zz_7mostrod3app4bond4flow5testss_38lock_race_guard_admits_only_one_winner0s_0Bd_
FNDA:2,_RNCNvNCNvNtNtNtNtCsawjdjYzw0zz_7mostrod3app4bond4flow5testss_43maker_bond_lock_is_singleton_and_idempotent08try_lock0Bf_
FNDA:10,_RNCNvNtNtNtNtCsawjdjYzw0zz_7mostrod3app4bond4flow5tests10count_msgs0Bb_
FNDA:14,_RNCNvNtNtNtNtCsawjdjYzw0zz_7mostrod3app4bond4flow5tests10load_order0Bb_
FNDA:55,_RNCNvNtNtNtNtCsawjdjYzw0zz_7mostrod3app4bond4flow5tests10setup_pool0Bb_
FNDA:52,_RNCNvNtNtNtNtCsawjdjYzw0zz_7mostrod3app4bond4flow5tests12insert_order0Bb_
FNDA:3,_RNCNvNtNtNtNtCsawjdjYzw0zz_7mostrod3app4bond4flow5tests8try_lock0Bb_
FNDA:1,_RNCNvNtNtNtNtCsawjdjYzw0zz_7mostrod3app4bond4flow5testss_34concurrent_requested_bonds_coexist0Bb_
FNDA:1,_RNCNvNtNtNtNtCsawjdjYzw0zz_7mostrod3app4bond4flow5testss_38accepted_callback_ignores_unknown_hash0Bb_
FNDA:1,_RNCNvNtNtNtNtCsawjdjYzw0zz_7mostrod3app4bond4flow5testss_38canceled_callback_ignores_unknown_hash0Bb_
FNDA:1,_RNCNvNtNtNtNtCsawjdjYzw0zz_7mostrod3app4bond4flow5testss_38lock_race_guard_admits_only_one_winner0Bb_
FNDA:1,_RNCNvNtNtNtNtCsawjdjYzw0zz_7mostrod3app4bond4flow5testss_38maker_accepted_skips_unparseable_state0Bb_
FNDA:1,_RNCNvNtNtNtNtCsawjdjYzw0zz_7mostrod3app4bond4flow5testss_40canceled_callback_noop_for_terminal_bond0Bb_
FNDA:1,_RNCNvNtNtNtNtCsawjdjYzw0zz_7mostrod3app4bond4flow5testss_40release_bond_without_hash_marks_released0Bb_
FNDA:1,_RNCNvNtNtNtNtCsawjdjYzw0zz_7mostrod3app4bond4flow5testss_42maker_accepted_errors_on_missing_order_row0Bb_
FNDA:1,_RNCNvNtNtNtNtCsawjdjYzw0zz_7mostrod3app4bond4flow5testss_42maker_bond_lock_does_not_touch_other_bonds0Bb_
FNDA:1,_RNCNvNtNtNtNtCsawjdjYzw0zz_7mostrod3app4bond4flow5testss_42maybe_drop_does_not_revert_concurrent_lock0Bb_
FNDA:1,_RNCNvNtNtNtNtCsawjdjYzw0zz_7mostrod3app4bond4flow5testss_42release_bond_with_unparseable_state_errors0Bb_
FNDA:1,_RNCNvNtNtNtNtCsawjdjYzw0zz_7mostrod3app4bond4flow5testss_43maker_bond_lock_is_singleton_and_idempotent0Bb_
FNDA:1,_RNCNvNtNtNtNtCsawjdjYzw0zz_7mostrod3app4bond4flow5testss_45accepted_callback_errors_on_missing_order_row0Bb_
FNDA:1,_RNCNvNtNtNtNtCsawjdjYzw0zz_7mostrod3app4bond4flow5testss_45release_taker_bonds_retains_locked_maker_bond0Bb_
FNDA:1,_RNCNvNtNtNtNtCsawjdjYzw0zz_7mostrod3app4bond4flow5testss_46accepted_callback_terminal_loser_skips_release0Bb_
FNDA:1,_RNCNvNtNtNtNtCsawjdjYzw0zz_7mostrod3app4bond4flow5testss_46canceled_callback_swallows_maybe_drop_db_error0Bb_
FNDA:1,_RNCNvNtNtNtNtCsawjdjYzw0zz_7mostrod3app4bond4flow5testss_46release_bond_is_idempotent_for_terminal_states0Bb_
FNDA:1,_RNCNvNtNtNtNtCsawjdjYzw0zz_7mostrod3app4bond4flow5testss_47maker_accepted_skips_when_bond_no_longer_locked0Bb_
FNDA:1,_RNCNvNtNtNtNtCsawjdjYzw0zz_7mostrod3app4bond4flow5testss_48locked_maker_bond_does_not_block_taker_lock_race0Bb_
FNDA:1,_RNCNvNtNtNtNtCsawjdjYzw0zz_7mostrod3app4bond4flow5testss_48release_bonds_for_order_or_warn_never_propagates0Bb_
FNDA:1,_RNCNvNtNtNtNtCsawjdjYzw0zz_7mostrod3app4bond4flow5testss_49drop_waiting_taker_bond_held_by_active_taker_bond0Bb_
FNDA:1,_RNCNvNtNtNtNtCsawjdjYzw0zz_7mostrod3app4bond4flow5testss_49promote_taker_context_buy_order_fills_seller_side0Bb_
FNDA:1,_RNCNvNtNtNtNtCsawjdjYzw0zz_7mostrod3app4bond4flow5testss_49release_bonds_for_order_or_warn_swallows_db_error0Bb_
FNDA:1,_RNCNvNtNtNtNtCsawjdjYzw0zz_7mostrod3app4bond4flow5testss_50accepted_callback_skips_resume_when_order_moved_on0Bb_
FNDA:1,_RNCNvNtNtNtNtCsawjdjYzw0zz_7mostrod3app4bond4flow5testss_50bond_invoice_subscribe_errors_when_lnd_unreachable0Bb_
FNDA:1,_RNCNvNtNtNtNtCsawjdjYzw0zz_7mostrod3app4bond4flow5testss_50release_bonds_for_order_swallows_per_bond_failures0Bb_
FNDA:1,_RNCNvNtNtNtNtCsawjdjYzw0zz_7mostrod3app4bond4flow5testss_50request_maker_bond_errors_when_bond_config_missing0Bb_
FNDA:1,_RNCNvNtNtNtNtCsawjdjYzw0zz_7mostrod3app4bond4flow5testss_50request_taker_bond_errors_when_bond_config_missing0Bb_
FNDA:1,_RNCNvNtNtNtNtCsawjdjYzw0zz_7mostrod3app4bond4flow5testss_50resume_take_errors_on_bad_kind_and_missing_pubkeys0Bb_
FNDA:1,_RNCNvNtNtNtNtCsawjdjYzw0zz_7mostrod3app4bond4flow5testss_51accepted_callback_skips_bond_with_unparseable_state0Bb_
FNDA:1,_RNCNvNtNtNtNtCsawjdjYzw0zz_7mostrod3app4bond4flow5testss_53accepted_callback_warns_when_enumerating_losers_fails0Bb_
FNDA:1,_RNCNvNtNtNtNtCsawjdjYzw0zz_7mostrod3app4bond4flow5testss_53maker_accepted_noop_when_bond_vanishes_after_lock_cas0Bb_
FNDA:1,_RNCNvNtNtNtNtCsawjdjYzw0zz_7mostrod3app4bond4flow5testss_53maybe_drop_waiting_taker_bond_noop_when_order_missing0Bb_
FNDA:1,_RNCNvNtNtNtNtCsawjdjYzw0zz_7mostrod3app4bond4flow5testss_53resubscribe_active_bonds_survives_bad_hash_and_no_lnd0Bb_
FNDA:1,_RNCNvNtNtNtNtCsawjdjYzw0zz_7mostrod3app4bond4flow5testss_53resume_take_sell_order_with_invoice_fails_without_lnd0Bb_
FNDA:1,_RNCNvNtNtNtNtCsawjdjYzw0zz_7mostrod3app4bond4flow5testss_54accepted_callback_winner_tears_down_requested_siblings0Bb_
FNDA:1,_RNCNvNtNtNtNtCsawjdjYzw0zz_7mostrod3app4bond4flow5testss_55maker_accepted_locks_and_skips_publish_when_not_waiting0Bb_
FNDA:1,_RNCNvNtNtNtNtCsawjdjYzw0zz_7mostrod3app4bond4flow5testss_55maybe_drop_waiting_taker_bond_ignores_locked_maker_bond0Bb_
FNDA:1,_RNCNvNtNtNtNtCsawjdjYzw0zz_7mostrod3app4bond4flow5testss_55release_bonds_for_order_runs_regardless_of_feature_flag0Bb_
FNDA:1,_RNCNvNtNtNtNtCsawjdjYzw0zz_7mostrod3app4bond4flow5testss_55release_taker_bonds_for_order_or_warn_swallows_db_error0Bb_
FNDA:1,_RNCNvNtNtNtNtCsawjdjYzw0zz_7mostrod3app4bond4flow5testss_55resume_take_buy_order_fails_at_hold_invoice_without_lnd0Bb_
FNDA:1,_RNCNvNtNtNtNtCsawjdjYzw0zz_7mostrod3app4bond4flow5testss_56accepted_callback_noop_when_bond_vanishes_after_lock_cas0Bb_
FNDA:1,_RNCNvNtNtNtNtCsawjdjYzw0zz_7mostrod3app4bond4flow5testss_56release_bond_with_hash_stays_active_when_lnd_unreachable0Bb_
FNDA:1,_RNCNvNtNtNtNtCsawjdjYzw0zz_7mostrod3app4bond4flow5testss_57accepted_callback_winner_warns_when_sibling_release_fails0Bb_
FNDA:1,_RNCNvNtNtNtNtCsawjdjYzw0zz_7mostrod3app4bond4flow5testss_57canceled_callback_releases_last_bond_and_drops_to_pending0Bb_
FNDA:1,_RNCNvNtNtNtNtCsawjdjYzw0zz_7mostrod3app4bond4flow5testss_57resume_take_sell_order_without_invoice_asks_buyer_for_one0Bb_
FNDA:1,_RNCNvNtNtNtNtCsawjdjYzw0zz_7mostrod3app4bond4flow5testss_58maybe_drop_waiting_taker_bond_noop_when_other_bonds_active0Bb_
FNDA:1,_RNCNvNtNtNtNtCsawjdjYzw0zz_7mostrod3app4bond4flow5testss_59accepted_callback_race_loser_is_notified_and_left_for_retry0Bb_
FNDA:1,_RNCNvNtNtNtNtCsawjdjYzw0zz_7mostrod3app4bond4flow5testss_60maker_accepted_attempts_resume_when_order_waiting_maker_bond0Bb_
FNDA:1,_RNCNvNtNtNtNtCsawjdjYzw0zz_7mostrod3app4bond4flow5testss_61pending_to_waiting_taker_bond_cas_flips_when_status_unchanged0Bb_
FNDA:1,_RNCNvNtNtNtNtCsawjdjYzw0zz_7mostrod3app4bond4flow5testss_61promote_taker_context_sell_order_fills_buyer_side_and_invoice0Bb_
FNDA:1,_RNCNvNtNtNtNtCsawjdjYzw0zz_7mostrod3app4bond4flow5testss_63maybe_drop_waiting_taker_bond_republishes_and_persists_event_id0Bb_
FNDA:1,_RNCNvNtNtNtNtCsawjdjYzw0zz_7mostrod3app4bond4flow5testss_67maybe_drop_waiting_taker_bond_noop_when_order_not_in_waiting_status0Bb_
FNDA:1,_RNCNvNtNtNtNtCsawjdjYzw0zz_7mostrod3app4bond4flow5testss_71maybe_drop_waiting_taker_bond_noop_when_order_vanishes_after_transition0Bb_
FNDA:1,_RNCNvNtNtNtNtCsawjdjYzw0zz_7mostrod3app4bond4flow5testss_75accepted_callback_skips_resume_when_bond_flips_away_from_locked_via_trigger0Bb_
FNDA:1,_RNCNvNtNtNtNtCsawjdjYzw0zz_7mostrod3app4bond4flow5testss_76pending_to_waiting_taker_bond_cas_refuses_to_overwrite_concurrent_transition0Bb_
FNDA:2,_RNvNCNvNtNtNtNtCsawjdjYzw0zz_7mostrod3app4bond4flow5testss_43maker_bond_lock_is_singleton_and_idempotent08try_lock
FNDA:10,_RNvNtNtNtNtCsawjdjYzw0zz_7mostrod3app4bond4flow5tests10count_msgs
FNDA:14,_RNvNtNtNtNtCsawjdjYzw0zz_7mostrod3app4bond4flow5tests10load_order
FNDA:55,_RNvNtNtNtNtCsawjdjYzw0zz_7mostrod3app4bond4flow5tests10setup_pool
FNDA:52,_RNvNtNtNtNtCsawjdjYzw0zz_7mostrod3app4bond4flow5tests12insert_order
FNDA:32,_RNvNtNtNtNtCsawjdjYzw0zz_7mostrod3app4bond4flow5tests18init_test_settings
FNDA:12,_RNvNtNtNtNtCsawjdjYzw0zz_7mostrod3app4bond4flow5tests6ln_err
FNDA:3,_RNvNtNtNtNtCsawjdjYzw0zz_7mostrod3app4bond4flow5tests8try_lock
FNDA:38,_RNvNtNtNtNtCsawjdjYzw0zz_7mostrod3app4bond4flow5tests9make_bond
FNDA:1,_RNvNtNtNtNtCsawjdjYzw0zz_7mostrod3app4bond4flow5testss_34classify_already_done_by_grpc_code
FNDA:1,_RNvNtNtNtNtCsawjdjYzw0zz_7mostrod3app4bond4flow5testss_34concurrent_requested_bonds_coexist
FNDA:1,_RNvNtNtNtNtCsawjdjYzw0zz_7mostrod3app4bond4flow5testss_36classify_already_done_by_lnd_message
FNDA:1,_RNvNtNtNtNtCsawjdjYzw0zz_7mostrod3app4bond4flow5testss_38accepted_callback_ignores_unknown_hash
FNDA:1,_RNvNtNtNtNtCsawjdjYzw0zz_7mostrod3app4bond4flow5testss_38canceled_callback_ignores_unknown_hash
FNDA:1,_RNvNtNtNtNtCsawjdjYzw0zz_7mostrod3app4bond4flow5testss_38lock_race_guard_admits_only_one_winner
FNDA:1,_RNvNtNtNtNtCsawjdjYzw0zz_7mostrod3app4bond4flow5testss_38maker_accepted_skips_unparseable_state
FNDA:1,_RNvNtNtNtNtCsawjdjYzw0zz_7mostrod3app4bond4flow5testss_40canceled_callback_noop_for_terminal_bond
FNDA:1,_RNvNtNtNtNtCsawjdjYzw0zz_7mostrod3app4bond4flow5testss_40empty_bond_set_does_not_commit_the_trade
FNDA:1,_RNvNtNtNtNtCsawjdjYzw0zz_7mostrod3app4bond4flow5testss_40release_bond_without_hash_marks_released
FNDA:1,_RNvNtNtNtNtCsawjdjYzw0zz_7mostrod3app4bond4flow5testss_42maker_accepted_errors_on_missing_order_row
FNDA:1,_RNvNtNtNtNtCsawjdjYzw0zz_7mostrod3app4bond4flow5testss_42maker_bond_lock_does_not_touch_other_bonds
FNDA:1,_RNvNtNtNtNtCsawjdjYzw0zz_7mostrod3app4bond4flow5testss_42maybe_drop_does_not_revert_concurrent_lock
FNDA:1,_RNvNtNtNtNtCsawjdjYzw0zz_7mostrod3app4bond4flow5testss_42release_bond_with_unparseable_state_errors
FNDA:1,_RNvNtNtNtNtCsawjdjYzw0zz_7mostrod3app4bond4flow5testss_43locked_maker_bond_does_not_commit_the_trade
FNDA:1,_RNvNtNtNtNtCsawjdjYzw0zz_7mostrod3app4bond4flow5testss_43maker_bond_lock_is_singleton_and_idempotent
FNDA:1,_RNvNtNtNtNtCsawjdjYzw0zz_7mostrod3app4bond4flow5testss_43maker_bond_required_is_false_without_config
FNDA:1,_RNvNtNtNtNtCsawjdjYzw0zz_7mostrod3app4bond4flow5testss_43taker_bond_required_is_false_without_config
FNDA:1,_RNvNtNtNtNtCsawjdjYzw0zz_7mostrod3app4bond4flow5testss_44classify_transient_for_transport_and_unknown
FNDA:1,_RNvNtNtNtNtCsawjdjYzw0zz_7mostrod3app4bond4flow5testss_45accepted_callback_errors_on_missing_order_row
FNDA:1,_RNvNtNtNtNtCsawjdjYzw0zz_7mostrod3app4bond4flow5testss_45release_taker_bonds_retains_locked_maker_bond
FNDA:1,_RNvNtNtNtNtCsawjdjYzw0zz_7mostrod3app4bond4flow5testss_46accepted_callback_terminal_loser_skips_release
FNDA:1,_RNvNtNtNtNtCsawjdjYzw0zz_7mostrod3app4bond4flow5testss_46canceled_callback_swallows_maybe_drop_db_error
FNDA:1,_RNvNtNtNtNtCsawjdjYzw0zz_7mostrod3app4bond4flow5testss_46release_bond_is_idempotent_for_terminal_states
FNDA:1,_RNvNtNtNtNtCsawjdjYzw0zz_7mostrod3app4bond4flow5testss_47maker_accepted_skips_when_bond_no_longer_locked
FNDA:1,_RNvNtNtNtNtCsawjdjYzw0zz_7mostrod3app4bond4flow5testss_48locked_maker_bond_does_not_block_taker_lock_race
FNDA:1,_RNvNtNtNtNtCsawjdjYzw0zz_7mostrod3app4bond4flow5testss_48release_bonds_for_order_or_warn_never_propagates
FNDA:1,_RNvNtNtNtNtCsawjdjYzw0zz_7mostrod3app4bond4flow5testss_49drop_waiting_taker_bond_held_by_active_taker_bond
FNDA:1,_RNvNtNtNtNtCsawjdjYzw0zz_7mostrod3app4bond4flow5testss_49promote_taker_context_buy_order_fills_seller_side
FNDA:1,_RNvNtNtNtNtCsawjdjYzw0zz_7mostrod3app4bond4flow5testss_49release_bonds_for_order_or_warn_swallows_db_error
FNDA:1,_RNvNtNtNtNtCsawjdjYzw0zz_7mostrod3app4bond4flow5testss_50accepted_callback_skips_resume_when_order_moved_on
FNDA:1,_RNvNtNtNtNtCsawjdjYzw0zz_7mostrod3app4bond4flow5testss_50bond_invoice_subscribe_errors_when_lnd_unreachable
FNDA:1,_RNvNtNtNtNtCsawjdjYzw0zz_7mostrod3app4bond4flow5testss_50release_bonds_for_order_swallows_per_bond_failures
FNDA:1,_RNvNtNtNtNtCsawjdjYzw0zz_7mostrod3app4bond4flow5testss_50request_maker_bond_errors_when_bond_config_missing
FNDA:1,_RNvNtNtNtNtCsawjdjYzw0zz_7mostrod3app4bond4flow5testss_50request_taker_bond_errors_when_bond_config_missing
FNDA:1,_RNvNtNtNtNtCsawjdjYzw0zz_7mostrod3app4bond4flow5testss_50resume_take_errors_on_bad_kind_and_missing_pubkeys
FNDA:1,_RNvNtNtNtNtCsawjdjYzw0zz_7mostrod3app4bond4flow5testss_51accepted_callback_skips_bond_with_unparseable_state
FNDA:1,_RNvNtNtNtNtCsawjdjYzw0zz_7mostrod3app4bond4flow5testss_53accepted_callback_warns_when_enumerating_losers_fails
FNDA:1,_RNvNtNtNtNtCsawjdjYzw0zz_7mostrod3app4bond4flow5testss_53maker_accepted_noop_when_bond_vanishes_after_lock_cas
FNDA:1,_RNvNtNtNtNtCsawjdjYzw0zz_7mostrod3app4bond4flow5testss_53maybe_drop_waiting_taker_bond_noop_when_order_missing
FNDA:1,_RNvNtNtNtNtCsawjdjYzw0zz_7mostrod3app4bond4flow5testss_53resubscribe_active_bonds_survives_bad_hash_and_no_lnd
FNDA:1,_RNvNtNtNtNtCsawjdjYzw0zz_7mostrod3app4bond4flow5testss_53resume_take_sell_order_with_invoice_fails_without_lnd
FNDA:1,_RNvNtNtNtNtCsawjdjYzw0zz_7mostrod3app4bond4flow5testss_54accepted_callback_winner_tears_down_requested_siblings
FNDA:1,_RNvNtNtNtNtCsawjdjYzw0zz_7mostrod3app4bond4flow5testss_55maker_accepted_locks_and_skips_publish_when_not_waiting
FNDA:1,_RNvNtNtNtNtCsawjdjYzw0zz_7mostrod3app4bond4flow5testss_55maybe_drop_waiting_taker_bond_ignores_locked_maker_bond
FNDA:1,_RNvNtNtNtNtCsawjdjYzw0zz_7mostrod3app4bond4flow5testss_55release_bonds_for_order_runs_regardless_of_feature_flag
FNDA:1,_RNvNtNtNtNtCsawjdjYzw0zz_7mostrod3app4bond4flow5testss_55release_taker_bonds_for_order_or_warn_swallows_db_error
FNDA:1,_RNvNtNtNtNtCsawjdjYzw0zz_7mostrod3app4bond4flow5testss_55resume_take_buy_order_fails_at_hold_invoice_without_lnd
FNDA:1,_RNvNtNtNtNtCsawjdjYzw0zz_7mostrod3app4bond4flow5testss_56accepted_callback_noop_when_bond_vanishes_after_lock_cas
FNDA:1,_RNvNtNtNtNtCsawjdjYzw0zz_7mostrod3app4bond4flow5testss_56release_bond_with_hash_stays_active_when_lnd_unreachable
FNDA:1,_RNvNtNtNtNtCsawjdjYzw0zz_7mostrod3app4bond4flow5testss_57accepted_callback_winner_warns_when_sibling_release_fails
FNDA:1,_RNvNtNtNtNtCsawjdjYzw0zz_7mostrod3app4bond4flow5testss_57canceled_callback_releases_last_bond_and_drops_to_pending
FNDA:1,_RNvNtNtNtNtCsawjdjYzw0zz_7mostrod3app4bond4flow5testss_57resume_take_sell_order_without_invoice_asks_buyer_for_one
FNDA:1,_RNvNtNtNtNtCsawjdjYzw0zz_7mostrod3app4bond4flow5testss_58maybe_drop_waiting_taker_bond_noop_when_other_bonds_active
FNDA:1,_RNvNtNtNtNtCsawjdjYzw0zz_7mostrod3app4bond4flow5testss_59accepted_callback_race_loser_is_notified_and_left_for_retry
FNDA:1,_RNvNtNtNtNtCsawjdjYzw0zz_7mostrod3app4bond4flow5testss_60maker_accepted_attempts_resume_when_order_waiting_maker_bond
FNDA:1,_RNvNtNtNtNtCsawjdjYzw0zz_7mostrod3app4bond4flow5testss_61pending_to_waiting_taker_bond_cas_flips_when_status_unchanged
FNDA:1,_RNvNtNtNtNtCsawjdjYzw0zz_7mostrod3app4bond4flow5testss_61promote_taker_context_sell_order_fills_buyer_side_and_invoice
FNDA:1,_RNvNtNtNtNtCsawjdjYzw0zz_7mostrod3app4bond4flow5testss_63maybe_drop_waiting_taker_bond_republishes_and_persists_event_id
FNDA:1,_RNvNtNtNtNtCsawjdjYzw0zz_7mostrod3app4bond4flow5testss_67maybe_drop_waiting_taker_bond_noop_when_order_not_in_waiting_status
FNDA:1,_RNvNtNtNtNtCsawjdjYzw0zz_7mostrod3app4bond4flow5testss_71maybe_drop_waiting_taker_bond_noop_when_order_vanishes_after_transition
FNDA:1,_RNvNtNtNtNtCsawjdjYzw0zz_7mostrod3app4bond4flow5testss_75accepted_callback_skips_resume_when_bond_flips_away_from_locked_via_trigger
FNDA:1,_RNvNtNtNtNtCsawjdjYzw0zz_7mostrod3app4bond4flow5testss_76pending_to_waiting_taker_bond_cas_refuses_to_overwrite_concurrent_transition
FNF:207
FNH:190
DA:72,7
DA:73,7
DA:74,7
DA:75,7
DA:76,7
DA:86,5
DA:87,5
DA:88,5
DA:89,5
DA:90,5
DA:103,3
DA:104,3
DA:105,3
DA:106,4
DA:107,3
DA:150,1
DA:151,1
DA:152,1
DA:153,1
DA:154,1
DA:155,1
DA:156,1
DA:157,1
DA:158,1
DA:159,1
DA:160,1
DA:161,1
DA:166,0
DA:167,0
DA:169,0
DA:170,0
DA:171,0
DA:172,0
DA:173,0
DA:175,0
DA:176,0
DA:177,0
DA:178,0
DA:179,0
DA:180,0
DA:181,0
DA:182,0
DA:183,0
DA:184,0
DA:185,0
DA:187,0
DA:189,0
DA:199,0
DA:200,0
DA:201,0
DA:202,0
DA:203,0
DA:204,0
DA:205,0
DA:206,0
DA:207,0
DA:208,0
DA:209,0
DA:210,0
DA:211,0
DA:212,0
DA:213,0
DA:214,0
DA:215,0
DA:226,0
DA:227,0
DA:236,0
DA:237,0
DA:238,0
DA:240,0
DA:241,0
DA:242,0
DA:243,0
DA:244,0
DA:245,0
DA:246,0
DA:247,0
DA:248,0
DA:249,0
DA:250,0
DA:251,0
DA:252,0
DA:270,0
DA:271,0
DA:272,0
DA:273,0
DA:274,0
DA:275,0
DA:276,0
DA:277,0
DA:278,0
DA:279,0
DA:283,0
DA:286,0
DA:287,0
DA:288,0
DA:289,0
DA:290,0
DA:291,0
DA:292,0
DA:293,0
DA:294,0
DA:296,0
DA:300,0
DA:302,0
DA:303,0
DA:309,0
DA:311,0
DA:312,1
DA:335,1
DA:336,1
DA:337,1
DA:338,1
DA:339,1
DA:340,1
DA:341,1
DA:342,1
DA:343,1
DA:344,1
DA:345,1
DA:346,1
DA:347,1
DA:349,0
DA:350,0
DA:352,0
DA:353,0
DA:354,0
DA:355,0
DA:356,0
DA:358,0
DA:359,0
DA:360,0
DA:361,0
DA:365,0
DA:367,0
DA:376,0
DA:377,0
DA:378,0
DA:379,0
DA:380,0
DA:381,0
DA:382,0
DA:383,0
DA:384,0
DA:385,0
DA:386,0
DA:387,0
DA:388,0
DA:389,0
DA:390,0
DA:391,0
DA:392,0
DA:399,0
DA:400,0
DA:406,0
DA:407,0
DA:408,0
DA:410,0
DA:411,0
DA:412,0
DA:413,0
DA:414,0
DA:415,0
DA:416,0
DA:417,0
DA:418,0
DA:419,0
DA:420,0
DA:421,0
DA:422,0
DA:424,0
DA:425,1
DA:453,12
DA:454,12
DA:457,12
DA:458,2
DA:459,10
DA:461,10
DA:462,9
DA:463,8
DA:464,7
DA:465,6
DA:467,5
DA:468,5
DA:473,5
DA:474,12
DA:502,32
DA:506,32
DA:507,1
DA:508,1
DA:509,1
DA:510,1
DA:511,1
DA:512,31
DA:513,1
DA:514,30
DA:516,30
DA:517,5
DA:518,0
DA:519,0
DA:520,0
DA:527,0
DA:535,0
DA:542,0
DA:545,0
DA:547,5
DA:550,5
DA:557,5
DA:560,25
DA:562,25
DA:563,25
DA:564,25
DA:565,25
DA:566,25
DA:567,25
DA:568,25
DA:569,25
DA:570,25
DA:572,25
DA:576,25
DA:577,32
DA:593,9
DA:594,9
DA:595,9
DA:596,9
DA:597,9
DA:598,9
DA:609,23
DA:610,23
DA:611,23
DA:612,23
DA:613,23
DA:614,23
DA:615,21
DA:616,21
DA:617,17
DA:618,2
DA:619,15
DA:620,15
DA:621,2
DA:622,13
DA:624,21
DA:625,23
DA:634,7
DA:635,7
DA:636,7
DA:637,7
DA:638,7
DA:639,7
DA:640,1
DA:641,6
DA:642,7
DA:649,14
DA:650,14
DA:651,14
DA:652,14
DA:653,14
DA:654,14
DA:655,1
DA:656,13
DA:657,14
DA:665,2
DA:666,2
DA:667,2
DA:668,2
DA:669,2
DA:670,0
DA:672,0
DA:673,0
DA:674,0
DA:675,0
DA:676,0
DA:678,0
DA:680,0
DA:681,0
DA:682,0
DA:683,0
DA:685,0
DA:686,0
DA:687,0
DA:690,0
DA:691,0
DA:692,0
DA:695,0
DA:698,0
DA:702,0
DA:704,0
DA:705,2
DA:715,1
DA:716,1
DA:717,2
DA:718,2
DA:720,2
DA:721,1
DA:722,1
DA:723,1
DA:725,0
DA:728,1
DA:730,0
DA:732,1
DA:733,1
DA:770,17
DA:771,17
DA:772,17
DA:773,17
DA:774,17
DA:775,17
DA:776,16
DA:778,1
DA:779,1
DA:787,16
DA:788,6
DA:789,10
DA:803,10
DA:804,10
DA:805,10
DA:806,10
DA:807,10
DA:808,10
DA:809,10
DA:810,10
DA:811,10
DA:812,10
DA:813,10
DA:814,10
DA:815,10
DA:816,10
DA:817,10
DA:818,10
DA:819,10
DA:820,10
DA:821,10
DA:822,10
DA:826,10
DA:827,9
DA:828,1
DA:830,9
DA:831,8
DA:832,1
DA:833,1
DA:837,1
DA:841,8
DA:847,2
DA:851,2
DA:852,1
DA:853,1
DA:857,0
DA:858,1
DA:859,2
DA:860,2
DA:861,6
DA:863,6
DA:864,6
DA:869,6
DA:870,5
DA:871,1
DA:872,1
DA:876,1
DA:879,6
DA:880,6
DA:881,6
DA:883,2
DA:884,1
DA:888,1
DA:889,2
DA:891,0
DA:896,6
DA:897,1
DA:898,5
DA:900,5
DA:901,5
DA:902,5
DA:903,5
DA:904,1
DA:905,1
DA:906,1
DA:907,1
DA:908,1
DA:917,4
DA:918,1
DA:920,1
DA:924,1
DA:925,3
DA:931,3
DA:933,3
DA:934,3
DA:935,17
DA:948,6
DA:949,6
DA:950,6
DA:951,6
DA:952,6
DA:953,6
DA:954,6
DA:955,6
DA:956,6
DA:957,6
DA:958,6
DA:959,6
DA:960,6
DA:961,6
DA:962,6
DA:963,6
DA:967,6
DA:968,5
DA:969,1
DA:971,5
DA:972,4
DA:973,1
DA:974,1
DA:978,1
DA:981,4
DA:982,1
DA:986,1
DA:987,3
DA:988,3
DA:989,3
DA:993,0
DA:995,3
DA:996,3
DA:997,3
DA:998,3
DA:999,1
DA:1000,1
DA:1001,1
DA:1002,1
DA:1003,1
DA:1009,2
DA:1010,1
DA:1014,1
DA:1015,1
DA:1017,1
DA:1018,1
DA:1019,6
DA:1023,4
DA:1024,4
DA:1025,4
DA:1026,4
DA:1027,4
DA:1028,4
DA:1029,4
DA:1030,4
DA:1031,4
DA:1032,4
DA:1033,4
DA:1034,0
DA:1035,4
DA:1046,5
DA:1047,5
DA:1048,5
DA:1049,5
DA:1050,5
DA:1051,5
DA:1052,5
DA:1053,4
DA:1054,4
DA:1055,4
DA:1056,4
DA:1057,4
DA:1058,4
DA:1059,1
DA:1060,1
DA:1061,1
DA:1062,1
DA:1063,1
DA:1064,1
DA:1065,1
DA:1067,5
DA:1068,2
DA:1069,3
DA:1070,5
DA:1071,2
DA:1072,3
DA:1073,5
DA:1074,2
DA:1075,3
DA:1076,5
DA:1077,2
DA:1078,3
DA:1079,5
DA:1080,5
DA:1081,5
DA:1082,5
DA:1083,5
DA:1084,5
DA:1097,4
DA:1098,4
DA:1099,3
DA:1100,1
DA:1103,3
DA:1104,3
DA:1105,3
DA:1107,1
DA:1108,2
DA:1110,2
DA:1111,2
DA:1112,2
DA:1113,2
DA:1114,2
DA:1115,2
DA:1116,2
DA:1118,2
DA:1131,2
DA:1132,1
DA:1136,1
DA:1137,2
DA:1138,4
DA:1166,10
DA:1167,10
DA:1168,10
DA:1169,10
DA:1170,10
DA:1171,10
DA:1172,10
DA:1173,10
DA:1174,10
DA:1175,10
DA:1176,10
DA:1177,10
DA:1178,10
DA:1179,10
DA:1180,10
DA:1181,10
DA:1182,10
DA:1183,10
DA:1184,10
DA:1185,10
DA:1186,10
DA:1187,10
DA:1189,9
DA:1190,10
DA:1203,8
DA:1204,8
DA:1205,8
DA:1206,8
DA:1207,8
DA:1212,4
DA:1213,3
DA:1222,3
DA:1223,3
DA:1224,3
DA:1226,2
DA:1227,1
DA:1229,2
DA:1230,2
DA:1231,1
DA:1232,1
DA:1233,1
DA:1234,1
DA:1235,1
DA:1236,1
DA:1238,0
DA:1242,1
DA:1244,1
DA:1245,1
DA:1251,2
DA:1255,2
DA:1256,8
DA:1266,9
DA:1267,9
DA:1268,9
DA:1269,9
DA:1270,9
DA:1271,9
DA:1272,9
DA:1273,8
DA:1274,4
DA:1276,3
DA:1280,1
DA:1281,1
DA:1282,1
DA:1283,1
DA:1284,1
DA:1285,1
DA:1286,1
DA:1287,1
DA:1288,1
DA:1294,2
DA:1295,1
DA:1296,1
DA:1297,1
DA:1298,1
DA:1299,1
DA:1300,1
DA:1301,1
DA:1302,1
DA:1303,1
DA:1304,1
DA:1306,1
DA:1307,1
DA:1308,1
DA:1309,1
DA:1310,1
DA:1311,1
DA:1312,1
DA:1313,1
DA:1314,1
DA:1315,1
DA:1316,1
DA:1317,1
DA:1321,9
DA:1329,55
DA:1330,55
DA:1331,55
DA:1332,55
DA:1333,55
DA:1334,55
DA:1335,55
DA:1336,55
DA:1337,55
DA:1338,55
DA:1339,55
DA:1340,55
DA:1344,165
DA:1345,55
DA:1346,55
DA:1347,330
DA:1349,165
DA:1350,165
DA:1351,165
DA:1352,165
DA:1354,55
DA:1355,55
DA:1356,55
DA:1357,55
DA:1358,55
DA:1359,55
DA:1360,55
DA:1361,55
DA:1362,55
DA:1363,55
DA:1364,55
DA:1365,55
DA:1368,165
DA:1369,55
DA:1370,55
DA:1371,605
DA:1373,165
DA:1374,165
DA:1375,165
DA:1376,165
DA:1378,55
DA:1379,55
DA:1381,52
DA:1382,52
DA:1383,52
DA:1384,52
DA:1385,52
DA:1386,52
DA:1387,52
DA:1388,52
DA:1389,52
DA:1390,52
DA:1391,52
DA:1392,52
DA:1393,52
DA:1395,38
DA:1396,38
DA:1397,38
DA:1398,38
DA:1399,38
DA:1400,38
DA:1406,3
DA:1407,3
DA:1408,3
DA:1409,3
DA:1410,3
DA:1411,3
DA:1412,3
DA:1413,3
DA:1414,3
DA:1415,3
DA:1416,3
DA:1417,3
DA:1418,3
DA:1419,3
DA:1420,3
DA:1421,3
DA:1422,3
DA:1423,3
DA:1424,3
DA:1425,3
DA:1426,3
DA:1427,3
DA:1430,1
DA:1431,1
DA:1432,1
DA:1433,1
DA:1434,1
DA:1435,1
DA:1436,1
DA:1439,1
DA:1441,1
DA:1442,1
DA:1443,1
DA:1444,1
DA:1445,1
DA:1446,1
DA:1447,1
DA:1450,1
DA:1455,1
DA:1456,1
DA:1457,1
DA:1460,1
DA:1461,1
DA:1462,1
DA:1464,1
DA:1466,1
DA:1467,1
DA:1468,1
DA:1469,1
DA:1470,1
DA:1471,1
DA:1474,1
DA:1479,1
DA:1480,1
DA:1481,1
DA:1482,1
DA:1483,1
DA:1484,1
DA:1486,1
DA:1488,1
DA:1489,1
DA:1490,1
DA:1493,1
DA:1497,1
DA:1498,1
DA:1501,1
DA:1505,1
DA:1506,1
DA:1509,1
DA:1516,1
DA:1517,1
DA:1518,1
DA:1520,1
DA:1522,1
DA:1523,1
DA:1528,1
DA:1529,1
DA:1530,1
DA:1531,1
DA:1534,1
DA:1537,1
DA:1540,1
DA:1541,1
DA:1544,1
DA:1551,1
DA:1552,1
DA:1553,1
DA:1555,1
DA:1556,1
DA:1557,1
DA:1559,2
DA:1560,2
DA:1561,2
DA:1562,2
DA:1563,2
DA:1564,2
DA:1565,2
DA:1566,2
DA:1567,2
DA:1568,2
DA:1569,2
DA:1571,1
DA:1572,1
DA:1573,1
DA:1578,1
DA:1579,1
DA:1580,1
DA:1581,1
DA:1582,1
DA:1583,1
DA:1584,1
DA:1587,1
DA:1592,1
DA:1593,1
DA:1594,1
DA:1596,1
DA:1597,1
DA:1598,1
DA:1600,1
DA:1601,1
DA:1602,1
DA:1604,1
DA:1605,1
DA:1606,1
DA:1607,1
DA:1608,1
DA:1609,1
DA:1610,1
DA:1611,1
DA:1613,1
DA:1614,1
DA:1615,1
DA:1616,1
DA:1617,1
DA:1619,1
DA:1622,1
DA:1623,1
DA:1626,1
DA:1633,1
DA:1634,1
DA:1635,1
DA:1637,1
DA:1638,1
DA:1639,1
DA:1640,1
DA:1642,1
DA:1643,1
DA:1644,1
DA:1645,1
DA:1648,1
DA:1650,1
DA:1652,1
DA:1653,2
DA:1654,1
DA:1655,1
DA:1656,1
DA:1657,1
DA:1658,1
DA:1659,2
DA:1660,1
DA:1663,1
DA:1671,1
DA:1672,1
DA:1673,1
DA:1676,1
DA:1677,1
DA:1678,1
DA:1679,1
DA:1682,1
DA:1683,1
DA:1684,1
DA:1685,1
DA:1687,1
DA:1688,1
DA:1694,1
DA:1695,1
DA:1696,1
DA:1697,1
DA:1698,1
DA:1699,1
DA:1700,1
DA:1701,1
DA:1702,1
DA:1703,1
DA:1704,1
DA:1705,1
DA:1706,1
DA:1709,1
DA:1718,1
DA:1719,1
DA:1720,1
DA:1721,1
DA:1722,1
DA:1723,1
DA:1724,1
DA:1725,1
DA:1726,1
DA:1730,1
DA:1731,1
DA:1732,1
DA:1733,1
DA:1735,1
DA:1736,1
DA:1737,1
DA:1738,1
DA:1739,1
DA:1743,1
DA:1744,1
DA:1745,1
DA:1746,1
DA:1747,1
DA:1748,1
DA:1749,1
DA:1752,1
DA:1757,1
DA:1758,1
DA:1759,1
DA:1760,1
DA:1761,1
DA:1762,1
DA:1763,1
DA:1764,1
DA:1765,1
DA:1767,1
DA:1768,1
DA:1769,1
DA:1770,1
DA:1772,1
DA:1773,1
DA:1774,1
DA:1775,1
DA:1777,1
DA:1778,1
DA:1779,1
DA:1780,1
DA:1781,1
DA:1782,1
DA:1783,1
DA:1786,1
DA:1791,1
DA:1792,1
DA:1793,1
DA:1795,3
DA:1796,3
DA:1797,3
DA:1798,3
DA:1799,3
DA:1802,1
DA:1803,1
DA:1804,1
DA:1805,1
DA:1806,3
DA:1807,1
DA:1810,1
DA:1815,1
DA:1816,1
DA:1817,1
DA:1819,1
DA:1820,1
DA:1821,1
DA:1822,1
DA:1823,1
DA:1824,1
DA:1825,1
DA:1826,1
DA:1827,1
DA:1829,1
DA:1830,1
DA:1831,1
DA:1835,1
DA:1836,1
DA:1837,1
DA:1840,1
DA:1844,1
DA:1845,1
DA:1846,1
DA:1848,1
DA:1849,1
DA:1850,1
DA:1852,1
DA:1853,1
DA:1854,1
DA:1862,1
DA:1863,1
DA:1864,1
DA:1865,1
DA:1866,1
DA:1867,1
DA:1868,1
DA:1869,1
DA:1870,1
DA:1871,1
DA:1874,1
DA:1875,1
DA:1876,1
DA:1878,1
DA:1879,1
DA:1880,1
DA:1882,1
DA:1883,1
DA:1884,1
DA:1885,1
DA:1886,1
DA:1887,1
DA:1888,1
DA:1898,1
DA:1899,1
DA:1900,1
DA:1901,1
DA:1905,1
DA:1906,1
DA:1907,1
DA:1908,1
DA:1909,1
DA:1910,1
DA:1913,1
DA:1914,1
DA:1915,1
DA:1916,1
DA:1917,1
DA:1918,1
DA:1919,1
DA:1921,1
DA:1922,1
DA:1927,1
DA:1928,1
DA:1929,1
DA:1930,1
DA:1931,1
DA:1932,1
DA:1933,1
DA:1938,1
DA:1939,1
DA:1940,1
DA:1941,1
DA:1943,1
DA:1944,1
DA:1945,1
DA:1946,1
DA:1947,1
DA:1948,1
DA:1949,1
DA:1951,1
DA:1952,1
DA:1953,1
DA:1954,1
DA:1957,1
DA:1963,1
DA:1964,1
DA:1967,1
DA:1968,1
DA:1969,1
DA:1970,1
DA:1972,12
DA:1973,12
DA:1974,12
DA:1977,1
DA:1980,1
DA:1981,1
DA:1984,1
DA:1985,1
DA:1988,1
DA:1991,1
DA:1994,5
DA:1995,1
DA:1996,1
DA:1997,1
DA:1998,1
DA:1999,1
DA:2000,1
DA:2001,5
DA:2002,5
DA:2007,1
DA:2010,1
DA:2013,5
DA:2014,1
DA:2015,1
DA:2016,1
DA:2017,1
DA:2018,1
DA:2019,1
DA:2020,5
DA:2021,5
DA:2026,1
DA:2032,32
DA:2034,32
DA:2035,32
DA:2036,32
DA:2037,32
DA:2038,32
DA:2039,32
DA:2040,32
DA:2041,32
DA:2042,32
DA:2043,32
DA:2044,32
DA:2045,32
DA:2046,32
DA:2047,32
DA:2048,32
DA:2049,32
DA:2050,32
DA:2051,32
DA:2052,32
DA:2054,14
DA:2055,14
DA:2056,14
DA:2061,10
DA:2063,10
DA:2064,10
DA:2065,10
DA:2066,10
DA:2067,10
DA:2068,96
DA:2069,96
DA:2070,96
DA:2071,96
DA:2072,10
DA:2073,10
DA:2076,1
DA:2080,1
DA:2081,1
DA:2082,1
DA:2083,1
DA:2084,1
DA:2086,1
DA:2087,1
DA:2088,1
DA:2089,1
DA:2090,1
DA:2091,1
DA:2092,1
DA:2093,1
DA:2094,1
DA:2095,1
DA:2096,1
DA:2097,1
DA:2099,1
DA:2100,1
DA:2101,1
DA:2104,1
DA:2105,1
DA:2106,1
DA:2107,1
DA:2108,1
DA:2109,1
DA:2111,1
DA:2112,1
DA:2113,1
DA:2114,1
DA:2115,1
DA:2116,1
DA:2119,1
DA:2122,1
DA:2123,1
DA:2124,1
DA:2125,1
DA:2126,1
DA:2127,1
DA:2128,1
DA:2129,1
DA:2132,1
DA:2137,1
DA:2138,1
DA:2139,1
DA:2140,1
DA:2141,1
DA:2142,1
DA:2143,1
DA:2145,1
DA:2146,1
DA:2148,1
DA:2149,1
DA:2150,1
DA:2151,1
DA:2152,1
DA:2153,1
DA:2154,1
DA:2155,1
DA:2156,1
DA:2157,1
DA:2160,1
DA:2163,1
DA:2164,1
DA:2165,1
DA:2166,1
DA:2167,1
DA:2168,1
DA:2169,1
DA:2171,1
DA:2174,1
DA:2175,1
DA:2176,1
DA:2179,1
DA:2180,1
DA:2181,1
DA:2182,1
DA:2183,1
DA:2184,1
DA:2185,1
DA:2186,1
DA:2189,1
DA:2190,1
DA:2193,1
DA:2196,1
DA:2197,1
DA:2198,1
DA:2199,1
DA:2201,1
DA:2202,1
DA:2203,1
DA:2204,1
DA:2207,1
DA:2208,1
DA:2209,1
DA:2210,1
DA:2212,1
DA:2214,1
DA:2215,1
DA:2216,1
DA:2217,1
DA:2218,1
DA:2221,1
DA:2222,1
DA:2223,1
DA:2224,1
DA:2225,1
DA:2228,1
DA:2232,1
DA:2233,1
DA:2234,1
DA:2235,1
DA:2237,1
DA:2238,1
DA:2239,1
DA:2240,1
DA:2242,1
DA:2243,1
DA:2244,1
DA:2245,1
DA:2247,1
DA:2248,1
DA:2249,1
DA:2252,1
DA:2253,1
DA:2254,1
DA:2255,1
DA:2256,1
DA:2257,1
DA:2260,1
DA:2266,1
DA:2267,1
DA:2268,1
DA:2269,1
DA:2271,1
DA:2272,1
DA:2273,1
DA:2274,1
DA:2276,1
DA:2277,1
DA:2278,1
DA:2279,1
DA:2281,1
DA:2282,1
DA:2283,1
DA:2284,1
DA:2285,1
DA:2286,1
DA:2288,1
DA:2289,1
DA:2290,1
DA:2291,1
DA:2292,1
DA:2293,1
DA:2294,1
DA:2295,1
DA:2296,1
DA:2297,1
DA:2300,1
DA:2303,1
DA:2304,1
DA:2305,1
DA:2306,1
DA:2308,1
DA:2309,1
DA:2310,1
DA:2311,1
DA:2313,1
DA:2314,1
DA:2315,1
DA:2316,1
DA:2318,1
DA:2319,1
DA:2320,1
DA:2321,1
DA:2322,1
DA:2323,1
DA:2325,1
DA:2326,1
DA:2327,1
DA:2328,1
DA:2329,1
DA:2330,1
DA:2333,1
DA:2339,1
DA:2340,1
DA:2341,1
DA:2342,1
DA:2344,1
DA:2345,1
DA:2346,1
DA:2347,1
DA:2348,1
DA:2349,1
DA:2350,1
DA:2351,1
DA:2352,1
DA:2353,1
DA:2354,1
DA:2356,1
DA:2357,1
DA:2358,1
DA:2359,1
DA:2361,1
DA:2362,1
DA:2363,1
DA:2364,1
DA:2367,1
DA:2368,1
DA:2371,1
DA:2372,1
DA:2373,1
DA:2374,1
DA:2375,1
DA:2376,1
DA:2377,1
DA:2378,1
DA:2382,1
DA:2383,1
DA:2384,1
DA:2385,1
DA:2386,1
DA:2388,1
DA:2389,1
DA:2390,1
DA:2391,1
DA:2392,1
DA:2393,1
DA:2396,1
DA:2399,1
DA:2400,1
DA:2401,1
DA:2402,1
DA:2403,1
DA:2404,1
DA:2405,1
DA:2406,1
DA:2407,1
DA:2409,1
DA:2410,1
DA:2411,1
DA:2412,1
DA:2414,1
DA:2415,1
DA:2416,1
DA:2418,1
DA:2419,1
DA:2420,1
DA:2421,1
DA:2422,1
DA:2423,1
DA:2426,1
DA:2429,1
DA:2430,1
DA:2431,1
DA:2432,1
DA:2433,1
DA:2434,1
DA:2435,1
DA:2437,1
DA:2438,1
DA:2439,1
DA:2440,1
DA:2441,1
DA:2442,1
DA:2443,1
DA:2444,1
DA:2445,1
DA:2447,1
DA:2448,1
DA:2449,1
DA:2452,1
DA:2453,1
DA:2454,1
DA:2455,1
DA:2456,1
DA:2457,1
DA:2458,1
DA:2459,1
DA:2460,1
DA:2462,1
DA:2463,1
DA:2464,1
DA:2465,1
DA:2468,1
DA:2472,1
DA:2473,1
DA:2474,1
DA:2475,1
DA:2477,1
DA:2478,1
DA:2479,1
DA:2481,1
DA:2482,1
DA:2483,1
DA:2485,1
DA:2486,1
DA:2487,1
DA:2488,1
DA:2489,1
DA:2490,1
DA:2493,1
DA:2496,1
DA:2497,1
DA:2498,1
DA:2499,1
DA:2501,1
DA:2502,1
DA:2503,1
DA:2504,1
DA:2506,1
DA:2507,1
DA:2508,1
DA:2510,1
DA:2511,1
DA:2512,1
DA:2513,1
DA:2514,1
DA:2515,1
DA:2518,1
DA:2519,1
DA:2520,1
DA:2521,1
DA:2522,1
DA:2524,1
DA:2525,1
DA:2526,1
DA:2527,1
DA:2529,1
DA:2530,1
DA:2531,1
DA:2532,1
DA:2535,1
DA:2540,1
DA:2541,1
DA:2542,1
DA:2543,1
DA:2544,1
DA:2545,1
DA:2546,1
DA:2547,1
DA:2548,1
DA:2549,1
DA:2551,1
DA:2552,1
DA:2553,1
DA:2557,1
DA:2559,1
DA:2560,1
DA:2561,1
DA:2562,1
DA:2563,1
DA:2564,1
DA:2567,1
DA:2568,1
DA:2569,1
DA:2570,1
DA:2571,1
DA:2572,1
DA:2575,1
DA:2576,1
DA:2577,1
DA:2578,1
DA:2579,1
DA:2580,1
DA:2581,1
DA:2583,1
DA:2584,1
DA:2585,1
DA:2587,1
DA:2588,1
DA:2589,1
DA:2590,1
DA:2591,1
DA:2592,1
DA:2593,1
DA:2596,1
DA:2601,1
DA:2602,1
DA:2603,1
DA:2604,1
DA:2605,1
DA:2606,1
DA:2607,1
DA:2608,1
DA:2609,1
DA:2610,1
DA:2612,1
DA:2613,1
DA:2614,1
DA:2616,1
DA:2617,1
DA:2618,1
DA:2620,1
DA:2621,1
DA:2622,1
DA:2623,1
DA:2624,1
DA:2625,1
DA:2627,1
DA:2628,1
DA:2629,1
DA:2632,1
DA:2633,1
DA:2634,1
DA:2635,1
DA:2636,1
DA:2638,1
DA:2639,1
DA:2640,1
DA:2641,1
DA:2642,1
DA:2643,1
DA:2644,1
DA:2645,1
DA:2647,1
DA:2648,1
DA:2649,1
DA:2650,1
DA:2651,1
DA:2652,1
DA:2653,1
DA:2655,1
DA:2656,1
DA:2657,1
DA:2658,1
DA:2659,1
DA:2661,1
DA:2662,1
DA:2665,1
DA:2666,1
DA:2667,1
DA:2668,1
DA:2669,1
DA:2670,1
DA:2671,1
DA:2672,1
DA:2673,1
DA:2674,1
DA:2676,1
DA:2677,1
DA:2678,1
DA:2679,1
DA:2680,1
DA:2682,1
DA:2683,1
DA:2684,1
DA:2685,1
DA:2686,1
DA:2687,1
DA:2688,1
DA:2690,1
DA:2691,1
DA:2692,1
DA:2693,1
DA:2696,1
DA:2697,1
DA:2698,1
DA:2699,1
DA:2702,1
DA:2703,1
DA:2704,1
DA:2705,1
DA:2706,1
DA:2707,1
DA:2708,1
DA:2711,1
DA:2712,1
DA:2713,1
DA:2714,1
DA:2715,1
DA:2718,1
DA:2719,1
DA:2720,1
DA:2721,1
DA:2722,1
DA:2723,1
DA:2726,1
DA:2727,1
DA:2728,1
DA:2729,1
DA:2730,1
DA:2731,1
DA:2732,1
DA:2733,1
DA:2735,1
DA:2736,1
DA:2737,1
DA:2740,1
DA:2741,1
DA:2742,1
DA:2743,1
DA:2744,1
DA:2745,1
DA:2746,1
DA:2747,1
DA:2748,1
DA:2749,1
DA:2750,1
DA:2751,1
DA:2752,1
DA:2753,1
DA:2755,1
DA:2756,1
DA:2757,1
DA:2760,1
DA:2764,1
DA:2765,1
DA:2766,1
DA:2767,1
DA:2768,1
DA:2769,1
DA:2770,1
DA:2771,1
DA:2772,1
DA:2773,1
DA:2774,1
DA:2775,1
DA:2776,1
DA:2778,1
DA:2779,1
DA:2780,1
DA:2781,1
DA:2782,1
DA:2783,1
DA:2785,1
DA:2786,1
DA:2787,1
DA:2790,1
DA:2795,1
DA:2796,1
DA:2797,1
DA:2798,1
DA:2799,1
DA:2800,1
DA:2801,1
DA:2802,1
DA:2803,1
DA:2804,1
DA:2805,1
DA:2807,1
DA:2808,1
DA:2811,1
DA:2814,1
DA:2815,1
DA:2816,1
DA:2817,1
DA:2818,1
DA:2819,1
DA:2820,1
DA:2821,1
DA:2822,1
DA:2823,1
DA:2824,1
DA:2826,1
DA:2827,1
DA:2830,1
DA:2836,1
DA:2837,1
DA:2838,1
DA:2839,1
DA:2841,1
DA:2842,1
DA:2843,1
DA:2844,1
DA:2845,1
DA:2846,1
DA:2847,1
DA:2848,1
DA:2850,1
DA:2851,1
DA:2852,1
DA:2854,1
DA:2855,1
DA:2856,1
DA:2857,1
DA:2860,1
DA:2872,1
DA:2873,1
DA:2874,1
DA:2875,1
DA:2877,1
DA:2878,1
DA:2879,1
DA:2881,1
DA:2882,1
DA:2883,1
DA:2884,1
DA:2885,1
DA:2886,1
DA:2887,1
DA:2888,1
DA:2889,1
DA:2890,1
DA:2891,1
DA:2898,1
DA:2900,1
DA:2901,1
DA:2902,1
DA:2903,1
DA:2904,1
DA:2905,1
DA:2908,1
DA:2914,1
DA:2915,1
DA:2916,1
DA:2917,1
DA:2919,1
DA:2920,1
DA:2921,1
DA:2923,1
DA:2924,1
DA:2925,1
DA:2926,1
DA:2928,1
DA:2929,1
DA:2930,1
DA:2931,1
DA:2932,1
DA:2937,1
DA:2938,1
DA:2939,1
DA:2940,1
DA:2941,1
DA:2942,1
DA:2943,1
DA:2944,1
DA:2945,1
DA:2946,1
DA:2949,1
DA:2958,1
DA:2959,1
DA:2960,1
DA:2961,1
DA:2963,1
DA:2964,1
DA:2965,1
DA:2966,1
DA:2967,1
DA:2968,1
DA:2969,1
DA:2970,1
DA:2972,1
DA:2973,1
DA:2974,1
DA:2976,1
DA:2977,1
DA:2978,1
DA:2980,1
DA:2981,1
DA:2982,1
DA:2983,1
DA:2984,1
DA:2985,1
DA:2986,1
DA:2987,1
DA:2988,1
DA:2989,1
DA:2992,1
DA:2996,1
DA:2997,1
DA:2998,1
DA:2999,1
DA:3001,1
DA:3002,1
DA:3003,1
DA:3004,1
DA:3005,1
DA:3006,1
DA:3007,1
DA:3008,1
DA:3010,1
DA:3011,1
DA:3012,1
DA:3014,1
DA:3015,1
DA:3016,1
DA:3017,1
DA:3020,1
DA:3025,1
DA:3026,1
DA:3027,1
DA:3028,1
DA:3030,1
DA:3031,1
DA:3032,1
DA:3034,1
DA:3035,1
DA:3036,1
DA:3037,1
DA:3038,1
DA:3039,1
DA:3040,1
DA:3041,1
DA:3042,1
DA:3044,1
DA:3045,1
DA:3046,1
DA:3049,1
DA:3056,1
DA:3057,1
DA:3058,1
DA:3059,1
DA:3060,1
DA:3061,1
DA:3062,1
DA:3063,1
DA:3064,1
DA:3065,1
DA:3067,1
DA:3068,1
DA:3069,1
DA:3071,1
DA:3072,1
DA:3073,1
DA:3074,1
DA:3075,1
DA:3076,1
DA:3077,1
DA:3078,1
DA:3080,1
DA:3081,1
DA:3082,1
DA:3084,1
DA:3085,1
DA:3086,1
DA:3087,1
DA:3088,1
DA:3089,1
DA:3090,1
DA:3091,1
DA:3092,1
DA:3093,1
DA:3096,1
DA:3101,1
DA:3102,1
DA:3103,1
DA:3104,1
DA:3105,1
DA:3106,1
DA:3107,1
DA:3108,1
DA:3109,1
DA:3110,1
DA:3112,1
DA:3113,1
DA:3114,1
DA:3115,1
DA:3116,1
DA:3117,1
DA:3118,1
DA:3119,1
DA:3121,1
DA:3122,1
DA:3123,1
DA:3124,1
DA:3127,1
DA:3136,1
DA:3137,1
DA:3144,1
DA:3145,1
DA:3146,1
DA:3147,1
DA:3148,1
DA:3149,1
DA:3150,1
DA:3151,1
DA:3152,1
DA:3153,1
DA:3154,1
DA:3155,1
DA:3156,1
DA:3157,1
DA:3159,1
DA:3160,1
DA:3161,1
DA:3163,1
DA:3164,1
DA:3165,1
DA:3166,1
DA:3167,1
DA:3168,1
DA:3169,1
BRF:0
BRH:0
LF:2071
LH:1889
end_of_record
SF:/home/runner/work/mostro/mostro/src/app/bond/math.rs
FN:57,_RNvNtNtNtCsawjdjYzw0zz_7mostrod3app4bond4math18compute_node_share
FN:21,_RNvNtNtNtCsawjdjYzw0zz_7mostrod3app4bond4math19compute_bond_amount
FN:81,_RNvNtNtNtNtCsawjdjYzw0zz_7mostrod3app4bond4math5tests8cfg_with
FN:137,_RNvNtNtNtNtCsawjdjYzw0zz_7mostrod3app4bond4math5testss_21rounds_to_nearest_sat
FN:166,_RNvNtNtNtNtCsawjdjYzw0zz_7mostrod3app4bond4math5testss_23node_share_half_default
FN:118,_RNvNtNtNtNtCsawjdjYzw0zz_7mostrod3app4bond4math5testss_24zero_order_returns_floor
FN:124,_RNvNtNtNtNtCsawjdjYzw0zz_7mostrod3app4bond4math5testss_28negative_order_returns_floor
FN:178,_RNvNtNtNtNtCsawjdjYzw0zz_7mostrod3app4bond4math5testss_28node_share_one_pct_keeps_all
FN:112,_RNvNtNtNtNtCsawjdjYzw0zz_7mostrod3app4bond4math5testss_29zero_percentage_returns_floor
FN:91,_RNvNtNtNtNtCsawjdjYzw0zz_7mostrod3app4bond4math5testss_30floor_dominates_on_tiny_orders
FN:130,_RNvNtNtNtNtCsawjdjYzw0zz_7mostrod3app4bond4math5testss_30negative_floor_clamped_to_zero
FN:158,_RNvNtNtNtNtCsawjdjYzw0zz_7mostrod3app4bond4math5testss_30saturates_on_absurd_percentage
FN:199,_RNvNtNtNtNtCsawjdjYzw0zz_7mostrod3app4bond4math5testss_34node_share_clamps_out_of_range_pct
FN:184,_RNvNtNtNtNtCsawjdjYzw0zz_7mostrod3app4bond4math5testss_34node_share_floors_no_rounding_leak
FN:193,_RNvNtNtNtNtCsawjdjYzw0zz_7mostrod3app4bond4math5testss_34node_share_zero_or_negative_amount
FN:98,_RNvNtNtNtNtCsawjdjYzw0zz_7mostrod3app4bond4math5testss_36percentage_dominates_on_large_orders
FN:105,_RNvNtNtNtNtCsawjdjYzw0zz_7mostrod3app4bond4math5testss_39floor_and_percentage_equal_at_threshold
FN:172,_RNvNtNtNtNtCsawjdjYzw0zz_7mostrod3app4bond4math5testss_40node_share_zero_pct_goes_to_counterparty
FN:148,_RNvNtNtNtNtCsawjdjYzw0zz_7mostrod3app4bond4math5testss_52pct_component_that_rounds_to_zero_falls_back_to_base
FNDA:56,_RNvNtNtNtCsawjdjYzw0zz_7mostrod3app4bond4math18compute_node_share
FNDA:12,_RNvNtNtNtCsawjdjYzw0zz_7mostrod3app4bond4math19compute_bond_amount
FNDA:12,_RNvNtNtNtNtCsawjdjYzw0zz_7mostrod3app4bond4math5tests8cfg_with
FNDA:1,_RNvNtNtNtNtCsawjdjYzw0zz_7mostrod3app4bond4math5testss_21rounds_to_nearest_sat
FNDA:1,_RNvNtNtNtNtCsawjdjYzw0zz_7mostrod3app4bond4math5testss_23node_share_half_default
FNDA:1,_RNvNtNtNtNtCsawjdjYzw0zz_7mostrod3app4bond4math5testss_24zero_order_returns_floor
FNDA:1,_RNvNtNtNtNtCsawjdjYzw0zz_7mostrod3app4bond4math5testss_28negative_order_returns_floor
FNDA:1,_RNvNtNtNtNtCsawjdjYzw0zz_7mostrod3app4bond4math5testss_28node_share_one_pct_keeps_all
FNDA:1,_RNvNtNtNtNtCsawjdjYzw0zz_7mostrod3app4bond4math5testss_29zero_percentage_returns_floor
FNDA:1,_RNvNtNtNtNtCsawjdjYzw0zz_7mostrod3app4bond4math5testss_30floor_dominates_on_tiny_orders
FNDA:1,_RNvNtNtNtNtCsawjdjYzw0zz_7mostrod3app4bond4math5testss_30negative_floor_clamped_to_zero
FNDA:1,_RNvNtNtNtNtCsawjdjYzw0zz_7mostrod3app4bond4math5testss_30saturates_on_absurd_percentage
FNDA:1,_RNvNtNtNtNtCsawjdjYzw0zz_7mostrod3app4bond4math5testss_34node_share_clamps_out_of_range_pct
FNDA:1,_RNvNtNtNtNtCsawjdjYzw0zz_7mostrod3app4bond4math5testss_34node_share_floors_no_rounding_leak
FNDA:1,_RNvNtNtNtNtCsawjdjYzw0zz_7mostrod3app4bond4math5testss_34node_share_zero_or_negative_amount
FNDA:1,_RNvNtNtNtNtCsawjdjYzw0zz_7mostrod3app4bond4math5testss_36percentage_dominates_on_large_orders
FNDA:1,_RNvNtNtNtNtCsawjdjYzw0zz_7mostrod3app4bond4math5testss_39floor_and_percentage_equal_at_threshold
FNDA:1,_RNvNtNtNtNtCsawjdjYzw0zz_7mostrod3app4bond4math5testss_40node_share_zero_pct_goes_to_counterparty
FNDA:1,_RNvNtNtNtNtCsawjdjYzw0zz_7mostrod3app4bond4math5testss_52pct_component_that_rounds_to_zero_falls_back_to_base
FNF:19
FNH:19
DA:21,12
DA:22,12
DA:23,12
DA:24,3
DA:25,9
DA:29,9
DA:30,9
DA:34,9
DA:35,1
DA:36,8
DA:37,2
DA:39,6
DA:42,9
DA:43,12
DA:57,56
DA:58,56
DA:59,2
DA:60,54
DA:63,54
DA:64,54
DA:67,54
DA:68,54
DA:69,33
DA:70,21
DA:71,2
DA:73,19
DA:75,56
DA:81,12
DA:82,12
DA:83,12
DA:84,12
DA:85,12
DA:86,12
DA:87,12
DA:88,12
DA:91,1
DA:92,1
DA:94,1
DA:95,1
DA:98,1
DA:99,1
DA:101,1
DA:102,1
DA:105,1
DA:107,1
DA:108,1
DA:109,1
DA:112,1
DA:113,1
DA:114,1
DA:115,1
DA:118,1
DA:119,1
DA:120,1
DA:121,1
DA:124,1
DA:125,1
DA:126,1
DA:127,1
DA:130,1
DA:131,1
DA:133,1
DA:134,1
DA:137,1
DA:139,1
DA:140,1
DA:143,1
DA:144,1
DA:145,1
DA:148,1
DA:151,1
DA:152,1
DA:153,1
DA:154,1
DA:155,1
DA:158,1
DA:159,1
DA:162,1
DA:163,1
DA:166,1
DA:168,1
DA:169,1
DA:172,1
DA:174,1
DA:175,1
DA:178,1
DA:180,1
DA:181,1
DA:184,1
DA:187,1
DA:188,1
DA:189,1
DA:190,1
DA:193,1
DA:194,1
DA:195,1
DA:196,1
DA:199,1
DA:202,1
DA:203,1
DA:204,1
BRF:0
BRH:0
LF:101
LH:101
end_of_record
SF:/home/runner/work/mostro/mostro/src/app/bond/model.rs
FN:195,_RNvNtNtNtNtCsawjdjYzw0zz_7mostrod3app4bond5model5testss_22new_requested_defaults
FN:214,_RNvNtNtNtNtCsawjdjYzw0zz_7mostrod3app4bond5model5testss_29serialize_omits_secret_fields
FN:153,_RNvMNtNtNtCsawjdjYzw0zz_7mostrod3app4bond5modelNtB2_4Bond13new_requested
FNDA:1,_RNvNtNtNtNtCsawjdjYzw0zz_7mostrod3app4bond5model5testss_22new_requested_defaults
FNDA:1,_RNvNtNtNtNtCsawjdjYzw0zz_7mostrod3app4bond5model5testss_29serialize_omits_secret_fields
FNDA:238,_RNvMNtNtNtCsawjdjYzw0zz_7mostrod3app4bond5modelNtB2_4Bond13new_requested
FNF:3
FNH:3
DA:153,238
DA:154,238
DA:155,238
DA:156,238
DA:157,238
DA:158,238
DA:159,238
DA:160,238
DA:161,238
DA:162,238
DA:163,238
DA:164,238
DA:165,238
DA:166,238
DA:167,238
DA:168,238
DA:169,238
DA:170,238
DA:171,238
DA:172,238
DA:173,238
DA:174,238
DA:175,238
DA:176,238
DA:177,238
DA:178,238
DA:179,238
DA:180,238
DA:181,238
DA:182,238
DA:183,238
DA:184,238
DA:185,238
DA:186,238
DA:187,238
DA:195,1
DA:196,1
DA:197,1
DA:198,1
DA:199,1
DA:200,1
DA:201,1
DA:202,1
DA:203,1
DA:204,1
DA:205,1
DA:206,1
DA:207,1
DA:208,1
DA:209,1
DA:210,1
DA:211,1
DA:214,1
DA:219,1
DA:220,1
DA:221,1
DA:222,1
DA:223,1
DA:225,1
DA:226,1
DA:227,1
DA:228,1
DA:229,1
DA:232,1
DA:233,1
DA:236,1
DA:237,1
DA:240,1
DA:241,1
DA:245,1
DA:246,1
DA:247,1
BRF:0
BRH:0
LF:72
LH:72
end_of_record
SF:/home/runner/work/mostro/mostro/src/app/bond/payout.rs
FN:1577,_RNCNCNCNvNtNtNtCsawjdjYzw0zz_7mostrod3app4bond6payout35find_recoverable_bond_for_recipient0s1_00Bd_
FN:308,_RNCNCNvNtNtNtCsawjdjYzw0zz_7mostrod3app4bond6payout12forfeit_bond00Bb_
FN:649,_RNCNCNvNtNtNtCsawjdjYzw0zz_7mostrod3app4bond6payout16pay_counterparty00Bb_
FN:206,_RNCNCNvNtNtNtCsawjdjYzw0zz_7mostrod3app4bond6payout16process_one_bond00Bb_
FN:211,_RNCNCNvNtNtNtCsawjdjYzw0zz_7mostrod3app4bond6payout16process_one_bond0s0_0Bb_
FN:218,_RNCNCNvNtNtNtCsawjdjYzw0zz_7mostrod3app4bond6payout16process_one_bond0s1_0Bb_
FN:209,_RNCNCNvNtNtNtCsawjdjYzw0zz_7mostrod3app4bond6payout16process_one_bond0s_0Bb_
FN:338,_RNCNCNvNtNtNtCsawjdjYzw0zz_7mostrod3app4bond6payout18finalize_node_only00Bb_
FN:804,_RNCNCNvNtNtNtCsawjdjYzw0zz_7mostrod3app4bond6payout19slash_after_success00Bb_
FN:1422,_RNCNCNvNtNtNtCsawjdjYzw0zz_7mostrod3app4bond6payout20apply_payout_invoice00Bb_
FN:1484,_RNCNCNvNtNtNtCsawjdjYzw0zz_7mostrod3app4bond6payout20apply_payout_invoice0s_0Bb_
FN:371,_RNCNCNvNtNtNtCsawjdjYzw0zz_7mostrod3app4bond6payout22request_payout_invoice00Bb_
FN:388,_RNCNCNvNtNtNtCsawjdjYzw0zz_7mostrod3app4bond6payout22request_payout_invoice0s0_0Bb_
FN:413,_RNCNCNvNtNtNtCsawjdjYzw0zz_7mostrod3app4bond6payout22request_payout_invoice0s1_0Bb_
FN:451,_RNCNCNvNtNtNtCsawjdjYzw0zz_7mostrod3app4bond6payout22request_payout_invoice0s2_0Bb_
FN:387,_RNCNCNvNtNtNtCsawjdjYzw0zz_7mostrod3app4bond6payout22request_payout_invoice0s_0Bb_
FN:1298,_RNCNCNvNtNtNtCsawjdjYzw0zz_7mostrod3app4bond6payout23add_bond_invoice_action00Bb_
FN:1346,_RNCNCNvNtNtNtCsawjdjYzw0zz_7mostrod3app4bond6payout23add_bond_invoice_action0s0_0Bb_
FN:1299,_RNCNCNvNtNtNtCsawjdjYzw0zz_7mostrod3app4bond6payout23add_bond_invoice_action0s_0Bb_
FN:1192,_RNCNCNvNtNtNtCsawjdjYzw0zz_7mostrod3app4bond6payout23notify_payout_completed00Bb_
FN:898,_RNCNCNvNtNtNtCsawjdjYzw0zz_7mostrod3app4bond6payout23on_send_payment_failure00Bb_
FN:969,_RNCNCNvNtNtNtCsawjdjYzw0zz_7mostrod3app4bond6payout23on_send_payment_failure0s0_0Bb_
FN:998,_RNCNCNvNtNtNtCsawjdjYzw0zz_7mostrod3app4bond6payout23on_send_payment_failure0s1_0Bb_
FN:940,_RNCNCNvNtNtNtCsawjdjYzw0zz_7mostrod3app4bond6payout23on_send_payment_failure0s_0Bb_
FN:1534,_RNCNCNvNtNtNtCsawjdjYzw0zz_7mostrod3app4bond6payout35find_recoverable_bond_for_recipient00Bb_
FN:1556,_RNCNCNvNtNtNtCsawjdjYzw0zz_7mostrod3app4bond6payout35find_recoverable_bond_for_recipient0s0_0Bb_
FN:1575,_RNCNCNvNtNtNtCsawjdjYzw0zz_7mostrod3app4bond6payout35find_recoverable_bond_for_recipient0s1_0Bb_
FN:1542,_RNCNCNvNtNtNtCsawjdjYzw0zz_7mostrod3app4bond6payout35find_recoverable_bond_for_recipient0s_0Bb_
FN:299,_RNCNvNtNtNtCsawjdjYzw0zz_7mostrod3app4bond6payout12forfeit_bond0B9_
FN:544,_RNCNvNtNtNtCsawjdjYzw0zz_7mostrod3app4bond6payout16pay_counterparty0B9_
FN:193,_RNCNvNtNtNtCsawjdjYzw0zz_7mostrod3app4bond6payout16process_one_bond0B9_
FN:1036,_RNCNvNtNtNtCsawjdjYzw0zz_7mostrod3app4bond6payout17resolve_recipient0B9_
FN:1107,_RNCNvNtNtNtCsawjdjYzw0zz_7mostrod3app4bond6payout18enqueue_payout_ack0B9_
FN:331,_RNCNvNtNtNtCsawjdjYzw0zz_7mostrod3app4bond6payout18finalize_node_only0B9_
FN:757,_RNCNvNtNtNtCsawjdjYzw0zz_7mostrod3app4bond6payout19slash_after_success0B9_
FN:1404,_RNCNvNtNtNtCsawjdjYzw0zz_7mostrod3app4bond6payout20apply_payout_invoice0B9_
FN:99,_RNCNvNtNtNtCsawjdjYzw0zz_7mostrod3app4bond6payout21run_bond_payout_cycle0B9_
FN:361,_RNCNvNtNtNtCsawjdjYzw0zz_7mostrod3app4bond6payout22request_payout_invoice0B9_
FN:1279,_RNCNvNtNtNtCsawjdjYzw0zz_7mostrod3app4bond6payout23add_bond_invoice_action0B9_
FN:274,_RNCNvNtNtNtCsawjdjYzw0zz_7mostrod3app4bond6payout23counterparty_share_sats0B9_
FN:1138,_RNCNvNtNtNtCsawjdjYzw0zz_7mostrod3app4bond6payout23notify_invoice_received0B9_
FN:1169,_RNCNvNtNtNtCsawjdjYzw0zz_7mostrod3app4bond6payout23notify_payout_completed0B9_
FN:887,_RNCNvNtNtNtCsawjdjYzw0zz_7mostrod3app4bond6payout23on_send_payment_failure0B9_
FN:1057,_RNCNvNtNtNtCsawjdjYzw0zz_7mostrod3app4bond6payout24resolve_payout_recipient0B9_
FN:1523,_RNCNvNtNtNtCsawjdjYzw0zz_7mostrod3app4bond6payout35find_recoverable_bond_for_recipient0B9_
FN:172,_RNCNvNtNtNtCsawjdjYzw0zz_7mostrod3app4bond6payout37child_payout_blocked_by_locked_parent0B9_
FN:299,_RNvNtNtNtCsawjdjYzw0zz_7mostrod3app4bond6payout12forfeit_bond
FN:537,_RNvNtNtNtCsawjdjYzw0zz_7mostrod3app4bond6payout16pay_counterparty
FN:189,_RNvNtNtNtCsawjdjYzw0zz_7mostrod3app4bond6payout16process_one_bond
FN:1021,_RNvNtNtNtCsawjdjYzw0zz_7mostrod3app4bond6payout17resolve_recipient
FN:1102,_RNvNtNtNtCsawjdjYzw0zz_7mostrod3app4bond6payout18enqueue_payout_ack
FN:331,_RNvNtNtNtCsawjdjYzw0zz_7mostrod3app4bond6payout18finalize_node_only
FN:753,_RNvNtNtNtCsawjdjYzw0zz_7mostrod3app4bond6payout19slash_after_success
FN:1398,_RNvNtNtNtCsawjdjYzw0zz_7mostrod3app4bond6payout20apply_payout_invoice
FN:99,_RNvNtNtNtCsawjdjYzw0zz_7mostrod3app4bond6payout21run_bond_payout_cycle
FN:357,_RNvNtNtNtCsawjdjYzw0zz_7mostrod3app4bond6payout22request_payout_invoice
FN:1274,_RNvNtNtNtCsawjdjYzw0zz_7mostrod3app4bond6payout23add_bond_invoice_action
FN:273,_RNvNtNtNtCsawjdjYzw0zz_7mostrod3app4bond6payout23counterparty_share_sats
FN:1133,_RNvNtNtNtCsawjdjYzw0zz_7mostrod3app4bond6payout23notify_invoice_received
FN:1169,_RNvNtNtNtCsawjdjYzw0zz_7mostrod3app4bond6payout23notify_payout_completed
FN:880,_RNvNtNtNtCsawjdjYzw0zz_7mostrod3app4bond6payout23on_send_payment_failure
FN:1067,_RNvNtNtNtCsawjdjYzw0zz_7mostrod3app4bond6payout24build_payout_small_order
FN:1050,_RNvNtNtNtCsawjdjYzw0zz_7mostrod3app4bond6payout24resolve_payout_recipient
FN:1518,_RNvNtNtNtCsawjdjYzw0zz_7mostrod3app4bond6payout35find_recoverable_bond_for_recipient
FN:169,_RNvNtNtNtCsawjdjYzw0zz_7mostrod3app4bond6payout37child_payout_blocked_by_locked_parent
FN:1610,_RNCNCNCNvNtNtNtNtCsawjdjYzw0zz_7mostrod3app4bond6payout5tests10setup_pool000Bf_
FN:1634,_RNCNCNCNvNtNtNtNtCsawjdjYzw0zz_7mostrod3app4bond6payout5tests10setup_pool0s_00Bf_
FN:1610,_RNCNCNvNtNtNtNtCsawjdjYzw0zz_7mostrod3app4bond6payout5tests10setup_pool00Bd_
FN:1634,_RNCNCNvNtNtNtNtCsawjdjYzw0zz_7mostrod3app4bond6payout5tests10setup_pool0s_0Bd_
FN:2916,_RNCNCNvNtNtNtNtCsawjdjYzw0zz_7mostrod3app4bond6payout5tests14ack_recipients00Bd_
FN:2920,_RNCNCNvNtNtNtNtCsawjdjYzw0zz_7mostrod3app4bond6payout5tests14ack_recipients0s_0Bd_
FN:1859,_RNCNCNvNtNtNtNtCsawjdjYzw0zz_7mostrod3app4bond6payout5tests27count_add_bond_invoice_msgs00Bd_
FN:1893,_RNCNCNvNtNtNtNtCsawjdjYzw0zz_7mostrod3app4bond6payout5testss_57request_payout_invoice_persists_before_enqueue_happy_path00Bd_
FN:1934,_RNCNCNvNtNtNtNtCsawjdjYzw0zz_7mostrod3app4bond6payout5testss_60request_payout_invoice_proceeds_after_cadence_window_elapsed00Bd_
FN:1595,_RNCNvNtNtNtNtCsawjdjYzw0zz_7mostrod3app4bond6payout5tests10setup_pool0Bb_
FN:1651,_RNCNvNtNtNtNtCsawjdjYzw0zz_7mostrod3app4bond6payout5tests12insert_order0Bb_
FN:2909,_RNCNvNtNtNtNtCsawjdjYzw0zz_7mostrod3app4bond6payout5tests14ack_recipients0Bb_
FN:3801,_RNCNvNtNtNtNtCsawjdjYzw0zz_7mostrod3app4bond6payout5tests15add_invoice_msg0Bb_
FN:1683,_RNCNvNtNtNtNtCsawjdjYzw0zz_7mostrod3app4bond6payout5tests19pending_payout_bond0Bb_
FN:3100,_RNCNvNtNtNtNtCsawjdjYzw0zz_7mostrod3app4bond6payout5tests19signed_test_invoice0Bb_
FN:1852,_RNCNvNtNtNtNtCsawjdjYzw0zz_7mostrod3app4bond6payout5tests27count_add_bond_invoice_msgs0Bb_
FN:3064,_RNCNvNtNtNtNtCsawjdjYzw0zz_7mostrod3app4bond6payout5tests8dead_lnd0Bb_
FN:2970,_RNCNvNtNtNtNtCsawjdjYzw0zz_7mostrod3app4bond6payout5testss_35slash_after_success_notifies_winner0Bb_
FN:2925,_RNCNvNtNtNtNtCsawjdjYzw0zz_7mostrod3app4bond6payout5testss_38notify_invoice_received_acks_submitter0Bb_
FN:3146,_RNCNvNtNtNtNtCsawjdjYzw0zz_7mostrod3app4bond6payout5testss_38run_cycle_survives_enumeration_failure0Bb_
FN:3859,_RNCNvNtNtNtNtCsawjdjYzw0zz_7mostrod3app4bond6payout5testss_39add_bond_invoice_rejects_node_only_bond0Bb_
FN:1774,_RNCNvNtNtNtNtCsawjdjYzw0zz_7mostrod3app4bond6payout5testss_40child_payout_blocked_while_parent_locked0Bb_
FN:3203,_RNCNvNtNtNtNtCsawjdjYzw0zz_7mostrod3app4bond6payout5testss_40process_one_bond_skips_blocked_child_row0Bb_
FN:2706,_RNCNvNtNtNtNtCsawjdjYzw0zz_7mostrod3app4bond6payout5testss_41apply_payout_invoice_rejects_other_states0Bb_
FN:3005,_RNCNvNtNtNtNtCsawjdjYzw0zz_7mostrod3app4bond6payout5testss_41finalize_node_only_does_not_notify_winner0Bb_
FN:2297,_RNCNvNtNtNtNtCsawjdjYzw0zz_7mostrod3app4bond6payout5testss_41finalize_node_only_transitions_to_slashed0Bb_
FN:2948,_RNCNvNtNtNtNtCsawjdjYzw0zz_7mostrod3app4bond6payout5testss_41notify_payout_completed_acks_counterparty0Bb_
FN:3121,_RNCNvNtNtNtNtCsawjdjYzw0zz_7mostrod3app4bond6payout5testss_42child_blocked_when_parent_bond_row_missing0Bb_
FN:3707,_RNCNvNtNtNtNtCsawjdjYzw0zz_7mostrod3app4bond6payout5testss_42notify_helpers_skip_on_order_load_db_error0Bb_
FN:3684,_RNCNvNtNtNtNtCsawjdjYzw0zz_7mostrod3app4bond6payout5testss_42notify_helpers_skip_when_order_row_missing0Bb_
FN:3138,_RNCNvNtNtNtNtCsawjdjYzw0zz_7mostrod3app4bond6payout5testss_42run_cycle_no_pending_bonds_is_a_cheap_noop0Bb_
FN:3888,_RNCNvNtNtNtNtCsawjdjYzw0zz_7mostrod3app4bond6payout5testss_43add_bond_invoice_rejects_undecodable_bolt110Bb_
FN:3231,_RNCNvNtNtNtNtCsawjdjYzw0zz_7mostrod3app4bond6payout5testss_44process_one_bond_forfeits_after_claim_window0Bb_
FN:3312,_RNCNvNtNtNtNtCsawjdjYzw0zz_7mostrod3app4bond6payout5testss_44request_invoice_skips_when_order_row_missing0Bb_
FN:3915,_RNCNvNtNtNtNtCsawjdjYzw0zz_7mostrod3app4bond6payout5testss_45add_bond_invoice_happy_path_persists_and_acks0Bb_
FN:1988,_RNCNvNtNtNtNtCsawjdjYzw0zz_7mostrod3app4bond6payout5testss_45forfeit_bond_transitions_pending_to_forfeited0Bb_
FN:3616,_RNCNvNtNtNtNtCsawjdjYzw0zz_7mostrod3app4bond6payout5testss_45send_failure_re_arm_cas_miss_leaves_row_as_is0Bb_
FN:3405,_RNCNvNtNtNtNtCsawjdjYzw0zz_7mostrod3app4bond6payout5testss_46request_invoice_errors_when_slashed_at_missing0Bb_
FN:1813,_RNCNvNtNtNtNtCsawjdjYzw0zz_7mostrod3app4bond6payout5testss_46request_payout_invoice_respects_cadence_window0Bb_
FN:3159,_RNCNvNtNtNtNtCsawjdjYzw0zz_7mostrod3app4bond6payout5testss_46run_cycle_processes_rows_and_warns_on_bad_ones0Bb_
FN:2625,_RNCNvNtNtNtNtCsawjdjYzw0zz_7mostrod3app4bond6payout5testss_48apply_payout_invoice_resurrects_after_re_failure0Bb_
FN:3667,_RNCNvNtNtNtNtCsawjdjYzw0zz_7mostrod3app4bond6payout5testss_48enqueue_payout_ack_skips_unbuildable_small_order0Bb_
FN:2327,_RNCNvNtNtNtNtCsawjdjYzw0zz_7mostrod3app4bond6payout5testss_48finalize_node_only_cas_miss_leaves_row_untouched0Bb_
FN:2042,_RNCNvNtNtNtNtCsawjdjYzw0zz_7mostrod3app4bond6payout5testss_48send_payment_failure_past_window_flips_to_failed0Bb_
FN:2221,_RNCNvNtNtNtNtCsawjdjYzw0zz_7mostrod3app4bond6payout5testss_48send_payment_indeterminate_failure_keeps_invoice0Bb_
FN:3842,_RNCNvNtNtNtNtCsawjdjYzw0zz_7mostrod3app4bond6payout5testss_49add_bond_invoice_rejects_when_no_recoverable_bond0Bb_
FN:3369,_RNCNvNtNtNtNtCsawjdjYzw0zz_7mostrod3app4bond6payout5testss_49request_invoice_skips_when_recipient_unresolvable0Bb_
FN:3348,_RNCNvNtNtNtNtCsawjdjYzw0zz_7mostrod3app4bond6payout5testss_50request_invoice_errors_on_unparseable_slash_reason0Bb_
FN:2844,_RNCNvNtNtNtNtCsawjdjYzw0zz_7mostrod3app4bond6payout5testss_50slash_after_success_transitions_pending_to_slashed0Bb_
FN:2751,_RNCNvNtNtNtNtCsawjdjYzw0zz_7mostrod3app4bond6payout5testss_51apply_payout_invoice_rejects_unparseable_bond_state0Bb_
FN:2010,_RNCNvNtNtNtNtCsawjdjYzw0zz_7mostrod3app4bond6payout5testss_51forfeit_bond_skips_when_invoice_landed_concurrently0Bb_
FN:2122,_RNCNvNtNtNtNtCsawjdjYzw0zz_7mostrod3app4bond6payout5testss_51send_payment_failure_within_window_reprompts_winner0Bb_
FN:2435,_RNCNvNtNtNtNtCsawjdjYzw0zz_7mostrod3app4bond6payout5testss_52apply_payout_invoice_resurrects_failed_within_window0Bb_
FN:3816,_RNCNvNtNtNtNtCsawjdjYzw0zz_7mostrod3app4bond6payout5testss_53add_bond_invoice_rejects_missing_order_id_and_invoice0Bb_
FN:3958,_RNCNvNtNtNtNtCsawjdjYzw0zz_7mostrod3app4bond6payout5testss_53add_bond_invoice_resurrects_failed_bond_within_window0Bb_
FN:2480,_RNCNvNtNtNtNtCsawjdjYzw0zz_7mostrod3app4bond6payout5testss_53apply_payout_invoice_rejects_failed_past_claim_window0Bb_
FN:3252,_RNCNvNtNtNtNtCsawjdjYzw0zz_7mostrod3app4bond6payout5testss_53process_one_bond_requests_invoice_when_none_submitted0Bb_
FN:2547,_RNCNvNtNtNtNtCsawjdjYzw0zz_7mostrod3app4bond6payout5testss_54apply_payout_invoice_rejects_failed_without_slashed_at0Bb_
FN:3582,_RNCNvNtNtNtNtCsawjdjYzw0zz_7mostrod3app4bond6payout5testss_54slash_after_success_exhausts_cas_retries_on_db_failure0Bb_
FN:2871,_RNCNvNtNtNtNtCsawjdjYzw0zz_7mostrod3app4bond6payout5testss_54slash_after_success_is_idempotent_when_already_slashed0Bb_
FN:4003,_RNCNvNtNtNtNtCsawjdjYzw0zz_7mostrod3app4bond6payout5testss_55add_bond_invoice_rejects_when_invoice_already_persisted0Bb_
FN:3276,_RNCNvNtNtNtNtCsawjdjYzw0zz_7mostrod3app4bond6payout5testss_55process_one_bond_pays_counterparty_when_invoice_present0Bb_
FN:3538,_RNCNvNtNtNtNtCsawjdjYzw0zz_7mostrod3app4bond6payout5testss_56pay_counterparty_skips_send_when_row_left_pending_payout0Bb_
FN:3418,_RNCNvNtNtNtNtCsawjdjYzw0zz_7mostrod3app4bond6payout5testss_56pay_counterparty_undecodable_invoice_is_terminal_failure0Bb_
FN:4047,_RNCNvNtNtNtNtCsawjdjYzw0zz_7mostrod3app4bond6payout5testss_57find_recoverable_bond_returns_none_when_order_row_missing0Bb_
FN:1867,_RNCNvNtNtNtNtCsawjdjYzw0zz_7mostrod3app4bond6payout5testss_57request_payout_invoice_persists_before_enqueue_happy_path0Bb_
FN:3741,_RNCNvNtNtNtNtCsawjdjYzw0zz_7mostrod3app4bond6payout5testss_58notify_payout_completed_skips_bad_reason_and_bad_recipient0Bb_
FN:2576,_RNCNvNtNtNtNtCsawjdjYzw0zz_7mostrod3app4bond6payout5testss_59apply_payout_invoice_concurrent_resurrections_only_one_wins0Bb_
FN:4128,_RNCNvNtNtNtNtCsawjdjYzw0zz_7mostrod3app4bond6payout5testss_59find_recoverable_bond_disambiguates_multiple_debts_by_share0Bb_
FN:2372,_RNCNvNtNtNtNtCsawjdjYzw0zz_7mostrod3app4bond6payout5testss_60apply_payout_invoice_persists_on_pending_payout_null_invoice0Bb_
FN:2519,_RNCNvNtNtNtNtCsawjdjYzw0zz_7mostrod3app4bond6payout5testss_60apply_payout_invoice_rejects_failed_at_exact_window_boundary0Bb_
FN:2770,_RNCNvNtNtNtNtCsawjdjYzw0zz_7mostrod3app4bond6payout5testss_60apply_payout_invoice_resurrection_clears_payout_payment_hash0Bb_
FN:1900,_RNCNvNtNtNtNtCsawjdjYzw0zz_7mostrod3app4bond6payout5testss_60request_payout_invoice_proceeds_after_cadence_window_elapsed0Bb_
FN:4077,_RNCNvNtNtNtNtCsawjdjYzw0zz_7mostrod3app4bond6payout5testss_61find_recoverable_bond_skips_bad_reason_and_recipient_mismatch0Bb_
FN:3500,_RNCNvNtNtNtNtCsawjdjYzw0zz_7mostrod3app4bond6payout5testss_63pay_counterparty_reconcile_lookup_failure_falls_through_to_send0Bb_
FN:2818,_RNCNvNtNtNtNtCsawjdjYzw0zz_7mostrod3app4bond6payout5testss_66apply_payout_invoice_persists_leaves_payout_payment_hash_untouched0Bb_
FN:3456,_RNCNvNtNtNtNtCsawjdjYzw0zz_7mostrod3app4bond6payout5testss_66pay_counterparty_fresh_send_persists_hash_then_fails_indeterminate0Bb_
FN:2400,_RNCNvNtNtNtNtCsawjdjYzw0zz_7mostrod3app4bond6payout5testss_68apply_payout_invoice_rejects_pending_payout_when_invoice_already_set0Bb_
FN:1939,_RNCNvNtNtNtNtCsawjdjYzw0zz_7mostrod3app4bond6payout5testss_72request_payout_invoice_skips_enqueue_when_state_moved_off_pending_payout0Bb_
FN:1595,_RNvNtNtNtNtCsawjdjYzw0zz_7mostrod3app4bond6payout5tests10setup_pool
FN:1651,_RNvNtNtNtNtCsawjdjYzw0zz_7mostrod3app4bond6payout5tests12insert_order
FN:2909,_RNvNtNtNtNtCsawjdjYzw0zz_7mostrod3app4bond6payout5tests14ack_recipients
FN:3805,_RNvNtNtNtNtCsawjdjYzw0zz_7mostrod3app4bond6payout5tests14unwrapped_from
FN:3795,_RNvNtNtNtNtCsawjdjYzw0zz_7mostrod3app4bond6payout5tests15add_invoice_msg
FN:3036,_RNvNtNtNtNtCsawjdjYzw0zz_7mostrod3app4bond6payout5tests18init_test_settings
FN:1669,_RNvNtNtNtNtCsawjdjYzw0zz_7mostrod3app4bond6payout5tests19pending_payout_bond
FN:3084,_RNvNtNtNtNtCsawjdjYzw0zz_7mostrod3app4bond6payout5tests19signed_test_invoice
FN:1852,_RNvNtNtNtNtCsawjdjYzw0zz_7mostrod3app4bond6payout5tests27count_add_bond_invoice_msgs
FN:3064,_RNvNtNtNtNtCsawjdjYzw0zz_7mostrod3app4bond6payout5tests8dead_lnd
FN:1647,_RNvNtNtNtNtCsawjdjYzw0zz_7mostrod3app4bond6payout5tests8maker_pk
FN:1644,_RNvNtNtNtNtCsawjdjYzw0zz_7mostrod3app4bond6payout5tests8taker_pk
FN:3788,_RNvNtNtNtNtCsawjdjYzw0zz_7mostrod3app4bond6payout5tests9build_ctx
FN:2970,_RNvNtNtNtNtCsawjdjYzw0zz_7mostrod3app4bond6payout5testss_35slash_after_success_notifies_winner
FN:2925,_RNvNtNtNtNtCsawjdjYzw0zz_7mostrod3app4bond6payout5testss_38notify_invoice_received_acks_submitter
FN:3146,_RNvNtNtNtNtCsawjdjYzw0zz_7mostrod3app4bond6payout5testss_38run_cycle_survives_enumeration_failure
FN:3859,_RNvNtNtNtNtCsawjdjYzw0zz_7mostrod3app4bond6payout5testss_39add_bond_invoice_rejects_node_only_bond
FN:1774,_RNvNtNtNtNtCsawjdjYzw0zz_7mostrod3app4bond6payout5testss_40child_payout_blocked_while_parent_locked
FN:3203,_RNvNtNtNtNtCsawjdjYzw0zz_7mostrod3app4bond6payout5testss_40process_one_bond_skips_blocked_child_row
FN:2706,_RNvNtNtNtNtCsawjdjYzw0zz_7mostrod3app4bond6payout5testss_41apply_payout_invoice_rejects_other_states
FN:3005,_RNvNtNtNtNtCsawjdjYzw0zz_7mostrod3app4bond6payout5testss_41finalize_node_only_does_not_notify_winner
FN:2297,_RNvNtNtNtNtCsawjdjYzw0zz_7mostrod3app4bond6payout5testss_41finalize_node_only_transitions_to_slashed
FN:2948,_RNvNtNtNtNtCsawjdjYzw0zz_7mostrod3app4bond6payout5testss_41notify_payout_completed_acks_counterparty
FN:3121,_RNvNtNtNtNtCsawjdjYzw0zz_7mostrod3app4bond6payout5testss_42child_blocked_when_parent_bond_row_missing
FN:3707,_RNvNtNtNtNtCsawjdjYzw0zz_7mostrod3app4bond6payout5testss_42notify_helpers_skip_on_order_load_db_error
FN:3684,_RNvNtNtNtNtCsawjdjYzw0zz_7mostrod3app4bond6payout5testss_42notify_helpers_skip_when_order_row_missing
FN:3138,_RNvNtNtNtNtCsawjdjYzw0zz_7mostrod3app4bond6payout5testss_42run_cycle_no_pending_bonds_is_a_cheap_noop
FN:3888,_RNvNtNtNtNtCsawjdjYzw0zz_7mostrod3app4bond6payout5testss_43add_bond_invoice_rejects_undecodable_bolt11
FN:3231,_RNvNtNtNtNtCsawjdjYzw0zz_7mostrod3app4bond6payout5testss_44process_one_bond_forfeits_after_claim_window
FN:3312,_RNvNtNtNtNtCsawjdjYzw0zz_7mostrod3app4bond6payout5testss_44request_invoice_skips_when_order_row_missing
FN:1717,_RNvNtNtNtNtCsawjdjYzw0zz_7mostrod3app4bond6payout5testss_44resolve_recipient_missing_buyer_returns_none
FN:3915,_RNvNtNtNtNtCsawjdjYzw0zz_7mostrod3app4bond6payout5testss_45add_bond_invoice_happy_path_persists_and_acks
FN:1988,_RNvNtNtNtNtCsawjdjYzw0zz_7mostrod3app4bond6payout5testss_45forfeit_bond_transitions_pending_to_forfeited
FN:3616,_RNvNtNtNtNtCsawjdjYzw0zz_7mostrod3app4bond6payout5testss_45send_failure_re_arm_cas_miss_leaves_row_as_is
FN:3405,_RNvNtNtNtNtCsawjdjYzw0zz_7mostrod3app4bond6payout5testss_46request_invoice_errors_when_slashed_at_missing
FN:1813,_RNvNtNtNtNtCsawjdjYzw0zz_7mostrod3app4bond6payout5testss_46request_payout_invoice_respects_cadence_window
FN:3159,_RNvNtNtNtNtCsawjdjYzw0zz_7mostrod3app4bond6payout5testss_46run_cycle_processes_rows_and_warns_on_bad_ones
FN:2625,_RNvNtNtNtNtCsawjdjYzw0zz_7mostrod3app4bond6payout5testss_48apply_payout_invoice_resurrects_after_re_failure
FN:3667,_RNvNtNtNtNtCsawjdjYzw0zz_7mostrod3app4bond6payout5testss_48enqueue_payout_ack_skips_unbuildable_small_order
FN:2327,_RNvNtNtNtNtCsawjdjYzw0zz_7mostrod3app4bond6payout5testss_48finalize_node_only_cas_miss_leaves_row_untouched
FN:1704,_RNvNtNtNtNtCsawjdjYzw0zz_7mostrod3app4bond6payout5testss_48resolve_recipient_buy_order_taker_seller_slashed
FN:1689,_RNvNtNtNtNtCsawjdjYzw0zz_7mostrod3app4bond6payout5testss_48resolve_recipient_sell_order_taker_buyer_slashed
FN:2042,_RNvNtNtNtNtCsawjdjYzw0zz_7mostrod3app4bond6payout5testss_48send_payment_failure_past_window_flips_to_failed
FN:2221,_RNvNtNtNtNtCsawjdjYzw0zz_7mostrod3app4bond6payout5testss_48send_payment_indeterminate_failure_keeps_invoice
FN:3842,_RNvNtNtNtNtCsawjdjYzw0zz_7mostrod3app4bond6payout5testss_49add_bond_invoice_rejects_when_no_recoverable_bond
FN:3369,_RNvNtNtNtNtCsawjdjYzw0zz_7mostrod3app4bond6payout5testss_49request_invoice_skips_when_recipient_unresolvable
FN:3348,_RNvNtNtNtNtCsawjdjYzw0zz_7mostrod3app4bond6payout5testss_50request_invoice_errors_on_unparseable_slash_reason
FN:1730,_RNvNtNtNtNtCsawjdjYzw0zz_7mostrod3app4bond6payout5testss_50resolve_payout_recipient_refund_row_pays_the_maker
FN:2844,_RNvNtNtNtNtCsawjdjYzw0zz_7mostrod3app4bond6payout5testss_50slash_after_success_transitions_pending_to_slashed
FN:2751,_RNvNtNtNtNtCsawjdjYzw0zz_7mostrod3app4bond6payout5testss_51apply_payout_invoice_rejects_unparseable_bond_state
FN:2010,_RNvNtNtNtNtCsawjdjYzw0zz_7mostrod3app4bond6payout5testss_51forfeit_bond_skips_when_invoice_landed_concurrently
FN:2122,_RNvNtNtNtNtCsawjdjYzw0zz_7mostrod3app4bond6payout5testss_51send_payment_failure_within_window_reprompts_winner
FN:2435,_RNvNtNtNtNtCsawjdjYzw0zz_7mostrod3app4bond6payout5testss_52apply_payout_invoice_resurrects_failed_within_window
FN:1752,_RNvNtNtNtNtCsawjdjYzw0zz_7mostrod3app4bond6payout5testss_52resolve_payout_recipient_slice_slash_pays_the_winner
FN:3816,_RNvNtNtNtNtCsawjdjYzw0zz_7mostrod3app4bond6payout5testss_53add_bond_invoice_rejects_missing_order_id_and_invoice
FN:3958,_RNvNtNtNtNtCsawjdjYzw0zz_7mostrod3app4bond6payout5testss_53add_bond_invoice_resurrects_failed_bond_within_window
FN:2480,_RNvNtNtNtNtCsawjdjYzw0zz_7mostrod3app4bond6payout5testss_53apply_payout_invoice_rejects_failed_past_claim_window
FN:3252,_RNvNtNtNtNtCsawjdjYzw0zz_7mostrod3app4bond6payout5testss_53process_one_bond_requests_invoice_when_none_submitted
FN:2547,_RNvNtNtNtNtCsawjdjYzw0zz_7mostrod3app4bond6payout5testss_54apply_payout_invoice_rejects_failed_without_slashed_at
FN:3113,_RNvNtNtNtNtCsawjdjYzw0zz_7mostrod3app4bond6payout5testss_54counterparty_share_out_of_range_node_share_is_rejected
FN:3582,_RNvNtNtNtNtCsawjdjYzw0zz_7mostrod3app4bond6payout5testss_54slash_after_success_exhausts_cas_retries_on_db_failure
FN:2871,_RNvNtNtNtNtCsawjdjYzw0zz_7mostrod3app4bond6payout5testss_54slash_after_success_is_idempotent_when_already_slashed
FN:4003,_RNvNtNtNtNtCsawjdjYzw0zz_7mostrod3app4bond6payout5testss_55add_bond_invoice_rejects_when_invoice_already_persisted
FN:3276,_RNvNtNtNtNtCsawjdjYzw0zz_7mostrod3app4bond6payout5testss_55process_one_bond_pays_counterparty_when_invoice_present
FN:3538,_RNvNtNtNtNtCsawjdjYzw0zz_7mostrod3app4bond6payout5testss_56pay_counterparty_skips_send_when_row_left_pending_payout
FN:3418,_RNvNtNtNtNtCsawjdjYzw0zz_7mostrod3app4bond6payout5testss_56pay_counterparty_undecodable_invoice_is_terminal_failure
FN:4047,_RNvNtNtNtNtCsawjdjYzw0zz_7mostrod3app4bond6payout5testss_57find_recoverable_bond_returns_none_when_order_row_missing
FN:1867,_RNvNtNtNtNtCsawjdjYzw0zz_7mostrod3app4bond6payout5testss_57request_payout_invoice_persists_before_enqueue_happy_path
FN:3741,_RNvNtNtNtNtCsawjdjYzw0zz_7mostrod3app4bond6payout5testss_58notify_payout_completed_skips_bad_reason_and_bad_recipient
FN:2576,_RNvNtNtNtNtCsawjdjYzw0zz_7mostrod3app4bond6payout5testss_59apply_payout_invoice_concurrent_resurrections_only_one_wins
FN:4128,_RNvNtNtNtNtCsawjdjYzw0zz_7mostrod3app4bond6payout5testss_59find_recoverable_bond_disambiguates_multiple_debts_by_share
FN:2372,_RNvNtNtNtNtCsawjdjYzw0zz_7mostrod3app4bond6payout5testss_60apply_payout_invoice_persists_on_pending_payout_null_invoice
FN:2519,_RNvNtNtNtNtCsawjdjYzw0zz_7mostrod3app4bond6payout5testss_60apply_payout_invoice_rejects_failed_at_exact_window_boundary
FN:2770,_RNvNtNtNtNtCsawjdjYzw0zz_7mostrod3app4bond6payout5testss_60apply_payout_invoice_resurrection_clears_payout_payment_hash
FN:3106,_RNvNtNtNtNtCsawjdjYzw0zz_7mostrod3app4bond6payout5testss_60counterparty_share_missing_node_share_is_invariant_violation
FN:1900,_RNvNtNtNtNtCsawjdjYzw0zz_7mostrod3app4bond6payout5testss_60request_payout_invoice_proceeds_after_cadence_window_elapsed
FN:4077,_RNvNtNtNtNtCsawjdjYzw0zz_7mostrod3app4bond6payout5testss_61find_recoverable_bond_skips_bad_reason_and_recipient_mismatch
FN:3500,_RNvNtNtNtNtCsawjdjYzw0zz_7mostrod3app4bond6payout5testss_63pay_counterparty_reconcile_lookup_failure_falls_through_to_send
FN:2818,_RNvNtNtNtNtCsawjdjYzw0zz_7mostrod3app4bond6payout5testss_66apply_payout_invoice_persists_leaves_payout_payment_hash_untouched
FN:3456,_RNvNtNtNtNtCsawjdjYzw0zz_7mostrod3app4bond6payout5testss_66pay_counterparty_fresh_send_persists_hash_then_fails_indeterminate
FN:2400,_RNvNtNtNtNtCsawjdjYzw0zz_7mostrod3app4bond6payout5testss_68apply_payout_invoice_rejects_pending_payout_when_invoice_already_set
FN:1939,_RNvNtNtNtNtCsawjdjYzw0zz_7mostrod3app4bond6payout5testss_72request_payout_invoice_skips_enqueue_when_state_moved_off_pending_payout
FNDA:4,_RNCNCNCNvNtNtNtCsawjdjYzw0zz_7mostrod3app4bond6payout35find_recoverable_bond_for_recipient0s1_00Bd_
FNDA:0,_RNCNCNvNtNtNtCsawjdjYzw0zz_7mostrod3app4bond6payout12forfeit_bond00Bb_
FNDA:0,_RNCNCNvNtNtNtCsawjdjYzw0zz_7mostrod3app4bond6payout16pay_counterparty00Bb_
FNDA:0,_RNCNCNvNtNtNtCsawjdjYzw0zz_7mostrod3app4bond6payout16process_one_bond00Bb_
FNDA:0,_RNCNCNvNtNtNtCsawjdjYzw0zz_7mostrod3app4bond6payout16process_one_bond0s0_0Bb_
FNDA:1,_RNCNCNvNtNtNtCsawjdjYzw0zz_7mostrod3app4bond6payout16process_one_bond0s1_0Bb_
FNDA:0,_RNCNCNvNtNtNtCsawjdjYzw0zz_7mostrod3app4bond6payout16process_one_bond0s_0Bb_
FNDA:0,_RNCNCNvNtNtNtCsawjdjYzw0zz_7mostrod3app4bond6payout18finalize_node_only00Bb_
FNDA:0,_RNCNCNvNtNtNtCsawjdjYzw0zz_7mostrod3app4bond6payout19slash_after_success00Bb_
FNDA:0,_RNCNCNvNtNtNtCsawjdjYzw0zz_7mostrod3app4bond6payout20apply_payout_invoice00Bb_
FNDA:0,_RNCNCNvNtNtNtCsawjdjYzw0zz_7mostrod3app4bond6payout20apply_payout_invoice0s_0Bb_
FNDA:0,_RNCNCNvNtNtNtCsawjdjYzw0zz_7mostrod3app4bond6payout22request_payout_invoice00Bb_
FNDA:1,_RNCNCNvNtNtNtCsawjdjYzw0zz_7mostrod3app4bond6payout22request_payout_invoice0s0_0Bb_
FNDA:1,_RNCNCNvNtNtNtCsawjdjYzw0zz_7mostrod3app4bond6payout22request_payout_invoice0s1_0Bb_
FNDA:0,_RNCNCNvNtNtNtCsawjdjYzw0zz_7mostrod3app4bond6payout22request_payout_invoice0s2_0Bb_
FNDA:7,_RNCNCNvNtNtNtCsawjdjYzw0zz_7mostrod3app4bond6payout22request_payout_invoice0s_0Bb_
FNDA:3,_RNCNCNvNtNtNtCsawjdjYzw0zz_7mostrod3app4bond6payout23add_bond_invoice_action00Bb_
FNDA:0,_RNCNCNvNtNtNtCsawjdjYzw0zz_7mostrod3app4bond6payout23add_bond_invoice_action0s0_0Bb_
FNDA:3,_RNCNCNvNtNtNtCsawjdjYzw0zz_7mostrod3app4bond6payout23add_bond_invoice_action0s_0Bb_
FNDA:6,_RNCNCNvNtNtNtCsawjdjYzw0zz_7mostrod3app4bond6payout23notify_payout_completed00Bb_
FNDA:0,_RNCNCNvNtNtNtCsawjdjYzw0zz_7mostrod3app4bond6payout23on_send_payment_failure00Bb_
FNDA:0,_RNCNCNvNtNtNtCsawjdjYzw0zz_7mostrod3app4bond6payout23on_send_payment_failure0s0_0Bb_
FNDA:0,_RNCNCNvNtNtNtCsawjdjYzw0zz_7mostrod3app4bond6payout23on_send_payment_failure0s1_0Bb_
FNDA:4,_RNCNCNvNtNtNtCsawjdjYzw0zz_7mostrod3app4bond6payout23on_send_payment_failure0s_0Bb_
FNDA:0,_RNCNCNvNtNtNtCsawjdjYzw0zz_7mostrod3app4bond6payout35find_recoverable_bond_for_recipient00Bb_
FNDA:12,_RNCNCNvNtNtNtCsawjdjYzw0zz_7mostrod3app4bond6payout35find_recoverable_bond_for_recipient0s0_0Bb_
FNDA:4,_RNCNCNvNtNtNtCsawjdjYzw0zz_7mostrod3app4bond6payout35find_recoverable_bond_for_recipient0s1_0Bb_
FNDA:0,_RNCNCNvNtNtNtCsawjdjYzw0zz_7mostrod3app4bond6payout35find_recoverable_bond_for_recipient0s_0Bb_
FNDA:3,_RNCNvNtNtNtCsawjdjYzw0zz_7mostrod3app4bond6payout12forfeit_bond0B9_
FNDA:5,_RNCNvNtNtNtCsawjdjYzw0zz_7mostrod3app4bond6payout16pay_counterparty0B9_
FNDA:6,_RNCNvNtNtNtCsawjdjYzw0zz_7mostrod3app4bond6payout16process_one_bond0B9_
FNDA:1,_RNCNvNtNtNtCsawjdjYzw0zz_7mostrod3app4bond6payout17resolve_recipient0B9_
FNDA:7,_RNCNvNtNtNtCsawjdjYzw0zz_7mostrod3app4bond6payout18enqueue_payout_ack0B9_
FNDA:4,_RNCNvNtNtNtCsawjdjYzw0zz_7mostrod3app4bond6payout18finalize_node_only0B9_
FNDA:4,_RNCNvNtNtNtCsawjdjYzw0zz_7mostrod3app4bond6payout19slash_after_success0B9_
FNDA:21,_RNCNvNtNtNtCsawjdjYzw0zz_7mostrod3app4bond6payout20apply_payout_invoice0B9_
FNDA:3,_RNCNvNtNtNtCsawjdjYzw0zz_7mostrod3app4bond6payout21run_bond_payout_cycle0B9_
FNDA:9,_RNCNvNtNtNtCsawjdjYzw0zz_7mostrod3app4bond6payout22request_payout_invoice0B9_
FNDA:9,_RNCNvNtNtNtCsawjdjYzw0zz_7mostrod3app4bond6payout23add_bond_invoice_action0B9_
FNDA:1,_RNCNvNtNtNtCsawjdjYzw0zz_7mostrod3app4bond6payout23counterparty_share_sats0B9_
FNDA:5,_RNCNvNtNtNtCsawjdjYzw0zz_7mostrod3app4bond6payout23notify_invoice_received0B9_
FNDA:8,_RNCNvNtNtNtCsawjdjYzw0zz_7mostrod3app4bond6payout23notify_payout_completed0B9_
FNDA:18,_RNCNvNtNtNtCsawjdjYzw0zz_7mostrod3app4bond6payout23on_send_payment_failure0B9_
FNDA:0,_RNCNvNtNtNtCsawjdjYzw0zz_7mostrod3app4bond6payout24resolve_payout_recipient0B9_
FNDA:10,_RNCNvNtNtNtCsawjdjYzw0zz_7mostrod3app4bond6payout35find_recoverable_bond_for_recipient0B9_
FNDA:10,_RNCNvNtNtNtCsawjdjYzw0zz_7mostrod3app4bond6payout37child_payout_blocked_by_locked_parent0B9_
FNDA:3,_RNvNtNtNtCsawjdjYzw0zz_7mostrod3app4bond6payout12forfeit_bond
FNDA:5,_RNvNtNtNtCsawjdjYzw0zz_7mostrod3app4bond6payout16pay_counterparty
FNDA:6,_RNvNtNtNtCsawjdjYzw0zz_7mostrod3app4bond6payout16process_one_bond
FNDA:26,_RNvNtNtNtCsawjdjYzw0zz_7mostrod3app4bond6payout17resolve_recipient
FNDA:7,_RNvNtNtNtCsawjdjYzw0zz_7mostrod3app4bond6payout18enqueue_payout_ack
FNDA:4,_RNvNtNtNtCsawjdjYzw0zz_7mostrod3app4bond6payout18finalize_node_only
FNDA:4,_RNvNtNtNtCsawjdjYzw0zz_7mostrod3app4bond6payout19slash_after_success
FNDA:21,_RNvNtNtNtCsawjdjYzw0zz_7mostrod3app4bond6payout20apply_payout_invoice
FNDA:3,_RNvNtNtNtCsawjdjYzw0zz_7mostrod3app4bond6payout21run_bond_payout_cycle
FNDA:9,_RNvNtNtNtCsawjdjYzw0zz_7mostrod3app4bond6payout22request_payout_invoice
FNDA:9,_RNvNtNtNtCsawjdjYzw0zz_7mostrod3app4bond6payout23add_bond_invoice_action
FNDA:25,_RNvNtNtNtCsawjdjYzw0zz_7mostrod3app4bond6payout23counterparty_share_sats
FNDA:5,_RNvNtNtNtCsawjdjYzw0zz_7mostrod3app4bond6payout23notify_invoice_received
FNDA:8,_RNvNtNtNtCsawjdjYzw0zz_7mostrod3app4bond6payout23notify_payout_completed
FNDA:18,_RNvNtNtNtCsawjdjYzw0zz_7mostrod3app4bond6payout23on_send_payment_failure
FNDA:11,_RNvNtNtNtCsawjdjYzw0zz_7mostrod3app4bond6payout24build_payout_small_order
FNDA:24,_RNvNtNtNtCsawjdjYzw0zz_7mostrod3app4bond6payout24resolve_payout_recipient
FNDA:10,_RNvNtNtNtCsawjdjYzw0zz_7mostrod3app4bond6payout35find_recoverable_bond_for_recipient
FNDA:10,_RNvNtNtNtCsawjdjYzw0zz_7mostrod3app4bond6payout37child_payout_blocked_by_locked_parent
FNDA:366,_RNCNCNCNvNtNtNtNtCsawjdjYzw0zz_7mostrod3app4bond6payout5tests10setup_pool000Bf_
FNDA:671,_RNCNCNCNvNtNtNtNtCsawjdjYzw0zz_7mostrod3app4bond6payout5tests10setup_pool0s_00Bf_
FNDA:244,_RNCNCNvNtNtNtNtCsawjdjYzw0zz_7mostrod3app4bond6payout5tests10setup_pool00Bd_
FNDA:244,_RNCNCNvNtNtNtNtCsawjdjYzw0zz_7mostrod3app4bond6payout5tests10setup_pool0s_0Bd_
FNDA:302,_RNCNCNvNtNtNtNtCsawjdjYzw0zz_7mostrod3app4bond6payout5tests14ack_recipients00Bd_
FNDA:4,_RNCNCNvNtNtNtNtCsawjdjYzw0zz_7mostrod3app4bond6payout5tests14ack_recipients0s_0Bd_
FNDA:188,_RNCNCNvNtNtNtNtCsawjdjYzw0zz_7mostrod3app4bond6payout5tests27count_add_bond_invoice_msgs00Bd_
FNDA:1,_RNCNCNvNtNtNtNtCsawjdjYzw0zz_7mostrod3app4bond6payout5testss_57request_payout_invoice_persists_before_enqueue_happy_path00Bd_
FNDA:1,_RNCNCNvNtNtNtNtCsawjdjYzw0zz_7mostrod3app4bond6payout5testss_60request_payout_invoice_proceeds_after_cadence_window_elapsed00Bd_
FNDA:61,_RNCNvNtNtNtNtCsawjdjYzw0zz_7mostrod3app4bond6payout5tests10setup_pool0Bb_
FNDA:60,_RNCNvNtNtNtNtCsawjdjYzw0zz_7mostrod3app4bond6payout5tests12insert_order0Bb_
FNDA:19,_RNCNvNtNtNtNtCsawjdjYzw0zz_7mostrod3app4bond6payout5tests14ack_recipients0Bb_
FNDA:7,_RNCNvNtNtNtNtCsawjdjYzw0zz_7mostrod3app4bond6payout5tests15add_invoice_msg0Bb_
FNDA:29,_RNCNvNtNtNtNtCsawjdjYzw0zz_7mostrod3app4bond6payout5tests19pending_payout_bond0Bb_
FNDA:7,_RNCNvNtNtNtNtCsawjdjYzw0zz_7mostrod3app4bond6payout5tests19signed_test_invoice0Bb_
FNDA:10,_RNCNvNtNtNtNtCsawjdjYzw0zz_7mostrod3app4bond6payout5tests27count_add_bond_invoice_msgs0Bb_
FNDA:11,_RNCNvNtNtNtNtCsawjdjYzw0zz_7mostrod3app4bond6payout5tests8dead_lnd0Bb_
FNDA:1,_RNCNvNtNtNtNtCsawjdjYzw0zz_7mostrod3app4bond6payout5testss_35slash_after_success_notifies_winner0Bb_
FNDA:1,_RNCNvNtNtNtNtCsawjdjYzw0zz_7mostrod3app4bond6payout5testss_38notify_invoice_received_acks_submitter0Bb_
FNDA:1,_RNCNvNtNtNtNtCsawjdjYzw0zz_7mostrod3app4bond6payout5testss_38run_cycle_survives_enumeration_failure0Bb_
FNDA:1,_RNCNvNtNtNtNtCsawjdjYzw0zz_7mostrod3app4bond6payout5testss_39add_bond_invoice_rejects_node_only_bond0Bb_
FNDA:1,_RNCNvNtNtNtNtCsawjdjYzw0zz_7mostrod3app4bond6payout5testss_40child_payout_blocked_while_parent_locked0Bb_
FNDA:1,_RNCNvNtNtNtNtCsawjdjYzw0zz_7mostrod3app4bond6payout5testss_40process_one_bond_skips_blocked_child_row0Bb_
FNDA:1,_RNCNvNtNtNtNtCsawjdjYzw0zz_7mostrod3app4bond6payout5testss_41apply_payout_invoice_rejects_other_states0Bb_
FNDA:1,_RNCNvNtNtNtNtCsawjdjYzw0zz_7mostrod3app4bond6payout5testss_41finalize_node_only_does_not_notify_winner0Bb_
FNDA:1,_RNCNvNtNtNtNtCsawjdjYzw0zz_7mostrod3app4bond6payout5testss_41finalize_node_only_transitions_to_slashed0Bb_
FNDA:1,_RNCNvNtNtNtNtCsawjdjYzw0zz_7mostrod3app4bond6payout5testss_41notify_payout_completed_acks_counterparty0Bb_
FNDA:1,_RNCNvNtNtNtNtCsawjdjYzw0zz_7mostrod3app4bond6payout5testss_42child_blocked_when_parent_bond_row_missing0Bb_
FNDA:1,_RNCNvNtNtNtNtCsawjdjYzw0zz_7mostrod3app4bond6payout5testss_42notify_helpers_skip_on_order_load_db_error0Bb_
FNDA:1,_RNCNvNtNtNtNtCsawjdjYzw0zz_7mostrod3app4bond6payout5testss_42notify_helpers_skip_when_order_row_missing0Bb_
FNDA:1,_RNCNvNtNtNtNtCsawjdjYzw0zz_7mostrod3app4bond6payout5testss_42run_cycle_no_pending_bonds_is_a_cheap_noop0Bb_
FNDA:1,_RNCNvNtNtNtNtCsawjdjYzw0zz_7mostrod3app4bond6payout5testss_43add_bond_invoice_rejects_undecodable_bolt110Bb_
FNDA:1,_RNCNvNtNtNtNtCsawjdjYzw0zz_7mostrod3app4bond6payout5testss_44process_one_bond_forfeits_after_claim_window0Bb_
FNDA:1,_RNCNvNtNtNtNtCsawjdjYzw0zz_7mostrod3app4bond6payout5testss_44request_invoice_skips_when_order_row_missing0Bb_
FNDA:1,_RNCNvNtNtNtNtCsawjdjYzw0zz_7mostrod3app4bond6payout5testss_45add_bond_invoice_happy_path_persists_and_acks0Bb_
FNDA:1,_RNCNvNtNtNtNtCsawjdjYzw0zz_7mostrod3app4bond6payout5testss_45forfeit_bond_transitions_pending_to_forfeited0Bb_
FNDA:1,_RNCNvNtNtNtNtCsawjdjYzw0zz_7mostrod3app4bond6payout5testss_45send_failure_re_arm_cas_miss_leaves_row_as_is0Bb_
FNDA:1,_RNCNvNtNtNtNtCsawjdjYzw0zz_7mostrod3app4bond6payout5testss_46request_invoice_errors_when_slashed_at_missing0Bb_
FNDA:1,_RNCNvNtNtNtNtCsawjdjYzw0zz_7mostrod3app4bond6payout5testss_46request_payout_invoice_respects_cadence_window0Bb_
FNDA:1,_RNCNvNtNtNtNtCsawjdjYzw0zz_7mostrod3app4bond6payout5testss_46run_cycle_processes_rows_and_warns_on_bad_ones0Bb_
FNDA:1,_RNCNvNtNtNtNtCsawjdjYzw0zz_7mostrod3app4bond6payout5testss_48apply_payout_invoice_resurrects_after_re_failure0Bb_
FNDA:1,_RNCNvNtNtNtNtCsawjdjYzw0zz_7mostrod3app4bond6payout5testss_48enqueue_payout_ack_skips_unbuildable_small_order0Bb_
FNDA:1,_RNCNvNtNtNtNtCsawjdjYzw0zz_7mostrod3app4bond6payout5testss_48finalize_node_only_cas_miss_leaves_row_untouched0Bb_
FNDA:1,_RNCNvNtNtNtNtCsawjdjYzw0zz_7mostrod3app4bond6payout5testss_48send_payment_failure_past_window_flips_to_failed0Bb_
FNDA:1,_RNCNvNtNtNtNtCsawjdjYzw0zz_7mostrod3app4bond6payout5testss_48send_payment_indeterminate_failure_keeps_invoice0Bb_
FNDA:1,_RNCNvNtNtNtNtCsawjdjYzw0zz_7mostrod3app4bond6payout5testss_49add_bond_invoice_rejects_when_no_recoverable_bond0Bb_
FNDA:1,_RNCNvNtNtNtNtCsawjdjYzw0zz_7mostrod3app4bond6payout5testss_49request_invoice_skips_when_recipient_unresolvable0Bb_
FNDA:1,_RNCNvNtNtNtNtCsawjdjYzw0zz_7mostrod3app4bond6payout5testss_50request_invoice_errors_on_unparseable_slash_reason0Bb_
FNDA:1,_RNCNvNtNtNtNtCsawjdjYzw0zz_7mostrod3app4bond6payout5testss_50slash_after_success_transitions_pending_to_slashed0Bb_
FNDA:1,_RNCNvNtNtNtNtCsawjdjYzw0zz_7mostrod3app4bond6payout5testss_51apply_payout_invoice_rejects_unparseable_bond_state0Bb_
FNDA:1,_RNCNvNtNtNtNtCsawjdjYzw0zz_7mostrod3app4bond6payout5testss_51forfeit_bond_skips_when_invoice_landed_concurrently0Bb_
FNDA:1,_RNCNvNtNtNtNtCsawjdjYzw0zz_7mostrod3app4bond6payout5testss_51send_payment_failure_within_window_reprompts_winner0Bb_
FNDA:1,_RNCNvNtNtNtNtCsawjdjYzw0zz_7mostrod3app4bond6payout5testss_52apply_payout_invoice_resurrects_failed_within_window0Bb_
FNDA:1,_RNCNvNtNtNtNtCsawjdjYzw0zz_7mostrod3app4bond6payout5testss_53add_bond_invoice_rejects_missing_order_id_and_invoice0Bb_
FNDA:1,_RNCNvNtNtNtNtCsawjdjYzw0zz_7mostrod3app4bond6payout5testss_53add_bond_invoice_resurrects_failed_bond_within_window0Bb_
FNDA:1,_RNCNvNtNtNtNtCsawjdjYzw0zz_7mostrod3app4bond6payout5testss_53apply_payout_invoice_rejects_failed_past_claim_window0Bb_
FNDA:1,_RNCNvNtNtNtNtCsawjdjYzw0zz_7mostrod3app4bond6payout5testss_53process_one_bond_requests_invoice_when_none_submitted0Bb_
FNDA:1,_RNCNvNtNtNtNtCsawjdjYzw0zz_7mostrod3app4bond6payout5testss_54apply_payout_invoice_rejects_failed_without_slashed_at0Bb_
FNDA:1,_RNCNvNtNtNtNtCsawjdjYzw0zz_7mostrod3app4bond6payout5testss_54slash_after_success_exhausts_cas_retries_on_db_failure0Bb_
FNDA:1,_RNCNvNtNtNtNtCsawjdjYzw0zz_7mostrod3app4bond6payout5testss_54slash_after_success_is_idempotent_when_already_slashed0Bb_
FNDA:1,_RNCNvNtNtNtNtCsawjdjYzw0zz_7mostrod3app4bond6payout5testss_55add_bond_invoice_rejects_when_invoice_already_persisted0Bb_
FNDA:1,_RNCNvNtNtNtNtCsawjdjYzw0zz_7mostrod3app4bond6payout5testss_55process_one_bond_pays_counterparty_when_invoice_present0Bb_
FNDA:1,_RNCNvNtNtNtNtCsawjdjYzw0zz_7mostrod3app4bond6payout5testss_56pay_counterparty_skips_send_when_row_left_pending_payout0Bb_
FNDA:1,_RNCNvNtNtNtNtCsawjdjYzw0zz_7mostrod3app4bond6payout5testss_56pay_counterparty_undecodable_invoice_is_terminal_failure0Bb_
FNDA:1,_RNCNvNtNtNtNtCsawjdjYzw0zz_7mostrod3app4bond6payout5testss_57find_recoverable_bond_returns_none_when_order_row_missing0Bb_
FNDA:1,_RNCNvNtNtNtNtCsawjdjYzw0zz_7mostrod3app4bond6payout5testss_57request_payout_invoice_persists_before_enqueue_happy_path0Bb_
FNDA:1,_RNCNvNtNtNtNtCsawjdjYzw0zz_7mostrod3app4bond6payout5testss_58notify_payout_completed_skips_bad_reason_and_bad_recipient0Bb_
FNDA:1,_RNCNvNtNtNtNtCsawjdjYzw0zz_7mostrod3app4bond6payout5testss_59apply_payout_invoice_concurrent_resurrections_only_one_wins0Bb_
FNDA:1,_RNCNvNtNtNtNtCsawjdjYzw0zz_7mostrod3app4bond6payout5testss_59find_recoverable_bond_disambiguates_multiple_debts_by_share0Bb_
FNDA:1,_RNCNvNtNtNtNtCsawjdjYzw0zz_7mostrod3app4bond6payout5testss_60apply_payout_invoice_persists_on_pending_payout_null_invoice0Bb_
FNDA:1,_RNCNvNtNtNtNtCsawjdjYzw0zz_7mostrod3app4bond6payout5testss_60apply_payout_invoice_rejects_failed_at_exact_window_boundary0Bb_
FNDA:1,_RNCNvNtNtNtNtCsawjdjYzw0zz_7mostrod3app4bond6payout5testss_60apply_payout_invoice_resurrection_clears_payout_payment_hash0Bb_
FNDA:1,_RNCNvNtNtNtNtCsawjdjYzw0zz_7mostrod3app4bond6payout5testss_60request_payout_invoice_proceeds_after_cadence_window_elapsed0Bb_
FNDA:1,_RNCNvNtNtNtNtCsawjdjYzw0zz_7mostrod3app4bond6payout5testss_61find_recoverable_bond_skips_bad_reason_and_recipient_mismatch0Bb_
FNDA:1,_RNCNvNtNtNtNtCsawjdjYzw0zz_7mostrod3app4bond6payout5testss_63pay_counterparty_reconcile_lookup_failure_falls_through_to_send0Bb_
FNDA:1,_RNCNvNtNtNtNtCsawjdjYzw0zz_7mostrod3app4bond6payout5testss_66apply_payout_invoice_persists_leaves_payout_payment_hash_untouched0Bb_
FNDA:1,_RNCNvNtNtNtNtCsawjdjYzw0zz_7mostrod3app4bond6payout5testss_66pay_counterparty_fresh_send_persists_hash_then_fails_indeterminate0Bb_
FNDA:1,_RNCNvNtNtNtNtCsawjdjYzw0zz_7mostrod3app4bond6payout5testss_68apply_payout_invoice_rejects_pending_payout_when_invoice_already_set0Bb_
FNDA:1,_RNCNvNtNtNtNtCsawjdjYzw0zz_7mostrod3app4bond6payout5testss_72request_payout_invoice_skips_enqueue_when_state_moved_off_pending_payout0Bb_
FNDA:61,_RNvNtNtNtNtCsawjdjYzw0zz_7mostrod3app4bond6payout5tests10setup_pool
FNDA:60,_RNvNtNtNtNtCsawjdjYzw0zz_7mostrod3app4bond6payout5tests12insert_order
FNDA:19,_RNvNtNtNtNtCsawjdjYzw0zz_7mostrod3app4bond6payout5tests14ack_recipients
FNDA:8,_RNvNtNtNtNtCsawjdjYzw0zz_7mostrod3app4bond6payout5tests14unwrapped_from
FNDA:8,_RNvNtNtNtNtCsawjdjYzw0zz_7mostrod3app4bond6payout5tests15add_invoice_msg
FNDA:24,_RNvNtNtNtNtCsawjdjYzw0zz_7mostrod3app4bond6payout5tests18init_test_settings
FNDA:76,_RNvNtNtNtNtCsawjdjYzw0zz_7mostrod3app4bond6payout5tests19pending_payout_bond
FNDA:7,_RNvNtNtNtNtCsawjdjYzw0zz_7mostrod3app4bond6payout5tests19signed_test_invoice
FNDA:10,_RNvNtNtNtNtCsawjdjYzw0zz_7mostrod3app4bond6payout5tests27count_add_bond_invoice_msgs
FNDA:11,_RNvNtNtNtNtCsawjdjYzw0zz_7mostrod3app4bond6payout5tests8dead_lnd
FNDA:93,_RNvNtNtNtNtCsawjdjYzw0zz_7mostrod3app4bond6payout5tests8maker_pk
FNDA:134,_RNvNtNtNtNtCsawjdjYzw0zz_7mostrod3app4bond6payout5tests8taker_pk
FNDA:7,_RNvNtNtNtNtCsawjdjYzw0zz_7mostrod3app4bond6payout5tests9build_ctx
FNDA:1,_RNvNtNtNtNtCsawjdjYzw0zz_7mostrod3app4bond6payout5testss_35slash_after_success_notifies_winner
FNDA:1,_RNvNtNtNtNtCsawjdjYzw0zz_7mostrod3app4bond6payout5testss_38notify_invoice_received_acks_submitter
FNDA:1,_RNvNtNtNtNtCsawjdjYzw0zz_7mostrod3app4bond6payout5testss_38run_cycle_survives_enumeration_failure
FNDA:1,_RNvNtNtNtNtCsawjdjYzw0zz_7mostrod3app4bond6payout5testss_39add_bond_invoice_rejects_node_only_bond
FNDA:1,_RNvNtNtNtNtCsawjdjYzw0zz_7mostrod3app4bond6payout5testss_40child_payout_blocked_while_parent_locked
FNDA:1,_RNvNtNtNtNtCsawjdjYzw0zz_7mostrod3app4bond6payout5testss_40process_one_bond_skips_blocked_child_row
FNDA:1,_RNvNtNtNtNtCsawjdjYzw0zz_7mostrod3app4bond6payout5testss_41apply_payout_invoice_rejects_other_states
FNDA:1,_RNvNtNtNtNtCsawjdjYzw0zz_7mostrod3app4bond6payout5testss_41finalize_node_only_does_not_notify_winner
FNDA:1,_RNvNtNtNtNtCsawjdjYzw0zz_7mostrod3app4bond6payout5testss_41finalize_node_only_transitions_to_slashed
FNDA:1,_RNvNtNtNtNtCsawjdjYzw0zz_7mostrod3app4bond6payout5testss_41notify_payout_completed_acks_counterparty
FNDA:1,_RNvNtNtNtNtCsawjdjYzw0zz_7mostrod3app4bond6payout5testss_42child_blocked_when_parent_bond_row_missing
FNDA:1,_RNvNtNtNtNtCsawjdjYzw0zz_7mostrod3app4bond6payout5testss_42notify_helpers_skip_on_order_load_db_error
FNDA:1,_RNvNtNtNtNtCsawjdjYzw0zz_7mostrod3app4bond6payout5testss_42notify_helpers_skip_when_order_row_missing
FNDA:1,_RNvNtNtNtNtCsawjdjYzw0zz_7mostrod3app4bond6payout5testss_42run_cycle_no_pending_bonds_is_a_cheap_noop
FNDA:1,_RNvNtNtNtNtCsawjdjYzw0zz_7mostrod3app4bond6payout5testss_43add_bond_invoice_rejects_undecodable_bolt11
FNDA:1,_RNvNtNtNtNtCsawjdjYzw0zz_7mostrod3app4bond6payout5testss_44process_one_bond_forfeits_after_claim_window
FNDA:1,_RNvNtNtNtNtCsawjdjYzw0zz_7mostrod3app4bond6payout5testss_44request_invoice_skips_when_order_row_missing
FNDA:1,_RNvNtNtNtNtCsawjdjYzw0zz_7mostrod3app4bond6payout5testss_44resolve_recipient_missing_buyer_returns_none
FNDA:1,_RNvNtNtNtNtCsawjdjYzw0zz_7mostrod3app4bond6payout5testss_45add_bond_invoice_happy_path_persists_and_acks
FNDA:1,_RNvNtNtNtNtCsawjdjYzw0zz_7mostrod3app4bond6payout5testss_45forfeit_bond_transitions_pending_to_forfeited
FNDA:1,_RNvNtNtNtNtCsawjdjYzw0zz_7mostrod3app4bond6payout5testss_45send_failure_re_arm_cas_miss_leaves_row_as_is
FNDA:1,_RNvNtNtNtNtCsawjdjYzw0zz_7mostrod3app4bond6payout5testss_46request_invoice_errors_when_slashed_at_missing
FNDA:1,_RNvNtNtNtNtCsawjdjYzw0zz_7mostrod3app4bond6payout5testss_46request_payout_invoice_respects_cadence_window
FNDA:1,_RNvNtNtNtNtCsawjdjYzw0zz_7mostrod3app4bond6payout5testss_46run_cycle_processes_rows_and_warns_on_bad_ones
FNDA:1,_RNvNtNtNtNtCsawjdjYzw0zz_7mostrod3app4bond6payout5testss_48apply_payout_invoice_resurrects_after_re_failure
FNDA:1,_RNvNtNtNtNtCsawjdjYzw0zz_7mostrod3app4bond6payout5testss_48enqueue_payout_ack_skips_unbuildable_small_order
FNDA:1,_RNvNtNtNtNtCsawjdjYzw0zz_7mostrod3app4bond6payout5testss_48finalize_node_only_cas_miss_leaves_row_untouched
FNDA:1,_RNvNtNtNtNtCsawjdjYzw0zz_7mostrod3app4bond6payout5testss_48resolve_recipient_buy_order_taker_seller_slashed
FNDA:1,_RNvNtNtNtNtCsawjdjYzw0zz_7mostrod3app4bond6payout5testss_48resolve_recipient_sell_order_taker_buyer_slashed
FNDA:1,_RNvNtNtNtNtCsawjdjYzw0zz_7mostrod3app4bond6payout5testss_48send_payment_failure_past_window_flips_to_failed
FNDA:1,_RNvNtNtNtNtCsawjdjYzw0zz_7mostrod3app4bond6payout5testss_48send_payment_indeterminate_failure_keeps_invoice
FNDA:1,_RNvNtNtNtNtCsawjdjYzw0zz_7mostrod3app4bond6payout5testss_49add_bond_invoice_rejects_when_no_recoverable_bond
FNDA:1,_RNvNtNtNtNtCsawjdjYzw0zz_7mostrod3app4bond6payout5testss_49request_invoice_skips_when_recipient_unresolvable
FNDA:1,_RNvNtNtNtNtCsawjdjYzw0zz_7mostrod3app4bond6payout5testss_50request_invoice_errors_on_unparseable_slash_reason
FNDA:1,_RNvNtNtNtNtCsawjdjYzw0zz_7mostrod3app4bond6payout5testss_50resolve_payout_recipient_refund_row_pays_the_maker
FNDA:1,_RNvNtNtNtNtCsawjdjYzw0zz_7mostrod3app4bond6payout5testss_50slash_after_success_transitions_pending_to_slashed
FNDA:1,_RNvNtNtNtNtCsawjdjYzw0zz_7mostrod3app4bond6payout5testss_51apply_payout_invoice_rejects_unparseable_bond_state
FNDA:1,_RNvNtNtNtNtCsawjdjYzw0zz_7mostrod3app4bond6payout5testss_51forfeit_bond_skips_when_invoice_landed_concurrently
FNDA:1,_RNvNtNtNtNtCsawjdjYzw0zz_7mostrod3app4bond6payout5testss_51send_payment_failure_within_window_reprompts_winner
FNDA:1,_RNvNtNtNtNtCsawjdjYzw0zz_7mostrod3app4bond6payout5testss_52apply_payout_invoice_resurrects_failed_within_window
FNDA:1,_RNvNtNtNtNtCsawjdjYzw0zz_7mostrod3app4bond6payout5testss_52resolve_payout_recipient_slice_slash_pays_the_winner
FNDA:1,_RNvNtNtNtNtCsawjdjYzw0zz_7mostrod3app4bond6payout5testss_53add_bond_invoice_rejects_missing_order_id_and_invoice
FNDA:1,_RNvNtNtNtNtCsawjdjYzw0zz_7mostrod3app4bond6payout5testss_53add_bond_invoice_resurrects_failed_bond_within_window
FNDA:1,_RNvNtNtNtNtCsawjdjYzw0zz_7mostrod3app4bond6payout5testss_53apply_payout_invoice_rejects_failed_past_claim_window
FNDA:1,_RNvNtNtNtNtCsawjdjYzw0zz_7mostrod3app4bond6payout5testss_53process_one_bond_requests_invoice_when_none_submitted
FNDA:1,_RNvNtNtNtNtCsawjdjYzw0zz_7mostrod3app4bond6payout5testss_54apply_payout_invoice_rejects_failed_without_slashed_at
FNDA:1,_RNvNtNtNtNtCsawjdjYzw0zz_7mostrod3app4bond6payout5testss_54counterparty_share_out_of_range_node_share_is_rejected
FNDA:1,_RNvNtNtNtNtCsawjdjYzw0zz_7mostrod3app4bond6payout5testss_54slash_after_success_exhausts_cas_retries_on_db_failure
FNDA:1,_RNvNtNtNtNtCsawjdjYzw0zz_7mostrod3app4bond6payout5testss_54slash_after_success_is_idempotent_when_already_slashed
FNDA:1,_RNvNtNtNtNtCsawjdjYzw0zz_7mostrod3app4bond6payout5testss_55add_bond_invoice_rejects_when_invoice_already_persisted
FNDA:1,_RNvNtNtNtNtCsawjdjYzw0zz_7mostrod3app4bond6payout5testss_55process_one_bond_pays_counterparty_when_invoice_present
FNDA:1,_RNvNtNtNtNtCsawjdjYzw0zz_7mostrod3app4bond6payout5testss_56pay_counterparty_skips_send_when_row_left_pending_payout
FNDA:1,_RNvNtNtNtNtCsawjdjYzw0zz_7mostrod3app4bond6payout5testss_56pay_counterparty_undecodable_invoice_is_terminal_failure
FNDA:1,_RNvNtNtNtNtCsawjdjYzw0zz_7mostrod3app4bond6payout5testss_57find_recoverable_bond_returns_none_when_order_row_missing
FNDA:1,_RNvNtNtNtNtCsawjdjYzw0zz_7mostrod3app4bond6payout5testss_57request_payout_invoice_persists_before_enqueue_happy_path
FNDA:1,_RNvNtNtNtNtCsawjdjYzw0zz_7mostrod3app4bond6payout5testss_58notify_payout_completed_skips_bad_reason_and_bad_recipient
FNDA:1,_RNvNtNtNtNtCsawjdjYzw0zz_7mostrod3app4bond6payout5testss_59apply_payout_invoice_concurrent_resurrections_only_one_wins
FNDA:1,_RNvNtNtNtNtCsawjdjYzw0zz_7mostrod3app4bond6payout5testss_59find_recoverable_bond_disambiguates_multiple_debts_by_share
FNDA:1,_RNvNtNtNtNtCsawjdjYzw0zz_7mostrod3app4bond6payout5testss_60apply_payout_invoice_persists_on_pending_payout_null_invoice
FNDA:1,_RNvNtNtNtNtCsawjdjYzw0zz_7mostrod3app4bond6payout5testss_60apply_payout_invoice_rejects_failed_at_exact_window_boundary
FNDA:1,_RNvNtNtNtNtCsawjdjYzw0zz_7mostrod3app4bond6payout5testss_60apply_payout_invoice_resurrection_clears_payout_payment_hash
FNDA:1,_RNvNtNtNtNtCsawjdjYzw0zz_7mostrod3app4bond6payout5testss_60counterparty_share_missing_node_share_is_invariant_violation
FNDA:1,_RNvNtNtNtNtCsawjdjYzw0zz_7mostrod3app4bond6payout5testss_60request_payout_invoice_proceeds_after_cadence_window_elapsed
FNDA:1,_RNvNtNtNtNtCsawjdjYzw0zz_7mostrod3app4bond6payout5testss_61find_recoverable_bond_skips_bad_reason_and_recipient_mismatch
FNDA:1,_RNvNtNtNtNtCsawjdjYzw0zz_7mostrod3app4bond6payout5testss_63pay_counterparty_reconcile_lookup_failure_falls_through_to_send
FNDA:1,_RNvNtNtNtNtCsawjdjYzw0zz_7mostrod3app4bond6payout5testss_66apply_payout_invoice_persists_leaves_payout_payment_hash_untouched
FNDA:1,_RNvNtNtNtNtCsawjdjYzw0zz_7mostrod3app4bond6payout5testss_66pay_counterparty_fresh_send_persists_hash_then_fails_indeterminate
FNDA:1,_RNvNtNtNtNtCsawjdjYzw0zz_7mostrod3app4bond6payout5testss_68apply_payout_invoice_rejects_pending_payout_when_invoice_already_set
FNDA:1,_RNvNtNtNtNtCsawjdjYzw0zz_7mostrod3app4bond6payout5testss_72request_payout_invoice_skips_enqueue_when_state_moved_off_pending_payout
FNF:226
FNH:208
DA:99,3
DA:100,3
DA:101,2
DA:102,1
DA:103,1
DA:104,1
DA:107,2
DA:108,1
DA:109,1
DA:110,1
DA:112,0
DA:115,2
DA:116,2
DA:117,1
DA:122,1
DA:124,3
DA:169,10
DA:170,10
DA:171,10
DA:172,10
DA:173,10
DA:174,6
DA:176,4
DA:177,3
DA:179,1
DA:184,1
DA:187,10
DA:189,6
DA:190,6
DA:191,6
DA:192,6
DA:193,6
DA:200,6
DA:201,1
DA:202,5
DA:204,5
DA:205,5
DA:206,5
DA:207,5
DA:208,5
DA:209,5
DA:210,5
DA:211,5
DA:213,5
DA:218,5
DA:219,1
DA:220,1
DA:221,1
DA:222,1
DA:223,1
DA:230,4
DA:231,1
DA:232,3
DA:236,3
DA:238,3
DA:242,1
DA:243,2
DA:245,2
DA:246,1
DA:247,1
DA:248,1
DA:249,1
DA:250,1
DA:251,1
DA:252,1
DA:253,1
DA:254,1
DA:255,1
DA:256,1
DA:259,6
DA:273,25
DA:274,25
DA:275,1
DA:276,1
DA:277,1
DA:278,1
DA:279,1
DA:280,24
DA:281,2
DA:282,2
DA:283,2
DA:284,2
DA:285,22
DA:286,22
DA:287,25
DA:299,3
DA:300,3
DA:301,3
DA:302,3
DA:303,3
DA:304,3
DA:305,3
DA:306,3
DA:307,3
DA:308,3
DA:310,3
DA:311,2
DA:318,1
DA:324,3
DA:325,3
DA:331,4
DA:332,4
DA:333,4
DA:334,4
DA:335,4
DA:336,4
DA:337,4
DA:338,4
DA:340,4
DA:341,3
DA:347,1
DA:348,4
DA:349,4
DA:357,9
DA:358,9
DA:359,9
DA:360,9
DA:361,9
DA:362,9
DA:363,9
DA:364,2
DA:365,1
DA:366,1
DA:367,7
DA:369,8
DA:370,8
DA:371,8
DA:373,7
DA:375,1
DA:380,1
DA:384,7
DA:385,7
DA:386,7
DA:387,7
DA:388,7
DA:389,1
DA:390,1
DA:391,1
DA:392,1
DA:393,1
DA:395,6
DA:396,5
DA:398,1
DA:403,1
DA:407,5
DA:413,5
DA:414,1
DA:415,1
DA:416,1
DA:417,1
DA:418,1
DA:420,4
DA:440,4
DA:441,4
DA:442,4
DA:443,4
DA:444,4
DA:445,4
DA:446,4
DA:447,4
DA:448,4
DA:449,4
DA:450,4
DA:451,4
DA:453,4
DA:454,1
DA:455,3
DA:457,3
DA:463,0
DA:476,3
DA:477,3
DA:478,3
DA:479,3
DA:480,3
DA:481,3
DA:482,3
DA:483,3
DA:484,3
DA:485,3
DA:486,3
DA:487,3
DA:489,3
DA:490,9
DA:537,5
DA:538,5
DA:539,5
DA:540,5
DA:541,5
DA:542,5
DA:543,5
DA:544,5
DA:545,5
DA:551,5
DA:552,4
DA:553,1
DA:557,1
DA:558,1
DA:559,1
DA:560,1
DA:561,1
DA:562,1
DA:563,1
DA:564,1
DA:565,1
DA:571,4
DA:572,4
DA:579,4
DA:580,1
DA:581,1
DA:583,0
DA:588,0
DA:593,0
DA:594,0
DA:595,0
DA:596,0
DA:597,0
DA:598,0
DA:599,0
DA:600,0
DA:601,0
DA:604,0
DA:609,0
DA:611,0
DA:612,0
DA:613,0
DA:614,0
DA:615,0
DA:616,0
DA:617,1
DA:618,1
DA:625,0
DA:626,3
DA:637,4
DA:638,4
DA:639,4
DA:640,4
DA:641,4
DA:642,4
DA:643,4
DA:644,4
DA:645,4
DA:646,4
DA:647,4
DA:648,4
DA:649,4
DA:651,4
DA:657,1
DA:662,1
DA:663,3
DA:667,3
DA:668,3
DA:669,3
DA:670,3
DA:671,3
DA:676,3
DA:677,3
DA:678,3
DA:679,3
DA:680,3
DA:681,3
DA:682,3
DA:683,3
DA:684,3
DA:685,0
DA:696,0
DA:697,0
DA:699,0
DA:701,0
DA:702,0
DA:703,0
DA:704,0
DA:705,0
DA:706,0
DA:707,0
DA:708,0
DA:710,0
DA:711,0
DA:712,0
DA:713,0
DA:715,0
DA:716,0
DA:719,0
DA:720,0
DA:721,0
DA:722,0
DA:723,0
DA:725,0
DA:727,0
DA:732,0
DA:733,0
DA:734,0
DA:738,0
DA:739,0
DA:740,0
DA:741,0
DA:742,0
DA:743,5
DA:753,4
DA:754,4
DA:755,4
DA:756,4
DA:757,4
DA:758,4
DA:759,8
DA:760,8
DA:764,4
DA:765,4
DA:766,4
DA:767,8
DA:768,8
DA:769,8
DA:770,8
DA:771,8
DA:772,8
DA:774,3
DA:775,3
DA:776,2
DA:786,2
DA:793,1
DA:799,3
DA:801,5
DA:804,1
DA:805,1
DA:813,1
DA:814,4
DA:880,18
DA:881,18
DA:882,18
DA:883,18
DA:884,18
DA:885,18
DA:886,18
DA:887,18
DA:891,18
DA:892,18
DA:893,18
DA:894,18
DA:895,18
DA:896,18
DA:897,18
DA:898,18
DA:900,18
DA:901,12
DA:908,12
DA:909,6
DA:919,6
DA:920,2
DA:926,2
DA:927,4
DA:937,4
DA:938,4
DA:939,4
DA:940,4
DA:942,4
DA:956,2
DA:957,2
DA:958,2
DA:959,2
DA:960,2
DA:961,2
DA:962,2
DA:963,2
DA:964,2
DA:965,2
DA:966,2
DA:967,2
DA:968,2
DA:969,2
DA:971,2
DA:972,1
DA:983,1
DA:989,2
DA:990,2
DA:992,2
DA:993,2
DA:994,2
DA:995,2
DA:996,2
DA:997,2
DA:998,2
DA:999,2
DA:1005,2
DA:1006,18
DA:1021,26
DA:1022,26
DA:1023,26
DA:1024,26
DA:1025,26
DA:1026,26
DA:1027,26
DA:1028,26
DA:1029,24
DA:1030,4
DA:1031,4
DA:1033,26
DA:1034,26
DA:1035,26
DA:1036,26
DA:1037,25
DA:1038,26
DA:1050,24
DA:1051,24
DA:1052,24
DA:1053,24
DA:1054,24
DA:1055,24
DA:1056,1
DA:1057,1
DA:1058,1
DA:1059,23
DA:1060,23
DA:1061,24
DA:1067,11
DA:1068,11
DA:1069,11
DA:1070,11
DA:1071,11
DA:1072,10
DA:1073,10
DA:1074,10
DA:1075,10
DA:1076,10
DA:1077,10
DA:1078,10
DA:1079,10
DA:1080,10
DA:1081,10
DA:1082,10
DA:1083,10
DA:1084,10
DA:1085,10
DA:1086,10
DA:1087,10
DA:1088,10
DA:1089,11
DA:1102,7
DA:1103,7
DA:1104,7
DA:1105,7
DA:1106,7
DA:1107,7
DA:1108,7
DA:1109,6
DA:1110,1
DA:1111,1
DA:1115,1
DA:1118,6
DA:1119,6
DA:1120,6
DA:1121,6
DA:1122,6
DA:1123,6
DA:1124,6
DA:1125,6
DA:1126,6
DA:1127,7
DA:1133,5
DA:1134,5
DA:1135,5
DA:1136,5
DA:1137,5
DA:1138,5
DA:1139,5
DA:1140,3
DA:1141,3
DA:1142,3
DA:1143,3
DA:1144,3
DA:1145,3
DA:1146,3
DA:1147,3
DA:1149,1
DA:1154,1
DA:1160,5
DA:1169,8
DA:1170,8
DA:1171,6
DA:1173,1
DA:1178,1
DA:1180,1
DA:1181,1
DA:1186,1
DA:1189,6
DA:1190,6
DA:1191,6
DA:1192,6
DA:1194,5
DA:1196,1
DA:1201,1
DA:1204,5
DA:1205,3
DA:1206,3
DA:1207,3
DA:1208,3
DA:1209,3
DA:1210,3
DA:1211,3
DA:1212,3
DA:1214,1
DA:1219,1
DA:1225,8
DA:1274,9
DA:1275,9
DA:1276,9
DA:1277,9
DA:1278,9
DA:1279,9
DA:1280,9
DA:1281,9
DA:1282,9
DA:1283,8
DA:1284,6
DA:1285,2
DA:1288,6
DA:1296,6
DA:1297,6
DA:1298,6
DA:1299,6
DA:1300,6
DA:1301,6
DA:1302,6
DA:1303,6
DA:1304,6
DA:1305,6
DA:1306,6
DA:1307,6
DA:1308,5
DA:1317,1
DA:1321,5
DA:1322,5
DA:1326,1
DA:1327,4
DA:1333,4
DA:1334,4
DA:1335,4
DA:1336,4
DA:1338,4
DA:1339,4
DA:1341,1
DA:1342,3
DA:1344,3
DA:1345,3
DA:1346,3
DA:1347,3
DA:1348,3
DA:1350,3
DA:1352,1
DA:1360,1
DA:1368,1
DA:1376,2
DA:1377,2
DA:1378,9
DA:1398,21
DA:1399,21
DA:1400,21
DA:1401,21
DA:1402,21
DA:1403,21
DA:1404,21
DA:1405,21
DA:1406,20
DA:1407,1
DA:1410,20
DA:1412,5
DA:1413,5
DA:1414,5
DA:1415,5
DA:1416,5
DA:1417,5
DA:1418,5
DA:1419,5
DA:1420,5
DA:1421,5
DA:1422,5
DA:1424,5
DA:1425,2
DA:1427,3
DA:1439,10
DA:1440,9
DA:1441,1
DA:1443,9
DA:1444,2
DA:1445,7
DA:1469,7
DA:1470,7
DA:1471,7
DA:1472,7
DA:1473,7
DA:1474,7
DA:1475,7
DA:1476,7
DA:1477,7
DA:1478,7
DA:1479,7
DA:1480,7
DA:1481,7
DA:1482,7
DA:1483,7
DA:1484,7
DA:1486,7
DA:1487,1
DA:1489,6
DA:1497,5
DA:1499,21
DA:1518,10
DA:1519,10
DA:1520,10
DA:1521,10
DA:1522,10
DA:1523,10
DA:1524,10
DA:1525,10
DA:1526,10
DA:1527,10
DA:1528,10
DA:1529,10
DA:1530,10
DA:1531,10
DA:1532,10
DA:1533,10
DA:1534,10
DA:1536,10
DA:1537,1
DA:1538,9
DA:1540,9
DA:1541,9
DA:1542,9
DA:1544,8
DA:1545,1
DA:1551,8
DA:1552,12
DA:1553,12
DA:1554,12
DA:1555,12
DA:1556,12
DA:1558,11
DA:1559,1
DA:1561,11
DA:1562,10
DA:1563,10
DA:1564,10
DA:1565,1
DA:1573,8
DA:1574,2
DA:1575,4
DA:1576,4
DA:1577,4
DA:1578,4
DA:1579,4
DA:1580,1
DA:1581,1
DA:1582,0
DA:1583,6
DA:1584,7
DA:1585,10
DA:1595,61
DA:1596,61
DA:1597,61
DA:1598,61
DA:1599,61
DA:1600,61
DA:1601,61
DA:1602,61
DA:1603,61
DA:1604,61
DA:1605,61
DA:1606,61
DA:1607,183
DA:1608,61
DA:1609,61
DA:1610,366
DA:1612,183
DA:1613,183
DA:1614,183
DA:1615,183
DA:1617,61
DA:1618,61
DA:1619,61
DA:1620,61
DA:1621,61
DA:1622,61
DA:1623,61
DA:1624,61
DA:1625,61
DA:1626,61
DA:1627,61
DA:1628,61
DA:1631,183
DA:1632,61
DA:1633,61
DA:1634,671
DA:1636,183
DA:1637,183
DA:1638,183
DA:1639,183
DA:1641,61
DA:1642,61
DA:1644,134
DA:1645,134
DA:1646,134
DA:1647,93
DA:1648,93
DA:1649,93
DA:1651,60
DA:1652,60
DA:1653,60
DA:1654,60
DA:1655,60
DA:1656,60
DA:1657,60
DA:1658,60
DA:1659,60
DA:1660,60
DA:1661,60
DA:1662,60
DA:1663,60
DA:1664,60
DA:1665,60
DA:1666,60
DA:1667,60
DA:1669,76
DA:1670,76
DA:1671,76
DA:1672,76
DA:1673,76
DA:1674,76
DA:1675,76
DA:1676,76
DA:1677,76
DA:1678,76
DA:1679,76
DA:1680,76
DA:1681,76
DA:1682,76
DA:1683,76
DA:1684,76
DA:1685,76
DA:1686,76
DA:1689,1
DA:1692,1
DA:1693,1
DA:1694,1
DA:1695,1
DA:1696,1
DA:1697,1
DA:1698,1
DA:1699,1
DA:1700,1
DA:1701,1
DA:1704,1
DA:1705,1
DA:1706,1
DA:1707,1
DA:1708,1
DA:1709,1
DA:1710,1
DA:1711,1
DA:1712,1
DA:1713,1
DA:1714,1
DA:1717,1
DA:1718,1
DA:1719,1
DA:1720,1
DA:1721,1
DA:1722,1
DA:1723,1
DA:1724,1
DA:1725,1
DA:1726,1
DA:1727,1
DA:1730,1
DA:1734,1
DA:1735,1
DA:1736,1
DA:1737,1
DA:1738,1
DA:1739,1
DA:1740,1
DA:1741,1
DA:1742,1
DA:1743,1
DA:1744,1
DA:1745,1
DA:1746,1
DA:1749,1
DA:1752,1
DA:1756,1
DA:1757,1
DA:1758,1
DA:1759,1
DA:1760,1
DA:1761,1
DA:1762,1
DA:1763,1
DA:1764,1
DA:1765,1
DA:1766,1
DA:1767,1
DA:1768,1
DA:1771,1
DA:1774,1
DA:1775,1
DA:1776,1
DA:1777,1
DA:1779,1
DA:1780,1
DA:1781,1
DA:1782,1
DA:1784,1
DA:1785,1
DA:1786,1
DA:1787,1
DA:1790,1
DA:1791,1
DA:1792,1
DA:1795,1
DA:1796,1
DA:1797,1
DA:1798,1
DA:1799,1
DA:1800,1
DA:1801,1
DA:1802,1
DA:1803,1
DA:1806,1
DA:1807,1
DA:1808,1
DA:1809,1
DA:1810,1
DA:1813,1
DA:1817,1
DA:1818,1
DA:1819,1
DA:1820,1
DA:1821,1
DA:1822,1
DA:1823,1
DA:1826,1
DA:1827,1
DA:1828,1
DA:1830,1
DA:1832,1
DA:1834,1
DA:1835,1
DA:1836,1
DA:1837,1
DA:1838,1
DA:1839,1
DA:1840,1
DA:1843,1
DA:1844,1
DA:1845,1
DA:1852,10
DA:1854,10
DA:1855,10
DA:1856,10
DA:1857,10
DA:1858,10
DA:1859,188
DA:1860,188
DA:1861,188
DA:1862,188
DA:1863,10
DA:1864,10
DA:1867,1
DA:1873,1
DA:1874,1
DA:1875,1
DA:1876,1
DA:1877,1
DA:1878,1
DA:1880,1
DA:1881,1
DA:1882,1
DA:1885,1
DA:1886,1
DA:1887,1
DA:1888,1
DA:1889,1
DA:1890,1
DA:1891,1
DA:1892,1
DA:1893,1
DA:1896,1
DA:1897,1
DA:1900,1
DA:1907,1
DA:1908,1
DA:1909,1
DA:1910,1
DA:1911,1
DA:1912,1
DA:1913,1
DA:1916,1
DA:1917,1
DA:1918,1
DA:1920,1
DA:1922,1
DA:1923,1
DA:1924,1
DA:1926,1
DA:1927,1
DA:1928,1
DA:1929,1
DA:1930,1
DA:1931,1
DA:1932,1
DA:1933,1
DA:1934,1
DA:1935,1
DA:1936,1
DA:1939,1
DA:1948,1
DA:1949,1
DA:1950,1
DA:1951,1
DA:1954,1
DA:1955,1
DA:1959,1
DA:1960,1
DA:1961,1
DA:1962,1
DA:1963,1
DA:1964,1
DA:1966,1
DA:1967,1
DA:1968,1
DA:1971,1
DA:1972,1
DA:1973,1
DA:1974,1
DA:1975,1
DA:1976,1
DA:1977,1
DA:1978,1
DA:1979,1
DA:1984,1
DA:1985,1
DA:1988,1
DA:1992,1
DA:1993,1
DA:1994,1
DA:1995,1
DA:1996,1
DA:1997,1
DA:1999,1
DA:2001,1
DA:2002,1
DA:2003,1
DA:2004,1
DA:2005,1
DA:2006,1
DA:2007,1
DA:2010,1
DA:2016,1
DA:2017,1
DA:2018,1
DA:2019,1
DA:2020,1
DA:2021,1
DA:2022,1
DA:2025,1
DA:2026,1
DA:2027,1
DA:2029,1
DA:2031,1
DA:2033,1
DA:2034,1
DA:2035,1
DA:2036,1
DA:2037,1
DA:2038,1
DA:2039,1
DA:2042,1
DA:2048,1
DA:2049,1
DA:2050,1
DA:2052,1
DA:2053,1
DA:2054,1
DA:2055,1
DA:2058,1
DA:2059,1
DA:2060,1
DA:2062,1
DA:2065,1
DA:2066,1
DA:2067,1
DA:2068,1
DA:2069,1
DA:2070,1
DA:2071,1
DA:2072,1
DA:2073,1
DA:2074,1
DA:2075,1
DA:2076,1
DA:2077,1
DA:2078,1
DA:2079,1
DA:2080,1
DA:2081,1
DA:2085,1
DA:2086,1
DA:2087,1
DA:2088,1
DA:2089,1
DA:2090,1
DA:2091,1
DA:2092,1
DA:2093,1
DA:2094,1
DA:2095,1
DA:2096,1
DA:2097,1
DA:2098,1
DA:2099,1
DA:2100,1
DA:2102,1
DA:2103,1
DA:2104,1
DA:2105,1
DA:2106,1
DA:2107,1
DA:2108,1
DA:2109,1
DA:2110,1
DA:2111,1
DA:2112,1
DA:2113,1
DA:2114,1
DA:2115,1
DA:2116,1
DA:2117,1
DA:2118,1
DA:2119,1
DA:2122,1
DA:2130,1
DA:2131,1
DA:2132,1
DA:2133,1
DA:2134,1
DA:2135,1
DA:2136,1
DA:2139,1
DA:2140,1
DA:2141,1
DA:2146,1
DA:2147,1
DA:2148,1
DA:2149,1
DA:2153,1
DA:2154,1
DA:2155,1
DA:2156,1
DA:2157,1
DA:2158,1
DA:2159,1
DA:2160,1
DA:2161,1
DA:2162,1
DA:2163,1
DA:2164,1
DA:2165,1
DA:2166,1
DA:2167,1
DA:2168,1
DA:2169,1
DA:2170,1
DA:2172,1
DA:2173,1
DA:2174,1
DA:2175,1
DA:2176,1
DA:2177,1
DA:2178,1
DA:2179,1
DA:2180,1
DA:2181,1
DA:2182,1
DA:2183,1
DA:2184,1
DA:2185,1
DA:2186,1
DA:2187,1
DA:2190,1
DA:2191,1
DA:2192,1
DA:2193,1
DA:2194,1
DA:2195,1
DA:2196,1
DA:2197,1
DA:2198,1
DA:2199,1
DA:2200,1
DA:2201,1
DA:2202,1
DA:2203,1
DA:2204,1
DA:2207,1
DA:2208,1
DA:2209,1
DA:2210,1
DA:2211,1
DA:2212,1
DA:2214,1
DA:2217,1
DA:2218,1
DA:2221,1
DA:2230,1
DA:2231,1
DA:2232,1
DA:2233,1
DA:2234,1
DA:2235,1
DA:2236,1
DA:2239,1
DA:2240,1
DA:2241,1
DA:2243,1
DA:2244,1
DA:2245,1
DA:2248,1
DA:2249,1
DA:2250,3
DA:2251,3
DA:2252,3
DA:2253,3
DA:2254,3
DA:2255,3
DA:2256,3
DA:2257,3
DA:2258,3
DA:2259,3
DA:2260,3
DA:2261,3
DA:2262,3
DA:2263,3
DA:2264,3
DA:2268,1
DA:2269,1
DA:2270,1
DA:2272,1
DA:2275,1
DA:2276,1
DA:2277,1
DA:2278,1
DA:2279,1
DA:2280,1
DA:2281,1
DA:2282,1
DA:2283,1
DA:2284,1
DA:2285,1
DA:2286,1
DA:2287,1
DA:2288,1
DA:2289,1
DA:2290,1
DA:2291,1
DA:2292,1
DA:2293,1
DA:2294,1
DA:2297,1
DA:2302,1
DA:2303,1
DA:2304,1
DA:2305,1
DA:2306,1
DA:2307,1
DA:2310,1
DA:2311,1
DA:2312,1
DA:2314,1
DA:2316,1
DA:2318,1
DA:2319,1
DA:2320,1
DA:2321,1
DA:2322,1
DA:2323,1
DA:2324,1
DA:2327,1
DA:2333,1
DA:2334,1
DA:2335,1
DA:2336,1
DA:2337,1
DA:2338,1
DA:2341,1
DA:2342,1
DA:2343,1
DA:2345,1
DA:2346,1
DA:2347,1
DA:2348,1
DA:2349,1
DA:2350,1
DA:2351,1
DA:2353,1
DA:2355,1
DA:2356,1
DA:2357,1
DA:2358,1
DA:2359,1
DA:2360,1
DA:2361,1
DA:2362,1
DA:2363,1
DA:2364,1
DA:2365,1
DA:2372,1
DA:2376,1
DA:2377,1
DA:2378,1
DA:2379,1
DA:2380,1
DA:2381,1
DA:2382,1
DA:2384,1
DA:2385,1
DA:2386,1
DA:2387,1
DA:2389,1
DA:2390,1
DA:2391,1
DA:2392,1
DA:2393,1
DA:2394,1
DA:2395,1
DA:2396,1
DA:2397,1
DA:2400,1
DA:2404,1
DA:2405,1
DA:2406,1
DA:2407,1
DA:2408,1
DA:2409,1
DA:2410,1
DA:2413,1
DA:2414,1
DA:2415,1
DA:2417,1
DA:2419,1
DA:2420,1
DA:2421,1
DA:2422,1
DA:2424,1
DA:2425,1
DA:2426,1
DA:2427,1
DA:2428,1
DA:2429,1
DA:2430,1
DA:2431,1
DA:2432,1
DA:2435,1
DA:2441,1
DA:2442,1
DA:2443,1
DA:2444,1
DA:2445,1
DA:2446,1
DA:2447,1
DA:2448,1
DA:2451,1
DA:2452,1
DA:2453,1
DA:2455,1
DA:2456,1
DA:2457,1
DA:2458,1
DA:2460,1
DA:2461,1
DA:2462,1
DA:2463,1
DA:2465,1
DA:2466,1
DA:2467,1
DA:2468,1
DA:2469,1
DA:2470,1
DA:2471,1
DA:2472,1
DA:2473,1
DA:2476,1
DA:2477,1
DA:2480,1
DA:2484,1
DA:2485,1
DA:2486,1
DA:2487,1
DA:2488,1
DA:2489,1
DA:2490,1
DA:2491,1
DA:2494,1
DA:2495,1
DA:2496,1
DA:2498,1
DA:2499,1
DA:2500,1
DA:2502,1
DA:2503,1
DA:2504,1
DA:2505,1
DA:2507,1
DA:2508,1
DA:2509,1
DA:2510,1
DA:2511,1
DA:2512,1
DA:2513,1
DA:2514,1
DA:2515,1
DA:2516,1
DA:2519,1
DA:2523,1
DA:2524,1
DA:2525,1
DA:2526,1
DA:2527,1
DA:2528,1
DA:2529,1
DA:2530,1
DA:2533,1
DA:2534,1
DA:2535,1
DA:2537,1
DA:2538,1
DA:2540,1
DA:2541,1
DA:2542,1
DA:2543,1
DA:2544,1
DA:2547,1
DA:2552,1
DA:2553,1
DA:2554,1
DA:2555,1
DA:2556,1
DA:2557,1
DA:2558,1
DA:2561,1
DA:2562,1
DA:2563,1
DA:2565,1
DA:2566,1
DA:2567,1
DA:2569,1
DA:2570,1
DA:2571,1
DA:2572,1
DA:2573,1
DA:2576,1
DA:2583,1
DA:2584,1
DA:2585,1
DA:2586,1
DA:2587,1
DA:2588,1
DA:2589,1
DA:2592,1
DA:2593,1
DA:2594,1
DA:2596,1
DA:2597,1
DA:2598,1
DA:2600,1
DA:2601,1
DA:2602,1
DA:2603,1
DA:2604,1
DA:2608,1
DA:2609,1
DA:2610,1
DA:2611,1
DA:2612,1
DA:2614,1
DA:2615,1
DA:2616,1
DA:2617,1
DA:2618,1
DA:2619,1
DA:2620,1
DA:2621,1
DA:2622,1
DA:2625,1
DA:2631,1
DA:2632,1
DA:2633,1
DA:2634,1
DA:2635,1
DA:2636,1
DA:2637,1
DA:2640,1
DA:2641,1
DA:2642,1
DA:2644,1
DA:2645,1
DA:2646,1
DA:2649,1
DA:2650,1
DA:2651,1
DA:2652,1
DA:2654,1
DA:2655,1
DA:2656,1
DA:2657,1
DA:2658,1
DA:2659,1
DA:2660,1
DA:2669,1
DA:2670,1
DA:2671,3
DA:2672,3
DA:2673,3
DA:2674,3
DA:2675,3
DA:2676,3
DA:2677,3
DA:2678,3
DA:2679,3
DA:2680,3
DA:2681,3
DA:2682,3
DA:2683,3
DA:2684,3
DA:2685,3
DA:2687,1
DA:2690,1
DA:2691,1
DA:2692,1
DA:2693,1
DA:2695,1
DA:2696,1
DA:2697,1
DA:2698,1
DA:2699,1
DA:2700,1
DA:2701,1
DA:2702,1
DA:2703,1
DA:2706,1
DA:2711,1
DA:2712,1
DA:2714,5
DA:2715,1
DA:2716,1
DA:2717,1
DA:2718,1
DA:2719,1
DA:2720,1
DA:2721,5
DA:2722,5
DA:2723,5
DA:2724,5
DA:2725,5
DA:2726,1
DA:2727,1
DA:2728,5
DA:2729,5
DA:2730,5
DA:2731,1
DA:2732,5
DA:2733,5
DA:2734,1
DA:2735,5
DA:2736,5
DA:2737,5
DA:2738,5
DA:2739,5
DA:2740,1
DA:2741,5
DA:2742,5
DA:2743,5
DA:2744,5
DA:2745,5
DA:2746,5
DA:2747,1
DA:2748,1
DA:2751,1
DA:2757,1
DA:2758,1
DA:2759,1
DA:2760,1
DA:2761,1
DA:2763,1
DA:2764,1
DA:2765,1
DA:2766,1
DA:2767,1
DA:2770,1
DA:2780,1
DA:2781,1
DA:2782,1
DA:2783,1
DA:2784,1
DA:2785,1
DA:2786,1
DA:2789,1
DA:2790,1
DA:2791,1
DA:2793,1
DA:2794,1
DA:2795,1
DA:2796,1
DA:2798,1
DA:2799,1
DA:2800,1
DA:2801,1
DA:2803,1
DA:2804,1
DA:2805,1
DA:2806,1
DA:2807,1
DA:2808,1
DA:2809,1
DA:2810,1
DA:2811,1
DA:2812,1
DA:2813,1
DA:2814,1
DA:2815,1
DA:2818,1
DA:2823,1
DA:2824,1
DA:2825,1
DA:2826,1
DA:2827,1
DA:2828,1
DA:2830,1
DA:2831,1
DA:2832,1
DA:2833,1
DA:2835,1
DA:2836,1
DA:2837,1
DA:2838,1
DA:2839,1
DA:2840,1
DA:2841,1
DA:2844,1
DA:2846,1
DA:2847,1
DA:2848,1
DA:2849,1
DA:2850,1
DA:2851,1
DA:2854,1
DA:2855,1
DA:2856,1
DA:2858,1
DA:2860,1
DA:2862,1
DA:2863,1
DA:2864,1
DA:2865,1
DA:2866,1
DA:2867,1
DA:2868,1
DA:2871,1
DA:2876,1
DA:2877,1
DA:2878,1
DA:2879,1
DA:2880,1
DA:2881,1
DA:2884,1
DA:2885,1
DA:2886,1
DA:2888,1
DA:2889,1
DA:2894,1
DA:2895,1
DA:2896,1
DA:2898,1
DA:2899,1
DA:2900,1
DA:2901,1
DA:2902,1
DA:2903,1
DA:2904,1
DA:2909,19
DA:2911,19
DA:2912,19
DA:2913,19
DA:2914,19
DA:2915,19
DA:2916,302
DA:2917,302
DA:2918,302
DA:2919,302
DA:2920,19
DA:2921,19
DA:2922,19
DA:2925,1
DA:2929,1
DA:2930,1
DA:2931,1
DA:2932,1
DA:2933,1
DA:2934,1
DA:2936,1
DA:2937,1
DA:2938,1
DA:2939,1
DA:2940,1
DA:2941,1
DA:2943,1
DA:2944,1
DA:2945,1
DA:2948,1
DA:2952,1
DA:2953,1
DA:2954,1
DA:2955,1
DA:2956,1
DA:2957,1
DA:2959,1
DA:2960,1
DA:2961,1
DA:2962,1
DA:2963,1
DA:2965,1
DA:2966,1
DA:2967,1
DA:2970,1
DA:2973,1
DA:2974,1
DA:2975,1
DA:2976,1
DA:2977,1
DA:2978,1
DA:2979,1
DA:2982,1
DA:2983,1
DA:2984,1
DA:2986,1
DA:2988,1
DA:2989,1
DA:2990,1
DA:2991,1
DA:2992,1
DA:2994,1
DA:2995,1
DA:2996,1
DA:2997,1
DA:2998,1
DA:2999,1
DA:3000,1
DA:3001,1
DA:3002,1
DA:3005,1
DA:3009,1
DA:3010,1
DA:3011,1
DA:3012,1
DA:3014,1
DA:3015,1
DA:3017,1
DA:3018,1
DA:3019,1
DA:3020,1
DA:3021,1
DA:3023,1
DA:3024,1
DA:3025,1
DA:3026,1
DA:3027,1
DA:3028,1
DA:3029,1
DA:3030,1
DA:3036,24
DA:3038,24
DA:3039,24
DA:3040,24
DA:3041,24
DA:3042,24
DA:3043,24
DA:3044,24
DA:3045,24
DA:3046,24
DA:3047,24
DA:3048,24
DA:3049,24
DA:3050,24
DA:3051,24
DA:3052,24
DA:3053,24
DA:3054,24
DA:3055,24
DA:3056,24
DA:3057,24
DA:3064,11
DA:3065,11
DA:3066,11
DA:3067,11
DA:3068,11
DA:3069,11
DA:3070,11
DA:3071,11
DA:3072,11
DA:3073,11
DA:3074,11
DA:3075,11
DA:3076,11
DA:3077,11
DA:3078,11
DA:3079,11
DA:3084,7
DA:3089,7
DA:3090,7
DA:3091,7
DA:3092,7
DA:3093,7
DA:3094,7
DA:3095,7
DA:3096,7
DA:3097,7
DA:3098,7
DA:3099,7
DA:3100,7
DA:3101,7
DA:3102,7
DA:3103,7
DA:3106,1
DA:3107,1
DA:3108,1
DA:3109,1
DA:3110,1
DA:3113,1
DA:3114,1
DA:3115,1
DA:3116,1
DA:3117,1
DA:3118,1
DA:3121,1
DA:3124,1
DA:3125,1
DA:3126,1
DA:3127,1
DA:3128,1
DA:3129,1
DA:3130,1
DA:3132,1
DA:3133,1
DA:3134,1
DA:3135,1
DA:3138,1
DA:3139,1
DA:3140,1
DA:3141,1
DA:3142,1
DA:3143,1
DA:3146,1
DA:3147,1
DA:3148,1
DA:3149,1
DA:3150,1
DA:3151,1
DA:3152,1
DA:3153,1
DA:3155,1
DA:3156,1
DA:3159,1
DA:3163,1
DA:3164,1
DA:3165,1
DA:3166,1
DA:3168,1
DA:3169,1
DA:3170,1
DA:3172,1
DA:3173,1
DA:3174,1
DA:3175,1
DA:3176,1
DA:3179,1
DA:3180,1
DA:3181,1
DA:3183,1
DA:3185,1
DA:3186,1
DA:3188,1
DA:3189,1
DA:3190,1
DA:3191,1
DA:3192,1
DA:3193,1
DA:3194,1
DA:3195,1
DA:3196,1
DA:3197,1
DA:3198,1
DA:3199,1
DA:3200,1
DA:3203,1
DA:3204,1
DA:3205,1
DA:3206,1
DA:3207,1
DA:3209,1
DA:3210,1
DA:3211,1
DA:3212,1
DA:3214,1
DA:3215,1
DA:3216,1
DA:3217,1
DA:3219,1
DA:3220,1
DA:3222,1
DA:3223,1
DA:3224,1
DA:3225,1
DA:3226,1
DA:3227,1
DA:3228,1
DA:3231,1
DA:3232,1
DA:3233,1
DA:3234,1
DA:3235,1
DA:3236,1
DA:3237,1
DA:3238,1
DA:3240,1
DA:3241,1
DA:3243,1
DA:3244,1
DA:3245,1
DA:3246,1
DA:3247,1
DA:3248,1
DA:3249,1
DA:3252,1
DA:3253,1
DA:3254,1
DA:3255,1
DA:3256,1
DA:3257,1
DA:3258,1
DA:3259,1
DA:3262,1
DA:3263,1
DA:3264,1
DA:3266,1
DA:3268,1
DA:3269,1
DA:3270,1
DA:3271,1
DA:3272,1
DA:3273,1
DA:3276,1
DA:3283,1
DA:3284,1
DA:3285,1
DA:3286,1
DA:3287,1
DA:3288,1
DA:3289,1
DA:3290,1
DA:3293,1
DA:3294,1
DA:3295,1
DA:3297,1
DA:3299,1
DA:3300,1
DA:3302,1
DA:3303,1
DA:3304,1
DA:3305,1
DA:3306,1
DA:3307,1
DA:3308,1
DA:3309,1
DA:3312,1
DA:3313,1
DA:3314,1
DA:3315,1
DA:3316,1
DA:3317,1
DA:3318,1
DA:3319,1
DA:3322,1
DA:3323,1
DA:3324,1
DA:3326,1
DA:3327,1
DA:3328,1
DA:3329,1
DA:3330,1
DA:3331,1
DA:3332,1
DA:3333,1
DA:3334,1
DA:3335,1
DA:3337,1
DA:3339,1
DA:3340,1
DA:3341,1
DA:3342,1
DA:3343,1
DA:3344,1
DA:3345,1
DA:3348,1
DA:3349,1
DA:3350,1
DA:3351,1
DA:3352,1
DA:3353,1
DA:3354,1
DA:3355,1
DA:3358,1
DA:3359,1
DA:3360,1
DA:3362,1
DA:3363,1
DA:3365,1
DA:3366,1
DA:3369,1
DA:3372,1
DA:3373,1
DA:3374,1
DA:3375,1
DA:3376,1
DA:3377,1
DA:3378,1
DA:3379,1
DA:3380,1
DA:3381,1
DA:3382,1
DA:3383,1
DA:3384,1
DA:3385,1
DA:3386,1
DA:3387,1
DA:3388,1
DA:3389,1
DA:3390,1
DA:3393,1
DA:3394,1
DA:3395,1
DA:3397,1
DA:3399,1
DA:3400,1
DA:3401,1
DA:3402,1
DA:3405,1
DA:3406,1
DA:3407,1
DA:3408,1
DA:3409,1
DA:3410,1
DA:3411,1
DA:3412,1
DA:3414,1
DA:3415,1
DA:3418,1
DA:3419,1
DA:3420,1
DA:3421,1
DA:3422,1
DA:3423,1
DA:3424,1
DA:3425,1
DA:3428,1
DA:3429,1
DA:3430,1
DA:3432,1
DA:3434,1
DA:3435,1
DA:3436,1
DA:3437,1
DA:3438,1
DA:3439,1
DA:3440,1
DA:3441,1
DA:3442,1
DA:3443,1
DA:3444,1
DA:3446,1
DA:3447,1
DA:3448,1
DA:3449,1
DA:3450,1
DA:3451,1
DA:3452,1
DA:3453,1
DA:3456,1
DA:3461,1
DA:3462,1
DA:3463,1
DA:3464,1
DA:3465,1
DA:3466,1
DA:3467,1
DA:3468,1
DA:3469,1
DA:3470,1
DA:3473,1
DA:3474,1
DA:3475,1
DA:3477,1
DA:3479,1
DA:3480,1
DA:3481,1
DA:3482,1
DA:3484,1
DA:3485,1
DA:3486,1
DA:3487,1
DA:3488,1
DA:3489,1
DA:3490,1
DA:3492,1
DA:3494,1
DA:3495,1
DA:3496,1
DA:3497,1
DA:3500,1
DA:3505,1
DA:3506,1
DA:3507,1
DA:3508,1
DA:3509,1
DA:3510,1
DA:3511,1
DA:3512,1
DA:3513,1
DA:3516,1
DA:3517,1
DA:3518,1
DA:3520,1
DA:3521,1
DA:3523,1
DA:3524,1
DA:3525,1
DA:3526,1
DA:3528,1
DA:3529,1
DA:3530,1
DA:3531,1
DA:3532,1
DA:3533,1
DA:3534,1
DA:3535,1
DA:3538,1
DA:3541,1
DA:3542,1
DA:3543,1
DA:3544,1
DA:3545,1
DA:3546,1
DA:3547,1
DA:3548,1
DA:3551,1
DA:3552,1
DA:3553,1
DA:3555,1
DA:3556,1
DA:3557,1
DA:3558,1
DA:3559,1
DA:3560,1
DA:3561,1
DA:3563,1
DA:3564,1
DA:3565,1
DA:3566,1
DA:3568,1
DA:3569,1
DA:3570,1
DA:3571,1
DA:3572,1
DA:3573,1
DA:3574,1
DA:3578,1
DA:3579,1
DA:3582,1
DA:3586,1
DA:3587,1
DA:3588,1
DA:3589,1
DA:3590,1
DA:3591,1
DA:3592,1
DA:3595,1
DA:3596,1
DA:3597,1
DA:3599,1
DA:3600,1
DA:3601,1
DA:3602,1
DA:3603,1
DA:3604,1
DA:3605,1
DA:3606,1
DA:3608,1
DA:3609,1
DA:3610,1
DA:3611,1
DA:3612,1
DA:3613,1
DA:3616,1
DA:3620,1
DA:3621,1
DA:3622,1
DA:3623,1
DA:3624,1
DA:3625,1
DA:3626,1
DA:3629,1
DA:3630,1
DA:3631,1
DA:3633,1
DA:3634,1
DA:3636,1
DA:3637,1
DA:3638,1
DA:3639,1
DA:3640,1
DA:3641,1
DA:3643,1
DA:3644,1
DA:3646,1
DA:3647,1
DA:3648,1
DA:3649,1
DA:3650,1
DA:3651,1
DA:3652,1
DA:3653,1
DA:3654,1
DA:3655,1
DA:3657,1
DA:3658,1
DA:3659,1
DA:3660,1
DA:3661,1
DA:3662,1
DA:3663,1
DA:3664,1
DA:3667,1
DA:3670,1
DA:3671,1
DA:3672,1
DA:3673,1
DA:3674,1
DA:3675,1
DA:3676,1
DA:3677,1
DA:3678,1
DA:3679,1
DA:3680,1
DA:3681,1
DA:3684,1
DA:3685,1
DA:3686,1
DA:3688,1
DA:3689,1
DA:3690,1
DA:3691,1
DA:3692,1
DA:3693,1
DA:3694,1
DA:3695,1
DA:3698,1
DA:3699,1
DA:3700,1
DA:3701,1
DA:3702,1
DA:3703,1
DA:3704,1
DA:3707,1
DA:3714,1
DA:3715,1
DA:3716,1
DA:3717,1
DA:3718,1
DA:3719,1
DA:3720,1
DA:3721,1
DA:3723,1
DA:3724,1
DA:3726,1
DA:3727,1
DA:3728,1
DA:3729,1
DA:3732,1
DA:3733,1
DA:3734,1
DA:3735,1
DA:3736,1
DA:3737,1
DA:3738,1
DA:3741,1
DA:3742,1
DA:3745,1
DA:3746,1
DA:3747,1
DA:3748,1
DA:3749,1
DA:3750,1
DA:3751,1
DA:3752,1
DA:3753,1
DA:3758,1
DA:3759,1
DA:3760,1
DA:3761,1
DA:3762,1
DA:3763,1
DA:3764,1
DA:3765,1
DA:3770,1
DA:3771,1
DA:3772,1
DA:3773,1
DA:3774,1
DA:3775,1
DA:3776,1
DA:3777,1
DA:3778,1
DA:3779,1
DA:3780,1
DA:3788,7
DA:3789,7
DA:3790,7
DA:3791,7
DA:3792,7
DA:3793,7
DA:3795,8
DA:3796,8
DA:3797,8
DA:3798,8
DA:3799,8
DA:3800,8
DA:3801,8
DA:3803,8
DA:3805,8
DA:3806,8
DA:3807,8
DA:3808,8
DA:3809,8
DA:3810,8
DA:3811,8
DA:3812,8
DA:3813,8
DA:3816,1
DA:3817,1
DA:3818,1
DA:3819,1
DA:3820,1
DA:3821,1
DA:3824,1
DA:3825,1
DA:3826,1
DA:3827,1
DA:3832,1
DA:3833,1
DA:3834,1
DA:3835,1
DA:3836,1
DA:3837,1
DA:3838,1
DA:3839,1
DA:3842,1
DA:3843,1
DA:3844,1
DA:3845,1
DA:3846,1
DA:3847,1
DA:3848,1
DA:3850,1
DA:3851,1
DA:3852,1
DA:3853,1
DA:3854,1
DA:3855,1
DA:3856,1
DA:3859,1
DA:3862,1
DA:3863,1
DA:3864,1
DA:3865,1
DA:3866,1
DA:3867,1
DA:3868,1
DA:3869,1
DA:3870,1
DA:3873,1
DA:3874,1
DA:3875,1
DA:3877,1
DA:3879,1
DA:3880,1
DA:3881,1
DA:3882,1
DA:3883,1
DA:3884,1
DA:3885,1
DA:3888,1
DA:3889,1
DA:3890,1
DA:3891,1
DA:3892,1
DA:3893,1
DA:3894,1
DA:3895,1
DA:3896,1
DA:3897,1
DA:3900,1
DA:3901,1
DA:3902,1
DA:3904,1
DA:3906,1
DA:3907,1
DA:3908,1
DA:3909,1
DA:3910,1
DA:3911,1
DA:3912,1
DA:3915,1
DA:3919,1
DA:3920,1
DA:3921,1
DA:3922,1
DA:3923,1
DA:3924,1
DA:3925,1
DA:3926,1
DA:3927,1
DA:3930,1
DA:3931,1
DA:3932,1
DA:3934,1
DA:3936,1
DA:3937,1
DA:3938,1
DA:3939,1
DA:3940,1
DA:3941,1
DA:3942,1
DA:3943,1
DA:3944,1
DA:3945,1
DA:3946,1
DA:3948,1
DA:3949,1
DA:3950,1
DA:3951,1
DA:3952,1
DA:3953,1
DA:3954,1
DA:3955,1
DA:3958,1
DA:3964,1
DA:3965,1
DA:3966,1
DA:3967,1
DA:3968,1
DA:3969,1
DA:3970,1
DA:3971,1
DA:3972,1
DA:3975,1
DA:3976,1
DA:3977,1
DA:3979,1
DA:3980,1
DA:3981,1
DA:3982,1
DA:3984,1
DA:3985,1
DA:3986,1
DA:3987,1
DA:3988,1
DA:3989,1
DA:3991,1
DA:3992,1
DA:3993,1
DA:3994,1
DA:3995,1
DA:3996,1
DA:3997,1
DA:3998,1
DA:3999,1
DA:4000,1
DA:4003,1
DA:4010,1
DA:4011,1
DA:4012,1
DA:4013,1
DA:4014,1
DA:4015,1
DA:4016,1
DA:4017,1
DA:4018,1
DA:4021,1
DA:4022,1
DA:4023,1
DA:4025,1
DA:4027,1
DA:4028,1
DA:4029,1
DA:4030,1
DA:4031,1
DA:4035,1
DA:4036,1
DA:4037,1
DA:4038,1
DA:4039,1
DA:4040,1
DA:4041,1
DA:4042,1
DA:4047,1
DA:4052,1
DA:4053,1
DA:4054,1
DA:4055,1
DA:4056,1
DA:4057,1
DA:4059,1
DA:4060,1
DA:4061,1
DA:4064,1
DA:4065,1
DA:4066,1
DA:4068,1
DA:4070,1
DA:4071,1
DA:4072,1
DA:4073,1
DA:4074,1
DA:4077,1
DA:4083,1
DA:4084,1
DA:4085,1
DA:4087,1
DA:4088,1
DA:4089,1
DA:4092,1
DA:4093,1
DA:4094,1
DA:4096,1
DA:4097,1
DA:4099,1
DA:4100,1
DA:4101,1
DA:4104,1
DA:4105,1
DA:4106,1
DA:4108,1
DA:4110,1
DA:4111,1
DA:4112,1
DA:4115,1
DA:4116,1
DA:4117,1
DA:4119,1
DA:4121,1
DA:4122,1
DA:4123,1
DA:4124,1
DA:4125,1
DA:4128,1
DA:4134,1
DA:4135,1
DA:4136,1
DA:4138,1
DA:4139,1
DA:4140,1
DA:4143,1
DA:4144,1
DA:4145,1
DA:4147,1
DA:4148,1
DA:4149,1
DA:4150,1
DA:4153,1
DA:4154,1
DA:4155,1
DA:4157,1
DA:4159,1
DA:4160,1
DA:4161,1
DA:4162,1
DA:4163,1
DA:4164,1
DA:4170,1
DA:4171,1
DA:4172,1
DA:4173,1
DA:4174,1
DA:4175,1
DA:4176,1
DA:4177,1
BRF:0
BRH:0
LF:2741
LH:2667
end_of_record
SF:/home/runner/work/mostro/mostro/src/app/bond/slash.rs
FN:275,_RINvNtNtNtCsawjdjYzw0zz_7mostrod3app4bond5slash21apply_bond_resolutionINtNtCsauO83Ko6oyK_5alloc4sync3ArcNtNtB2_5tests10StubSettleEEB8_
FN:275,_RINvNtNtNtCsawjdjYzw0zz_7mostrod3app4bond5slash21apply_bond_resolutionNtNtB8_9lightning12LndConnectorEB8_
FN:481,_RINvNtNtNtCsawjdjYzw0zz_7mostrod3app4bond5slash27slash_or_release_on_timeoutINtNtCsauO83Ko6oyK_5alloc4sync3ArcNtNtB2_5tests10StubSettleEEB8_
FN:481,_RINvNtNtNtCsawjdjYzw0zz_7mostrod3app4bond5slash27slash_or_release_on_timeoutNtNtB8_9lightning12LndConnectorEB8_
FN:1069,_RINvNtNtNtCsawjdjYzw0zz_7mostrod3app4bond5slash33resolve_range_maker_bond_at_closeINtNtCsauO83Ko6oyK_5alloc4sync3ArcNtNtB2_5tests10StubSettleEEB8_
FN:1069,_RINvNtNtNtCsawjdjYzw0zz_7mostrod3app4bond5slash33resolve_range_maker_bond_at_closeNtNtB2_5tests17RaceWinningSettleEB8_
FN:1069,_RINvNtNtNtCsawjdjYzw0zz_7mostrod3app4bond5slash33resolve_range_maker_bond_at_closeNtNtB8_9lightning12LndConnectorEB8_
FN:1351,_RINvNtNtNtCsawjdjYzw0zz_7mostrod3app4bond5slash41reconcile_stranded_range_maker_bonds_withINtNtCsauO83Ko6oyK_5alloc4sync3ArcNtNtB2_5tests10StubSettleEEB8_
FN:1351,_RINvNtNtNtCsawjdjYzw0zz_7mostrod3app4bond5slash41reconcile_stranded_range_maker_bonds_withNtNtB8_9lightning12LndConnectorEB8_
FN:779,_RINvNtNtNtCsawjdjYzw0zz_7mostrod3app4bond5slash9slash_oneINtNtCsauO83Ko6oyK_5alloc4sync3ArcNtNtB2_5tests10StubSettleEEB8_
FN:779,_RINvNtNtNtCsawjdjYzw0zz_7mostrod3app4bond5slash9slash_oneNtNtB8_9lightning12LndConnectorEB8_
FN:281,_RNCINvNtNtNtCsawjdjYzw0zz_7mostrod3app4bond5slash21apply_bond_resolutionINtNtCsauO83Ko6oyK_5alloc4sync3ArcNtNtB4_5tests10StubSettleEE0Ba_
FN:281,_RNCINvNtNtNtCsawjdjYzw0zz_7mostrod3app4bond5slash21apply_bond_resolutionNtNtBa_9lightning12LndConnectorE0Ba_
FN:486,_RNCINvNtNtNtCsawjdjYzw0zz_7mostrod3app4bond5slash27slash_or_release_on_timeoutINtNtCsauO83Ko6oyK_5alloc4sync3ArcNtNtB4_5tests10StubSettleEE0Ba_
FN:486,_RNCINvNtNtNtCsawjdjYzw0zz_7mostrod3app4bond5slash27slash_or_release_on_timeoutNtNtBa_9lightning12LndConnectorE0Ba_
FN:1073,_RNCINvNtNtNtCsawjdjYzw0zz_7mostrod3app4bond5slash33resolve_range_maker_bond_at_closeINtNtCsauO83Ko6oyK_5alloc4sync3ArcNtNtB4_5tests10StubSettleEE0Ba_
FN:1073,_RNCINvNtNtNtCsawjdjYzw0zz_7mostrod3app4bond5slash33resolve_range_maker_bond_at_closeNtNtB4_5tests17RaceWinningSettleE0Ba_
FN:1073,_RNCINvNtNtNtCsawjdjYzw0zz_7mostrod3app4bond5slash33resolve_range_maker_bond_at_closeNtNtBa_9lightning12LndConnectorE0Ba_
FN:1354,_RNCINvNtNtNtCsawjdjYzw0zz_7mostrod3app4bond5slash41reconcile_stranded_range_maker_bonds_withINtNtCsauO83Ko6oyK_5alloc4sync3ArcNtNtB4_5tests10StubSettleEE0Ba_
FN:1354,_RNCINvNtNtNtCsawjdjYzw0zz_7mostrod3app4bond5slash41reconcile_stranded_range_maker_bonds_withNtNtBa_9lightning12LndConnectorE0Ba_
FN:785,_RNCINvNtNtNtCsawjdjYzw0zz_7mostrod3app4bond5slash9slash_oneINtNtCsauO83Ko6oyK_5alloc4sync3ArcNtNtB4_5tests10StubSettleEE0Ba_
FN:785,_RNCINvNtNtNtCsawjdjYzw0zz_7mostrod3app4bond5slash9slash_oneNtNtBa_9lightning12LndConnectorE0Ba_
FN:517,_RNCNCINvNtNtNtCsawjdjYzw0zz_7mostrod3app4bond5slash27slash_or_release_on_timeoutINtNtCsauO83Ko6oyK_5alloc4sync3ArcNtNtB6_5tests10StubSettleEE00Bc_
FN:517,_RNCNCINvNtNtNtCsawjdjYzw0zz_7mostrod3app4bond5slash27slash_or_release_on_timeoutNtNtBc_9lightning12LndConnectorE00Bc_
FN:1088,_RNCNCINvNtNtNtCsawjdjYzw0zz_7mostrod3app4bond5slash33resolve_range_maker_bond_at_closeINtNtCsauO83Ko6oyK_5alloc4sync3ArcNtNtB6_5tests10StubSettleEE00Bc_
FN:1144,_RNCNCINvNtNtNtCsawjdjYzw0zz_7mostrod3app4bond5slash33resolve_range_maker_bond_at_closeINtNtCsauO83Ko6oyK_5alloc4sync3ArcNtNtB6_5tests10StubSettleEE0s0_0Bc_
FN:1156,_RNCNCINvNtNtNtCsawjdjYzw0zz_7mostrod3app4bond5slash33resolve_range_maker_bond_at_closeINtNtCsauO83Ko6oyK_5alloc4sync3ArcNtNtB6_5tests10StubSettleEE0s1_0Bc_
FN:1181,_RNCNCINvNtNtNtCsawjdjYzw0zz_7mostrod3app4bond5slash33resolve_range_maker_bond_at_closeINtNtCsauO83Ko6oyK_5alloc4sync3ArcNtNtB6_5tests10StubSettleEE0s2_0Bc_
FN:1202,_RNCNCINvNtNtNtCsawjdjYzw0zz_7mostrod3app4bond5slash33resolve_range_maker_bond_at_closeINtNtCsauO83Ko6oyK_5alloc4sync3ArcNtNtB6_5tests10StubSettleEE0s3_0Bc_
FN:1214,_RNCNCINvNtNtNtCsawjdjYzw0zz_7mostrod3app4bond5slash33resolve_range_maker_bond_at_closeINtNtCsauO83Ko6oyK_5alloc4sync3ArcNtNtB6_5tests10StubSettleEE0s4_0Bc_
FN:1215,_RNCNCINvNtNtNtCsawjdjYzw0zz_7mostrod3app4bond5slash33resolve_range_maker_bond_at_closeINtNtCsauO83Ko6oyK_5alloc4sync3ArcNtNtB6_5tests10StubSettleEE0s5_0Bc_
FN:1235,_RNCNCINvNtNtNtCsawjdjYzw0zz_7mostrod3app4bond5slash33resolve_range_maker_bond_at_closeINtNtCsauO83Ko6oyK_5alloc4sync3ArcNtNtB6_5tests10StubSettleEE0s6_0Bc_
FN:1240,_RNCNCINvNtNtNtCsawjdjYzw0zz_7mostrod3app4bond5slash33resolve_range_maker_bond_at_closeINtNtCsauO83Ko6oyK_5alloc4sync3ArcNtNtB6_5tests10StubSettleEE0s7_0Bc_
FN:1088,_RNCNCINvNtNtNtCsawjdjYzw0zz_7mostrod3app4bond5slash33resolve_range_maker_bond_at_closeNtNtB6_5tests17RaceWinningSettleE00Bc_
FN:1144,_RNCNCINvNtNtNtCsawjdjYzw0zz_7mostrod3app4bond5slash33resolve_range_maker_bond_at_closeNtNtB6_5tests17RaceWinningSettleE0s0_0Bc_
FN:1156,_RNCNCINvNtNtNtCsawjdjYzw0zz_7mostrod3app4bond5slash33resolve_range_maker_bond_at_closeNtNtB6_5tests17RaceWinningSettleE0s1_0Bc_
FN:1181,_RNCNCINvNtNtNtCsawjdjYzw0zz_7mostrod3app4bond5slash33resolve_range_maker_bond_at_closeNtNtB6_5tests17RaceWinningSettleE0s2_0Bc_
FN:1202,_RNCNCINvNtNtNtCsawjdjYzw0zz_7mostrod3app4bond5slash33resolve_range_maker_bond_at_closeNtNtB6_5tests17RaceWinningSettleE0s3_0Bc_
FN:1214,_RNCNCINvNtNtNtCsawjdjYzw0zz_7mostrod3app4bond5slash33resolve_range_maker_bond_at_closeNtNtB6_5tests17RaceWinningSettleE0s4_0Bc_
FN:1215,_RNCNCINvNtNtNtCsawjdjYzw0zz_7mostrod3app4bond5slash33resolve_range_maker_bond_at_closeNtNtB6_5tests17RaceWinningSettleE0s5_0Bc_
FN:1235,_RNCNCINvNtNtNtCsawjdjYzw0zz_7mostrod3app4bond5slash33resolve_range_maker_bond_at_closeNtNtB6_5tests17RaceWinningSettleE0s6_0Bc_
FN:1240,_RNCNCINvNtNtNtCsawjdjYzw0zz_7mostrod3app4bond5slash33resolve_range_maker_bond_at_closeNtNtB6_5tests17RaceWinningSettleE0s7_0Bc_
FN:1088,_RNCNCINvNtNtNtCsawjdjYzw0zz_7mostrod3app4bond5slash33resolve_range_maker_bond_at_closeNtNtBc_9lightning12LndConnectorE00Bc_
FN:1144,_RNCNCINvNtNtNtCsawjdjYzw0zz_7mostrod3app4bond5slash33resolve_range_maker_bond_at_closeNtNtBc_9lightning12LndConnectorE0s0_0Bc_
FN:1156,_RNCNCINvNtNtNtCsawjdjYzw0zz_7mostrod3app4bond5slash33resolve_range_maker_bond_at_closeNtNtBc_9lightning12LndConnectorE0s1_0Bc_
FN:1181,_RNCNCINvNtNtNtCsawjdjYzw0zz_7mostrod3app4bond5slash33resolve_range_maker_bond_at_closeNtNtBc_9lightning12LndConnectorE0s2_0Bc_
FN:1202,_RNCNCINvNtNtNtCsawjdjYzw0zz_7mostrod3app4bond5slash33resolve_range_maker_bond_at_closeNtNtBc_9lightning12LndConnectorE0s3_0Bc_
FN:1214,_RNCNCINvNtNtNtCsawjdjYzw0zz_7mostrod3app4bond5slash33resolve_range_maker_bond_at_closeNtNtBc_9lightning12LndConnectorE0s4_0Bc_
FN:1215,_RNCNCINvNtNtNtCsawjdjYzw0zz_7mostrod3app4bond5slash33resolve_range_maker_bond_at_closeNtNtBc_9lightning12LndConnectorE0s5_0Bc_
FN:1235,_RNCNCINvNtNtNtCsawjdjYzw0zz_7mostrod3app4bond5slash33resolve_range_maker_bond_at_closeNtNtBc_9lightning12LndConnectorE0s6_0Bc_
FN:1240,_RNCNCINvNtNtNtCsawjdjYzw0zz_7mostrod3app4bond5slash33resolve_range_maker_bond_at_closeNtNtBc_9lightning12LndConnectorE0s7_0Bc_
FN:695,_RNCNCNvNtNtNtCsawjdjYzw0zz_7mostrod3app4bond5slash21slash_reason_recorded00Bb_
FN:658,_RNCNCNvNtNtNtCsawjdjYzw0zz_7mostrod3app4bond5slash22find_slice_slash_child00Bb_
FN:907,_RNCNCNvNtNtNtCsawjdjYzw0zz_7mostrod3app4bond5slash24record_maker_slice_slash00Bb_
FN:1038,_RNCNCNvNtNtNtCsawjdjYzw0zz_7mostrod3app4bond5slash24record_maker_slice_slash0s_0Bb_
FN:473,_RNCNvNtNtNtCsawjdjYzw0zz_7mostrod3app4bond5slash18release_on_timeout0B9_
FN:114,_RNCNvNtNtNtCsawjdjYzw0zz_7mostrod3app4bond5slash19is_unique_violation0B9_
FN:716,_RNCNvNtNtNtCsawjdjYzw0zz_7mostrod3app4bond5slash19notify_bond_slashed0B9_
FN:1423,_RNCNvNtNtNtCsawjdjYzw0zz_7mostrod3app4bond5slash19resolve_locked_bond0B9_
FN:224,_RNCNvNtNtNtCsawjdjYzw0zz_7mostrod3app4bond5slash20resolve_slash_target0B9_
FN:689,_RNCNvNtNtNtCsawjdjYzw0zz_7mostrod3app4bond5slash21slash_reason_recorded0B9_
FN:652,_RNCNvNtNtNtCsawjdjYzw0zz_7mostrod3app4bond5slash22find_slice_slash_child0B9_
FN:704,_RNCNvNtNtNtCsawjdjYzw0zz_7mostrod3app4bond5slash23timeout_slash_confirmed0B9_
FN:893,_RNCNvNtNtNtCsawjdjYzw0zz_7mostrod3app4bond5slash24record_maker_slice_slash0B9_
FN:172,_RNCNvNtNtNtCsawjdjYzw0zz_7mostrod3app4bond5slash24validate_bond_resolution0B9_
FN:390,_RNCNvNtNtNtCsawjdjYzw0zz_7mostrod3app4bond5slash26order_has_range_maker_bond0B9_
FN:1305,_RNCNvNtNtNtCsawjdjYzw0zz_7mostrod3app4bond5slash34collect_stranded_range_maker_roots0B9_
FN:1380,_RNCNvNtNtNtCsawjdjYzw0zz_7mostrod3app4bond5slash36reconcile_stranded_range_maker_bonds0B9_
FN:1265,_RNCNvNtNtNtCsawjdjYzw0zz_7mostrod3app4bond5slash41resolve_range_maker_bond_at_close_or_warn0B9_
FN:88,_RNCNvXNtNtNtCsawjdjYzw0zz_7mostrod3app4bond5slashNtNtBa_9lightning12LndConnectorNtB4_15SettleLightning19settle_hold_invoice0Ba_
FN:198,_RNvNtNtNtCsawjdjYzw0zz_7mostrod3app4bond5slash13side_is_maker
FN:473,_RNvNtNtNtCsawjdjYzw0zz_7mostrod3app4bond5slash18release_on_timeout
FN:113,_RNvNtNtNtCsawjdjYzw0zz_7mostrod3app4bond5slash19is_unique_violation
FN:716,_RNvNtNtNtCsawjdjYzw0zz_7mostrod3app4bond5slash19notify_bond_slashed
FN:1415,_RNvNtNtNtCsawjdjYzw0zz_7mostrod3app4bond5slash19resolve_locked_bond
FN:218,_RNvNtNtNtCsawjdjYzw0zz_7mostrod3app4bond5slash20resolve_slash_target
FN:685,_RNvNtNtNtCsawjdjYzw0zz_7mostrod3app4bond5slash21slash_reason_recorded
FN:648,_RNvNtNtNtCsawjdjYzw0zz_7mostrod3app4bond5slash22find_slice_slash_child
FN:141,_RNvNtNtNtCsawjdjYzw0zz_7mostrod3app4bond5slash23extract_bond_resolution
FN:704,_RNvNtNtNtCsawjdjYzw0zz_7mostrod3app4bond5slash23timeout_slash_confirmed
FN:100,_RNvNtNtNtCsawjdjYzw0zz_7mostrod3app4bond5slash24is_already_settled_error
FN:886,_RNvNtNtNtCsawjdjYzw0zz_7mostrod3app4bond5slash24record_maker_slice_slash
FN:168,_RNvNtNtNtCsawjdjYzw0zz_7mostrod3app4bond5slash24validate_bond_resolution
FN:387,_RNvNtNtNtCsawjdjYzw0zz_7mostrod3app4bond5slash26order_has_range_maker_bond
FN:461,_RNvNtNtNtCsawjdjYzw0zz_7mostrod3app4bond5slash28order_republishes_on_timeout
FN:1303,_RNvNtNtNtCsawjdjYzw0zz_7mostrod3app4bond5slash34collect_stranded_range_maker_roots
FN:1380,_RNvNtNtNtCsawjdjYzw0zz_7mostrod3app4bond5slash36reconcile_stranded_range_maker_bonds
FN:1261,_RNvNtNtNtCsawjdjYzw0zz_7mostrod3app4bond5slash41resolve_range_maker_bond_at_close_or_warn
FN:1466,_RNvXs_NtNtNtNtCsawjdjYzw0zz_7mostrod3app4bond5slash5testsINtNtCsauO83Ko6oyK_5alloc4sync3ArcNtB4_10StubSettleENtB6_15SettleLightning19settle_hold_invoice
FN:84,_RNvXNtNtNtCsawjdjYzw0zz_7mostrod3app4bond5slashNtNtB8_9lightning12LndConnectorNtB2_15SettleLightning19settle_hold_invoice
FN:1497,_RNCNCNCNvNtNtNtNtCsawjdjYzw0zz_7mostrod3app4bond5slash5tests10setup_pool000Bf_
FN:1522,_RNCNCNCNvNtNtNtNtCsawjdjYzw0zz_7mostrod3app4bond5slash5tests10setup_pool0s_00Bf_
FN:1497,_RNCNCNvNtNtNtNtCsawjdjYzw0zz_7mostrod3app4bond5slash5tests10setup_pool00Bd_
FN:1522,_RNCNCNvNtNtNtNtCsawjdjYzw0zz_7mostrod3app4bond5slash5tests10setup_pool0s_0Bd_
FN:3238,_RNCNCNvNtNtNtNtCsawjdjYzw0zz_7mostrod3app4bond5slash5testss_41range_close_crash_after_settle_is_resumed00Bd_
FN:3316,_RNCNCNvNtNtNtNtCsawjdjYzw0zz_7mostrod3app4bond5slash5testss_41range_close_crash_after_settle_is_resumed0s0_0Bd_
FN:3322,_RNCNCNvNtNtNtNtCsawjdjYzw0zz_7mostrod3app4bond5slash5testss_41range_close_crash_after_settle_is_resumed0s1_0Bd_
FN:3274,_RNCNCNvNtNtNtNtCsawjdjYzw0zz_7mostrod3app4bond5slash5testss_41range_close_crash_after_settle_is_resumed0s2_0Bd_
FN:3277,_RNCNCNvNtNtNtNtCsawjdjYzw0zz_7mostrod3app4bond5slash5testss_41range_close_crash_after_settle_is_resumed0s_0Bd_
FN:2960,_RNCNCNvNtNtNtNtCsawjdjYzw0zz_7mostrod3app4bond5slash5testss_44notify_bond_slashed_targets_the_slashed_user00Bd_
FN:2964,_RNCNCNvNtNtNtNtCsawjdjYzw0zz_7mostrod3app4bond5slash5testss_44notify_bond_slashed_targets_the_slashed_user0s_0Bd_
FN:3835,_RNCNCNvNtNtNtNtCsawjdjYzw0zz_7mostrod3app4bond5slash5testss_44range_close_conserves_sats_across_two_slices0s0_0Bd_
FN:3847,_RNCNCNvNtNtNtNtCsawjdjYzw0zz_7mostrod3app4bond5slash5testss_44range_close_conserves_sats_across_two_slices0s1_0Bd_
FN:3852,_RNCNCNvNtNtNtNtCsawjdjYzw0zz_7mostrod3app4bond5slash5testss_44range_close_conserves_sats_across_two_slices0s2_0Bd_
FN:3831,_RNCNCNvNtNtNtNtCsawjdjYzw0zz_7mostrod3app4bond5slash5testss_44range_close_conserves_sats_across_two_slices0s_0Bd_
FN:3363,_RNCNCNvNtNtNtNtCsawjdjYzw0zz_7mostrod3app4bond5slash5testss_44settle_already_settled_is_treated_as_success00Bd_
FN:3469,_RNCNCNvNtNtNtNtCsawjdjYzw0zz_7mostrod3app4bond5slash5testss_46range_close_reanchors_slice_child_claim_window00Bd_
FN:4673,_RNCNCNvNtNtNtNtCsawjdjYzw0zz_7mostrod3app4bond5slash5testss_47range_close_loses_cas_race_and_skips_refund_row00Bd_
FN:4235,_RNCNCNvNtNtNtNtCsawjdjYzw0zz_7mostrod3app4bond5slash5testss_49notify_bond_slashed_skips_when_pubkey_unparseable00Bd_
FN:4264,_RNCNCNvNtNtNtNtCsawjdjYzw0zz_7mostrod3app4bond5slash5testss_53notify_bond_slashed_skips_when_order_kind_unparseable00Bd_
FN:3188,_RNCNCNvNtNtNtNtCsawjdjYzw0zz_7mostrod3app4bond5slash5testss_61range_close_with_one_slash_settles_once_and_refunds_remainder00Bd_
FN:3692,_RNCNCNvNtNtNtNtCsawjdjYzw0zz_7mostrod3app4bond5slash5testss_65reconcile_sweep_retries_stranded_locked_parent_after_failed_close00Bd_
FN:1482,_RNCNvNtNtNtNtCsawjdjYzw0zz_7mostrod3app4bond5slash5tests10setup_pool0Bb_
FN:1593,_RNCNvNtNtNtNtCsawjdjYzw0zz_7mostrod3app4bond5slash5tests11insert_bond0Bb_
FN:2220,_RNCNvNtNtNtNtCsawjdjYzw0zz_7mostrod3app4bond5slash5tests15read_bond_state0Bb_
FN:1538,_RNCNvNtNtNtNtCsawjdjYzw0zz_7mostrod3app4bond5slash5tests16insert_order_row0Bb_
FN:1607,_RNCNvNtNtNtNtCsawjdjYzw0zz_7mostrod3app4bond5slash5tests21insert_bond_with_role0Bb_
FN:2982,_RNCNvNtNtNtNtCsawjdjYzw0zz_7mostrod3app4bond5slash5tests22insert_range_order_row0Bb_
FN:3036,_RNCNvNtNtNtNtCsawjdjYzw0zz_7mostrod3app4bond5slash5tests24insert_parent_maker_bond0Bb_
FN:2055,_RNCNvNtNtNtNtCsawjdjYzw0zz_7mostrod3app4bond5slash5testss_29slash_both_settles_both_htlcs0Bb_
FN:1993,_RNCNvNtNtNtNtCsawjdjYzw0zz_7mostrod3app4bond5slash5testss_31apply_with_no_bond_rows_is_noop0Bb_
FN:2813,_RNCNvNtNtNtNtCsawjdjYzw0zz_7mostrod3app4bond5slash5testss_31timeout_no_config_releases_bond0Bb_
FN:3696,_RNCNvNtNtNtNtCsawjdjYzw0zz_7mostrod3app4bond5slash5testss_32reconcile_sweep_skips_open_range0Bb_
FN:3940,_RNCNvNtNtNtNtCsawjdjYzw0zz_7mostrod3app4bond5slash5testss_34apply_null_payload_returns_no_rows0Bb_
FN:2022,_RNCNvNtNtNtNtCsawjdjYzw0zz_7mostrod3app4bond5slash5testss_34slash_one_settles_exactly_one_htlc0Bb_
FN:3999,_RNCNvNtNtNtNtCsawjdjYzw0zz_7mostrod3app4bond5slash5testss_37apply_idempotent_retry_returns_no_row0Bb_
FN:2127,_RNCNvNtNtNtNtCsawjdjYzw0zz_7mostrod3app4bond5slash5testss_39slash_treats_already_settled_as_success0Bb_
FN:2096,_RNCNvNtNtNtNtCsawjdjYzw0zz_7mostrod3app4bond5slash5testss_40non_slashed_bond_is_released_not_settled0Bb_
FN:3046,_RNCNvNtNtNtNtCsawjdjYzw0zz_7mostrod3app4bond5slash5testss_40record_maker_slice_slash_is_proportional0Bb_
FN:3406,_RNCNvNtNtNtNtCsawjdjYzw0zz_7mostrod3app4bond5slash5testss_41maker_bond_resolves_from_descendant_slice0Bb_
FN:3212,_RNCNvNtNtNtNtCsawjdjYzw0zz_7mostrod3app4bond5slash5testss_41range_close_crash_after_settle_is_resumed0Bb_
FN:4546,_RNCNvNtNtNtNtCsawjdjYzw0zz_7mostrod3app4bond5slash5testss_41range_close_releases_non_range_maker_bond0Bb_
FN:1722,_RNCNvNtNtNtNtCsawjdjYzw0zz_7mostrod3app4bond5slash5testss_41validate_rejects_when_bond_table_is_empty0Bb_
FN:3132,_RNCNvNtNtNtNtCsawjdjYzw0zz_7mostrod3app4bond5slash5testss_42range_close_no_slashes_releases_maker_bond0Bb_
FN:4530,_RNCNvNtNtNtNtCsawjdjYzw0zz_7mostrod3app4bond5slash5testss_42range_close_noop_when_no_maker_bond_exists0Bb_
FN:1670,_RNCNvNtNtNtNtCsawjdjYzw0zz_7mostrod3app4bond5slash5testss_42validate_null_payload_passes_with_no_bonds0Bb_
FN:3900,_RNCNvNtNtNtNtCsawjdjYzw0zz_7mostrod3app4bond5slash5testss_43apply_slash_both_returns_two_confirmed_rows0Bb_
FN:1739,_RNCNvNtNtNtNtCsawjdjYzw0zz_7mostrod3app4bond5slash5testss_44apply_null_payload_releases_all_active_bonds0Bb_
FN:2939,_RNCNvNtNtNtNtCsawjdjYzw0zz_7mostrod3app4bond5slash5testss_44notify_bond_slashed_targets_the_slashed_user0Bb_
FN:3769,_RNCNvNtNtNtNtCsawjdjYzw0zz_7mostrod3app4bond5slash5testss_44range_close_conserves_sats_across_two_slices0Bb_
FN:4679,_RNCNvNtNtNtNtCsawjdjYzw0zz_7mostrod3app4bond5slash5testss_44range_close_full_slash_creates_no_refund_row0Bb_
FN:3332,_RNCNvNtNtNtNtCsawjdjYzw0zz_7mostrod3app4bond5slash5testss_44settle_already_settled_is_treated_as_success0Bb_
FN:1931,_RNCNvNtNtNtNtCsawjdjYzw0zz_7mostrod3app4bond5slash5testss_45apply_is_idempotent_on_already_pending_payout0Bb_
FN:3865,_RNCNvNtNtNtNtCsawjdjYzw0zz_7mostrod3app4bond5slash5testss_45apply_slash_buyer_returns_confirmed_taker_row0Bb_
FN:3969,_RNCNvNtNtNtNtCsawjdjYzw0zz_7mostrod3app4bond5slash5testss_45apply_transient_settle_failure_returns_no_row0Bb_
FN:2409,_RNCNvNtNtNtNtCsawjdjYzw0zz_7mostrod3app4bond5slash5testss_45timeout_cancel_releases_maker_bond_sell_order0Bb_
FN:2535,_RNCNvNtNtNtNtCsawjdjYzw0zz_7mostrod3app4bond5slash5testss_45timeout_slash_skipped_when_apply_to_make_only0Bb_
FN:3429,_RNCNvNtNtNtNtCsawjdjYzw0zz_7mostrod3app4bond5slash5testss_46range_close_reanchors_slice_child_claim_window0Bb_
FN:4639,_RNCNvNtNtNtNtCsawjdjYzw0zz_7mostrod3app4bond5slash5testss_47range_close_loses_cas_race_and_skips_refund_row0Bb_
FN:4344,_RNCNvNtNtNtNtCsawjdjYzw0zz_7mostrod3app4bond5slash5testss_47slash_one_cas_db_error_is_logged_not_propagated0Bb_
FN:2309,_RNCNvNtNtNtNtCsawjdjYzw0zz_7mostrod3app4bond5slash5testss_47timeout_republish_retains_maker_bond_sell_order0Bb_
FN:3479,_RNCNvNtNtNtNtCsawjdjYzw0zz_7mostrod3app4bond5slash5testss_48record_maker_slice_slash_is_idempotent_per_slice0Bb_
FN:2230,_RNCNvNtNtNtNtCsawjdjYzw0zz_7mostrod3app4bond5slash5testss_48timeout_slash_disabled_releases_without_slashing0Bb_
FN:4109,_RNCNvNtNtNtNtCsawjdjYzw0zz_7mostrod3app4bond5slash5testss_49is_unique_violation_false_for_non_unique_db_error0Bb_
FN:4216,_RNCNvNtNtNtNtCsawjdjYzw0zz_7mostrod3app4bond5slash5testss_49notify_bond_slashed_skips_when_pubkey_unparseable0Bb_
FN:4777,_RNCNvNtNtNtNtCsawjdjYzw0zz_7mostrod3app4bond5slash5testss_49reconcile_with_returns_zero_when_scan_query_fails0Bb_
FN:2161,_RNCNvNtNtNtNtCsawjdjYzw0zz_7mostrod3app4bond5slash5testss_49slash_settle_transport_failure_leaves_bond_locked0Bb_
FN:3563,_RNCNvNtNtNtNtCsawjdjYzw0zz_7mostrod3app4bond5slash5testss_49slice_slash_unique_index_rejects_forced_duplicate0Bb_
FN:2767,_RNCNvNtNtNtNtCsawjdjYzw0zz_7mostrod3app4bond5slash5testss_49timeout_range_maker_slash_is_idempotent_per_slice0Bb_
FN:3088,_RNCNvNtNtNtNtCsawjdjYzw0zz_7mostrod3app4bond5slash5testss_50record_maker_slice_slash_clamps_cumulative_to_bond0Bb_
FN:2451,_RNCNvNtNtNtNtCsawjdjYzw0zz_7mostrod3app4bond5slash5testss_50timeout_slash_buy_seller_silent_slashes_taker_bond0Bb_
FN:2266,_RNCNvNtNtNtNtCsawjdjYzw0zz_7mostrod3app4bond5slash5testss_50timeout_slash_sell_buyer_silent_slashes_taker_bond0Bb_
FN:2658,_RNCNvNtNtNtNtCsawjdjYzw0zz_7mostrod3app4bond5slash5testss_51timeout_maker_slash_skipped_when_apply_to_take_only0Bb_
FN:1699,_RNCNvNtNtNtNtCsawjdjYzw0zz_7mostrod3app4bond5slash5testss_51validate_slash_seller_on_sell_apply_to_take_rejects0Bb_
FN:4371,_RNCNvNtNtNtNtCsawjdjYzw0zz_7mostrod3app4bond5slash5testss_52record_maker_slice_slash_buy_order_uses_buyer_pubkey0Bb_
FN:1883,_RNCNvNtNtNtNtCsawjdjYzw0zz_7mostrod3app4bond5slash5testss_53apply_slash_buyer_on_buy_order_transitions_maker_bond0Bb_
FN:4246,_RNCNvNtNtNtNtCsawjdjYzw0zz_7mostrod3app4bond5slash5testss_53notify_bond_slashed_skips_when_order_kind_unparseable0Bb_
FN:4569,_RNCNvNtNtNtNtCsawjdjYzw0zz_7mostrod3app4bond5slash5testss_53range_close_skips_settle_when_parent_preimage_missing0Bb_
FN:3369,_RNCNvNtNtNtNtCsawjdjYzw0zz_7mostrod3app4bond5slash5testss_54apply_range_maker_slash_records_child_without_settling0Bb_
FN:1775,_RNCNvNtNtNtNtCsawjdjYzw0zz_7mostrod3app4bond5slash5testss_54apply_slash_buyer_on_sell_order_transitions_taker_bond0Bb_
FN:1685,_RNCNvNtNtNtNtCsawjdjYzw0zz_7mostrod3app4bond5slash5testss_54validate_slash_buyer_passes_when_buyer_has_locked_bond0Bb_
FN:4079,_RNCNvNtNtNtNtCsawjdjYzw0zz_7mostrod3app4bond5slash5testss_55apply_range_maker_slash_idempotent_retry_returns_no_row0Bb_
FN:4040,_RNCNvNtNtNtNtCsawjdjYzw0zz_7mostrod3app4bond5slash5testss_55apply_range_maker_slash_returns_child_with_slice_amount0Bb_
FN:1817,_RNCNvNtNtNtNtCsawjdjYzw0zz_7mostrod3app4bond5slash5testss_55apply_slash_seller_on_sell_order_transitions_maker_bond0Bb_
FN:4501,_RNCNvNtNtNtNtCsawjdjYzw0zz_7mostrod3app4bond5slash5testss_55record_maker_slice_slash_propagates_non_unique_db_error0Bb_
FN:4720,_RNCNvNtNtNtNtCsawjdjYzw0zz_7mostrod3app4bond5slash5testss_55resolve_at_close_or_warn_noop_when_no_locked_maker_bond0Bb_
FN:2565,_RNCNvNtNtNtNtCsawjdjYzw0zz_7mostrod3app4bond5slash5testss_55timeout_maker_responsible_slashes_maker_bond_sell_order0Bb_
FN:4750,_RNCNvNtNtNtNtCsawjdjYzw0zz_7mostrod3app4bond5slash5testss_56collect_stranded_logs_and_skips_when_order_lookup_errors0Bb_
FN:3521,_RNCNvNtNtNtNtCsawjdjYzw0zz_7mostrod3app4bond5slash5testss_56record_maker_slice_slash_skipped_once_parent_left_locked0Bb_
FN:4277,_RNCNvNtNtNtNtCsawjdjYzw0zz_7mostrod3app4bond5slash5testss_56slash_one_with_no_preimage_leaves_bond_locked_for_review0Bb_
FN:2365,_RNCNvNtNtNtNtCsawjdjYzw0zz_7mostrod3app4bond5slash5testss_56timeout_republish_with_no_slash_still_retains_maker_bond0Bb_
FN:3714,_RNCNvNtNtNtNtCsawjdjYzw0zz_7mostrod3app4bond5slash5testss_58reconcile_sweep_isolates_a_bad_root_and_processes_the_rest0Bb_
FN:4794,_RNCNvNtNtNtNtCsawjdjYzw0zz_7mostrod3app4bond5slash5testss_58reconcile_with_logs_and_continues_when_a_root_close_errors0Bb_
FN:2506,_RNCNvNtNtNtNtCsawjdjYzw0zz_7mostrod3app4bond5slash5testss_58timeout_no_slash_when_responsible_party_is_maker_buy_order0Bb_
FN:4432,_RNCNvNtNtNtNtCsawjdjYzw0zz_7mostrod3app4bond5slash5testss_59record_maker_slice_slash_skips_when_root_missing_max_amount0Bb_
FN:4733,_RNCNvNtNtNtNtCsawjdjYzw0zz_7mostrod3app4bond5slash5testss_59resolve_at_close_or_warn_logs_when_maker_bond_lookup_errors0Bb_
FN:4160,_RNCNvNtNtNtNtCsawjdjYzw0zz_7mostrod3app4bond5slash5testss_59timeout_dispatch_on_non_waiting_status_releases_defensively0Bb_
FN:2476,_RNCNvNtNtNtNtCsawjdjYzw0zz_7mostrod3app4bond5slash5testss_59timeout_no_slash_when_responsible_party_is_maker_sell_order0Bb_
FN:4128,_RNCNvNtNtNtNtCsawjdjYzw0zz_7mostrod3app4bond5slash5testss_60resolve_slash_target_ignores_range_root_bond_when_not_locked0Bb_
FN:3156,_RNCNvNtNtNtNtCsawjdjYzw0zz_7mostrod3app4bond5slash5testss_61range_close_with_one_slash_settles_once_and_refunds_remainder0Bb_
FN:4185,_RNCNvNtNtNtNtCsawjdjYzw0zz_7mostrod3app4bond5slash5testss_61timeout_slash_armed_but_no_bond_posted_releases_without_slash0Bb_
FN:4463,_RNCNvNtNtNtNtCsawjdjYzw0zz_7mostrod3app4bond5slash5testss_62record_maker_slice_slash_skips_when_bond_already_fully_slashed0Bb_
FN:4403,_RNCNvNtNtNtNtCsawjdjYzw0zz_7mostrod3app4bond5slash5testss_62record_maker_slice_slash_skips_when_slice_missing_maker_pubkey0Bb_
FN:4306,_RNCNvNtNtNtNtCsawjdjYzw0zz_7mostrod3app4bond5slash5testss_62slash_one_cas_noop_when_bond_already_transitioned_concurrently0Bb_
FN:2876,_RNCNvNtNtNtNtCsawjdjYzw0zz_7mostrod3app4bond5slash5testss_62timeout_slash_confirmed_survives_concurrent_payout_progression0Bb_
FN:2691,_RNCNvNtNtNtNtCsawjdjYzw0zz_7mostrod3app4bond5slash5testss_63timeout_range_maker_slash_records_child_and_keeps_parent_locked0Bb_
FN:3636,_RNCNvNtNtNtNtCsawjdjYzw0zz_7mostrod3app4bond5slash5testss_65reconcile_sweep_retries_stranded_locked_parent_after_failed_close0Bb_
FN:4851,_RNCNvNtNtNtNtCsawjdjYzw0zz_7mostrod3app4bond5slash5testss_66reconcile_stranded_range_maker_bonds_returns_early_when_scan_fails0Bb_
FN:2735,_RNCNvNtNtNtNtCsawjdjYzw0zz_7mostrod3app4bond5slash5testss_66timeout_range_maker_slash_resolves_root_bond_from_descendant_slice0Bb_
FN:2609,_RNCNvNtNtNtNtCsawjdjYzw0zz_7mostrod3app4bond5slash5testss_68timeout_maker_responsible_buy_order_slashes_maker_and_releases_taker0Bb_
FN:2842,_RNCNvNtNtNtNtCsawjdjYzw0zz_7mostrod3app4bond5slash5testss_71timeout_slash_transient_settle_failure_leaves_bond_locked_and_no_notice0Bb_
FN:4841,_RNCNvNtNtNtNtCsawjdjYzw0zz_7mostrod3app4bond5slash5testss_72reconcile_stranded_range_maker_bonds_returns_early_when_nothing_stranded0Bb_
FN:4626,_RNCNvXs0_NtNtNtNtCsawjdjYzw0zz_7mostrod3app4bond5slash5testsNtB7_17RaceWinningSettleNtB9_15SettleLightning19settle_hold_invoice0Bf_
FN:1470,_RNCNvXs_NtNtNtNtCsawjdjYzw0zz_7mostrod3app4bond5slash5testsINtNtCsauO83Ko6oyK_5alloc4sync3ArcNtB6_10StubSettleENtB8_15SettleLightning19settle_hold_invoice0Be_
FN:1460,_RNvMNtNtNtNtCsawjdjYzw0zz_7mostrod3app4bond5slash5testsNtB2_10StubSettle14fail_next_with
FN:1454,_RNvMNtNtNtNtCsawjdjYzw0zz_7mostrod3app4bond5slash5testsNtB2_10StubSettle3new
FN:1457,_RNvMNtNtNtNtCsawjdjYzw0zz_7mostrod3app4bond5slash5testsNtB2_10StubSettle5calls
FN:1482,_RNvNtNtNtNtCsawjdjYzw0zz_7mostrod3app4bond5slash5tests10setup_pool
FN:1588,_RNvNtNtNtNtCsawjdjYzw0zz_7mostrod3app4bond5slash5tests11insert_bond
FN:3012,_RNvNtNtNtNtCsawjdjYzw0zz_7mostrod3app4bond5slash5tests11range_slice
FN:2199,_RNvNtNtNtNtCsawjdjYzw0zz_7mostrod3app4bond5slash5tests11timeout_cfg
FN:1563,_RNvNtNtNtNtCsawjdjYzw0zz_7mostrod3app4bond5slash5tests13fixture_order
FN:1584,_RNvNtNtNtNtCsawjdjYzw0zz_7mostrod3app4bond5slash5tests13stub_preimage
FN:2214,_RNvNtNtNtNtCsawjdjYzw0zz_7mostrod3app4bond5slash5tests13waiting_order
FN:1625,_RNvNtNtNtNtCsawjdjYzw0zz_7mostrod3app4bond5slash5tests14order_msg_with
FN:2220,_RNvNtNtNtNtCsawjdjYzw0zz_7mostrod3app4bond5slash5tests15read_bond_state
FN:1538,_RNvNtNtNtNtCsawjdjYzw0zz_7mostrod3app4bond5slash5tests16insert_order_row
FN:1601,_RNvNtNtNtNtCsawjdjYzw0zz_7mostrod3app4bond5slash5tests21insert_bond_with_role
FN:2982,_RNvNtNtNtNtCsawjdjYzw0zz_7mostrod3app4bond5slash5tests22insert_range_order_row
FN:3031,_RNvNtNtNtNtCsawjdjYzw0zz_7mostrod3app4bond5slash5tests24insert_parent_maker_bond
FN:1621,_RNvNtNtNtNtCsawjdjYzw0zz_7mostrod3app4bond5slash5tests8maker_pk
FN:1618,_RNvNtNtNtNtCsawjdjYzw0zz_7mostrod3app4bond5slash5tests8taker_pk
FN:2055,_RNvNtNtNtNtCsawjdjYzw0zz_7mostrod3app4bond5slash5testss_29slash_both_settles_both_htlcs
FN:1993,_RNvNtNtNtNtCsawjdjYzw0zz_7mostrod3app4bond5slash5testss_31apply_with_no_bond_rows_is_noop
FN:2813,_RNvNtNtNtNtCsawjdjYzw0zz_7mostrod3app4bond5slash5testss_31timeout_no_config_releases_bond
FN:3696,_RNvNtNtNtNtCsawjdjYzw0zz_7mostrod3app4bond5slash5testss_32reconcile_sweep_skips_open_range
FN:3940,_RNvNtNtNtNtCsawjdjYzw0zz_7mostrod3app4bond5slash5testss_34apply_null_payload_returns_no_rows
FN:2022,_RNvNtNtNtNtCsawjdjYzw0zz_7mostrod3app4bond5slash5testss_34slash_one_settles_exactly_one_htlc
FN:1658,_RNvNtNtNtNtCsawjdjYzw0zz_7mostrod3app4bond5slash5testss_36extract_returns_payload_when_present
FN:3999,_RNvNtNtNtNtCsawjdjYzw0zz_7mostrod3app4bond5slash5testss_37apply_idempotent_retry_returns_no_row
FN:2127,_RNvNtNtNtNtCsawjdjYzw0zz_7mostrod3app4bond5slash5testss_39slash_treats_already_settled_as_success
FN:2096,_RNvNtNtNtNtCsawjdjYzw0zz_7mostrod3app4bond5slash5testss_40non_slashed_bond_is_released_not_settled
FN:3046,_RNvNtNtNtNtCsawjdjYzw0zz_7mostrod3app4bond5slash5testss_40record_maker_slice_slash_is_proportional
FN:3406,_RNvNtNtNtNtCsawjdjYzw0zz_7mostrod3app4bond5slash5testss_41maker_bond_resolves_from_descendant_slice
FN:3212,_RNvNtNtNtNtCsawjdjYzw0zz_7mostrod3app4bond5slash5testss_41range_close_crash_after_settle_is_resumed
FN:4546,_RNvNtNtNtNtCsawjdjYzw0zz_7mostrod3app4bond5slash5testss_41range_close_releases_non_range_maker_bond
FN:1722,_RNvNtNtNtNtCsawjdjYzw0zz_7mostrod3app4bond5slash5testss_41validate_rejects_when_bond_table_is_empty
FN:3132,_RNvNtNtNtNtCsawjdjYzw0zz_7mostrod3app4bond5slash5testss_42range_close_no_slashes_releases_maker_bond
FN:4530,_RNvNtNtNtNtCsawjdjYzw0zz_7mostrod3app4bond5slash5testss_42range_close_noop_when_no_maker_bond_exists
FN:1670,_RNvNtNtNtNtCsawjdjYzw0zz_7mostrod3app4bond5slash5testss_42validate_null_payload_passes_with_no_bonds
FN:3900,_RNvNtNtNtNtCsawjdjYzw0zz_7mostrod3app4bond5slash5testss_43apply_slash_both_returns_two_confirmed_rows
FN:1636,_RNvNtNtNtNtCsawjdjYzw0zz_7mostrod3app4bond5slash5testss_43extract_returns_default_when_payload_absent
FN:1739,_RNvNtNtNtNtCsawjdjYzw0zz_7mostrod3app4bond5slash5testss_44apply_null_payload_releases_all_active_bonds
FN:2939,_RNvNtNtNtNtCsawjdjYzw0zz_7mostrod3app4bond5slash5testss_44notify_bond_slashed_targets_the_slashed_user
FN:3769,_RNvNtNtNtNtCsawjdjYzw0zz_7mostrod3app4bond5slash5testss_44range_close_conserves_sats_across_two_slices
FN:4679,_RNvNtNtNtNtCsawjdjYzw0zz_7mostrod3app4bond5slash5testss_44range_close_full_slash_creates_no_refund_row
FN:3332,_RNvNtNtNtNtCsawjdjYzw0zz_7mostrod3app4bond5slash5testss_44settle_already_settled_is_treated_as_success
FN:1931,_RNvNtNtNtNtCsawjdjYzw0zz_7mostrod3app4bond5slash5testss_45apply_is_idempotent_on_already_pending_payout
FN:3865,_RNvNtNtNtNtCsawjdjYzw0zz_7mostrod3app4bond5slash5testss_45apply_slash_buyer_returns_confirmed_taker_row
FN:3969,_RNvNtNtNtNtCsawjdjYzw0zz_7mostrod3app4bond5slash5testss_45apply_transient_settle_failure_returns_no_row
FN:2409,_RNvNtNtNtNtCsawjdjYzw0zz_7mostrod3app4bond5slash5testss_45timeout_cancel_releases_maker_bond_sell_order
FN:2535,_RNvNtNtNtNtCsawjdjYzw0zz_7mostrod3app4bond5slash5testss_45timeout_slash_skipped_when_apply_to_make_only
FN:3429,_RNvNtNtNtNtCsawjdjYzw0zz_7mostrod3app4bond5slash5testss_46range_close_reanchors_slice_child_claim_window
FN:4639,_RNvNtNtNtNtCsawjdjYzw0zz_7mostrod3app4bond5slash5testss_47range_close_loses_cas_race_and_skips_refund_row
FN:4344,_RNvNtNtNtNtCsawjdjYzw0zz_7mostrod3app4bond5slash5testss_47slash_one_cas_db_error_is_logged_not_propagated
FN:2309,_RNvNtNtNtNtCsawjdjYzw0zz_7mostrod3app4bond5slash5testss_47timeout_republish_retains_maker_bond_sell_order
FN:3479,_RNvNtNtNtNtCsawjdjYzw0zz_7mostrod3app4bond5slash5testss_48record_maker_slice_slash_is_idempotent_per_slice
FN:2230,_RNvNtNtNtNtCsawjdjYzw0zz_7mostrod3app4bond5slash5testss_48timeout_slash_disabled_releases_without_slashing
FN:4109,_RNvNtNtNtNtCsawjdjYzw0zz_7mostrod3app4bond5slash5testss_49is_unique_violation_false_for_non_unique_db_error
FN:4216,_RNvNtNtNtNtCsawjdjYzw0zz_7mostrod3app4bond5slash5testss_49notify_bond_slashed_skips_when_pubkey_unparseable
FN:4777,_RNvNtNtNtNtCsawjdjYzw0zz_7mostrod3app4bond5slash5testss_49reconcile_with_returns_zero_when_scan_query_fails
FN:2161,_RNvNtNtNtNtCsawjdjYzw0zz_7mostrod3app4bond5slash5testss_49slash_settle_transport_failure_leaves_bond_locked
FN:3563,_RNvNtNtNtNtCsawjdjYzw0zz_7mostrod3app4bond5slash5testss_49slice_slash_unique_index_rejects_forced_duplicate
FN:2767,_RNvNtNtNtNtCsawjdjYzw0zz_7mostrod3app4bond5slash5testss_49timeout_range_maker_slash_is_idempotent_per_slice
FN:3088,_RNvNtNtNtNtCsawjdjYzw0zz_7mostrod3app4bond5slash5testss_50record_maker_slice_slash_clamps_cumulative_to_bond
FN:2451,_RNvNtNtNtNtCsawjdjYzw0zz_7mostrod3app4bond5slash5testss_50timeout_slash_buy_seller_silent_slashes_taker_bond
FN:2266,_RNvNtNtNtNtCsawjdjYzw0zz_7mostrod3app4bond5slash5testss_50timeout_slash_sell_buyer_silent_slashes_taker_bond
FN:2658,_RNvNtNtNtNtCsawjdjYzw0zz_7mostrod3app4bond5slash5testss_51timeout_maker_slash_skipped_when_apply_to_take_only
FN:1699,_RNvNtNtNtNtCsawjdjYzw0zz_7mostrod3app4bond5slash5testss_51validate_slash_seller_on_sell_apply_to_take_rejects
FN:1647,_RNvNtNtNtNtCsawjdjYzw0zz_7mostrod3app4bond5slash5testss_52extract_returns_default_for_unrelated_payload_shapes
FN:4371,_RNvNtNtNtNtCsawjdjYzw0zz_7mostrod3app4bond5slash5testss_52record_maker_slice_slash_buy_order_uses_buyer_pubkey
FN:1883,_RNvNtNtNtNtCsawjdjYzw0zz_7mostrod3app4bond5slash5testss_53apply_slash_buyer_on_buy_order_transitions_maker_bond
FN:4246,_RNvNtNtNtNtCsawjdjYzw0zz_7mostrod3app4bond5slash5testss_53notify_bond_slashed_skips_when_order_kind_unparseable
FN:4569,_RNvNtNtNtNtCsawjdjYzw0zz_7mostrod3app4bond5slash5testss_53range_close_skips_settle_when_parent_preimage_missing
FN:3369,_RNvNtNtNtNtCsawjdjYzw0zz_7mostrod3app4bond5slash5testss_54apply_range_maker_slash_records_child_without_settling
FN:1775,_RNvNtNtNtNtCsawjdjYzw0zz_7mostrod3app4bond5slash5testss_54apply_slash_buyer_on_sell_order_transitions_taker_bond
FN:1685,_RNvNtNtNtNtCsawjdjYzw0zz_7mostrod3app4bond5slash5testss_54validate_slash_buyer_passes_when_buyer_has_locked_bond
FN:4079,_RNvNtNtNtNtCsawjdjYzw0zz_7mostrod3app4bond5slash5testss_55apply_range_maker_slash_idempotent_retry_returns_no_row
FN:4040,_RNvNtNtNtNtCsawjdjYzw0zz_7mostrod3app4bond5slash5testss_55apply_range_maker_slash_returns_child_with_slice_amount
FN:1817,_RNvNtNtNtNtCsawjdjYzw0zz_7mostrod3app4bond5slash5testss_55apply_slash_seller_on_sell_order_transitions_maker_bond
FN:4501,_RNvNtNtNtNtCsawjdjYzw0zz_7mostrod3app4bond5slash5testss_55record_maker_slice_slash_propagates_non_unique_db_error
FN:4720,_RNvNtNtNtNtCsawjdjYzw0zz_7mostrod3app4bond5slash5testss_55resolve_at_close_or_warn_noop_when_no_locked_maker_bond
FN:2565,_RNvNtNtNtNtCsawjdjYzw0zz_7mostrod3app4bond5slash5testss_55timeout_maker_responsible_slashes_maker_bond_sell_order
FN:4750,_RNvNtNtNtNtCsawjdjYzw0zz_7mostrod3app4bond5slash5testss_56collect_stranded_logs_and_skips_when_order_lookup_errors
FN:3521,_RNvNtNtNtNtCsawjdjYzw0zz_7mostrod3app4bond5slash5testss_56record_maker_slice_slash_skipped_once_parent_left_locked
FN:4277,_RNvNtNtNtNtCsawjdjYzw0zz_7mostrod3app4bond5slash5testss_56slash_one_with_no_preimage_leaves_bond_locked_for_review
FN:2365,_RNvNtNtNtNtCsawjdjYzw0zz_7mostrod3app4bond5slash5testss_56timeout_republish_with_no_slash_still_retains_maker_bond
FN:3714,_RNvNtNtNtNtCsawjdjYzw0zz_7mostrod3app4bond5slash5testss_58reconcile_sweep_isolates_a_bad_root_and_processes_the_rest
FN:4794,_RNvNtNtNtNtCsawjdjYzw0zz_7mostrod3app4bond5slash5testss_58reconcile_with_logs_and_continues_when_a_root_close_errors
FN:2506,_RNvNtNtNtNtCsawjdjYzw0zz_7mostrod3app4bond5slash5testss_58timeout_no_slash_when_responsible_party_is_maker_buy_order
FN:4432,_RNvNtNtNtNtCsawjdjYzw0zz_7mostrod3app4bond5slash5testss_59record_maker_slice_slash_skips_when_root_missing_max_amount
FN:4733,_RNvNtNtNtNtCsawjdjYzw0zz_7mostrod3app4bond5slash5testss_59resolve_at_close_or_warn_logs_when_maker_bond_lookup_errors
FN:4160,_RNvNtNtNtNtCsawjdjYzw0zz_7mostrod3app4bond5slash5testss_59timeout_dispatch_on_non_waiting_status_releases_defensively
FN:2476,_RNvNtNtNtNtCsawjdjYzw0zz_7mostrod3app4bond5slash5testss_59timeout_no_slash_when_responsible_party_is_maker_sell_order
FN:4128,_RNvNtNtNtNtCsawjdjYzw0zz_7mostrod3app4bond5slash5testss_60resolve_slash_target_ignores_range_root_bond_when_not_locked
FN:3156,_RNvNtNtNtNtCsawjdjYzw0zz_7mostrod3app4bond5slash5testss_61range_close_with_one_slash_settles_once_and_refunds_remainder
FN:4185,_RNvNtNtNtNtCsawjdjYzw0zz_7mostrod3app4bond5slash5testss_61timeout_slash_armed_but_no_bond_posted_releases_without_slash
FN:4463,_RNvNtNtNtNtCsawjdjYzw0zz_7mostrod3app4bond5slash5testss_62record_maker_slice_slash_skips_when_bond_already_fully_slashed
FN:4403,_RNvNtNtNtNtCsawjdjYzw0zz_7mostrod3app4bond5slash5testss_62record_maker_slice_slash_skips_when_slice_missing_maker_pubkey
FN:4306,_RNvNtNtNtNtCsawjdjYzw0zz_7mostrod3app4bond5slash5testss_62slash_one_cas_noop_when_bond_already_transitioned_concurrently
FN:2876,_RNvNtNtNtNtCsawjdjYzw0zz_7mostrod3app4bond5slash5testss_62timeout_slash_confirmed_survives_concurrent_payout_progression
FN:2691,_RNvNtNtNtNtCsawjdjYzw0zz_7mostrod3app4bond5slash5testss_63timeout_range_maker_slash_records_child_and_keeps_parent_locked
FN:3636,_RNvNtNtNtNtCsawjdjYzw0zz_7mostrod3app4bond5slash5testss_65reconcile_sweep_retries_stranded_locked_parent_after_failed_close
FN:4851,_RNvNtNtNtNtCsawjdjYzw0zz_7mostrod3app4bond5slash5testss_66reconcile_stranded_range_maker_bonds_returns_early_when_scan_fails
FN:2735,_RNvNtNtNtNtCsawjdjYzw0zz_7mostrod3app4bond5slash5testss_66timeout_range_maker_slash_resolves_root_bond_from_descendant_slice
FN:2609,_RNvNtNtNtNtCsawjdjYzw0zz_7mostrod3app4bond5slash5testss_68timeout_maker_responsible_buy_order_slashes_maker_and_releases_taker
FN:2842,_RNvNtNtNtNtCsawjdjYzw0zz_7mostrod3app4bond5slash5testss_71timeout_slash_transient_settle_failure_leaves_bond_locked_and_no_notice
FN:4841,_RNvNtNtNtNtCsawjdjYzw0zz_7mostrod3app4bond5slash5testss_72reconcile_stranded_range_maker_bonds_returns_early_when_nothing_stranded
FN:4622,_RNvXs0_NtNtNtNtCsawjdjYzw0zz_7mostrod3app4bond5slash5testsNtB5_17RaceWinningSettleNtB7_15SettleLightning19settle_hold_invoice
FNDA:22,_RINvNtNtNtCsawjdjYzw0zz_7mostrod3app4bond5slash21apply_bond_resolutionINtNtCsauO83Ko6oyK_5alloc4sync3ArcNtNtB2_5tests10StubSettleEEB8_
FNDA:1,_RINvNtNtNtCsawjdjYzw0zz_7mostrod3app4bond5slash21apply_bond_resolutionNtNtB8_9lightning12LndConnectorEB8_
FNDA:19,_RINvNtNtNtCsawjdjYzw0zz_7mostrod3app4bond5slash27slash_or_release_on_timeoutINtNtCsauO83Ko6oyK_5alloc4sync3ArcNtNtB2_5tests10StubSettleEEB8_
FNDA:0,_RINvNtNtNtCsawjdjYzw0zz_7mostrod3app4bond5slash27slash_or_release_on_timeoutNtNtB8_9lightning12LndConnectorEB8_
FNDA:16,_RINvNtNtNtCsawjdjYzw0zz_7mostrod3app4bond5slash33resolve_range_maker_bond_at_closeINtNtCsauO83Ko6oyK_5alloc4sync3ArcNtNtB2_5tests10StubSettleEEB8_
FNDA:1,_RINvNtNtNtCsawjdjYzw0zz_7mostrod3app4bond5slash33resolve_range_maker_bond_at_closeNtNtB2_5tests17RaceWinningSettleEB8_
FNDA:1,_RINvNtNtNtCsawjdjYzw0zz_7mostrod3app4bond5slash33resolve_range_maker_bond_at_closeNtNtB8_9lightning12LndConnectorEB8_
FNDA:5,_RINvNtNtNtCsawjdjYzw0zz_7mostrod3app4bond5slash41reconcile_stranded_range_maker_bonds_withINtNtCsauO83Ko6oyK_5alloc4sync3ArcNtNtB2_5tests10StubSettleEEB8_
FNDA:0,_RINvNtNtNtCsawjdjYzw0zz_7mostrod3app4bond5slash41reconcile_stranded_range_maker_bonds_withNtNtB8_9lightning12LndConnectorEB8_
FNDA:23,_RINvNtNtNtCsawjdjYzw0zz_7mostrod3app4bond5slash9slash_oneINtNtCsauO83Ko6oyK_5alloc4sync3ArcNtNtB2_5tests10StubSettleEEB8_
FNDA:0,_RINvNtNtNtCsawjdjYzw0zz_7mostrod3app4bond5slash9slash_oneNtNtB8_9lightning12LndConnectorEB8_
FNDA:22,_RNCINvNtNtNtCsawjdjYzw0zz_7mostrod3app4bond5slash21apply_bond_resolutionINtNtCsauO83Ko6oyK_5alloc4sync3ArcNtNtB4_5tests10StubSettleEE0Ba_
FNDA:1,_RNCINvNtNtNtCsawjdjYzw0zz_7mostrod3app4bond5slash21apply_bond_resolutionNtNtBa_9lightning12LndConnectorE0Ba_
FNDA:19,_RNCINvNtNtNtCsawjdjYzw0zz_7mostrod3app4bond5slash27slash_or_release_on_timeoutINtNtCsauO83Ko6oyK_5alloc4sync3ArcNtNtB4_5tests10StubSettleEE0Ba_
FNDA:0,_RNCINvNtNtNtCsawjdjYzw0zz_7mostrod3app4bond5slash27slash_or_release_on_timeoutNtNtBa_9lightning12LndConnectorE0Ba_
FNDA:16,_RNCINvNtNtNtCsawjdjYzw0zz_7mostrod3app4bond5slash33resolve_range_maker_bond_at_closeINtNtCsauO83Ko6oyK_5alloc4sync3ArcNtNtB4_5tests10StubSettleEE0Ba_
FNDA:1,_RNCINvNtNtNtCsawjdjYzw0zz_7mostrod3app4bond5slash33resolve_range_maker_bond_at_closeNtNtB4_5tests17RaceWinningSettleE0Ba_
FNDA:1,_RNCINvNtNtNtCsawjdjYzw0zz_7mostrod3app4bond5slash33resolve_range_maker_bond_at_closeNtNtBa_9lightning12LndConnectorE0Ba_
FNDA:5,_RNCINvNtNtNtCsawjdjYzw0zz_7mostrod3app4bond5slash41reconcile_stranded_range_maker_bonds_withINtNtCsauO83Ko6oyK_5alloc4sync3ArcNtNtB4_5tests10StubSettleEE0Ba_
FNDA:0,_RNCINvNtNtNtCsawjdjYzw0zz_7mostrod3app4bond5slash41reconcile_stranded_range_maker_bonds_withNtNtBa_9lightning12LndConnectorE0Ba_
FNDA:23,_RNCINvNtNtNtCsawjdjYzw0zz_7mostrod3app4bond5slash9slash_oneINtNtCsauO83Ko6oyK_5alloc4sync3ArcNtNtB4_5tests10StubSettleEE0Ba_
FNDA:0,_RNCINvNtNtNtCsawjdjYzw0zz_7mostrod3app4bond5slash9slash_oneNtNtBa_9lightning12LndConnectorE0Ba_
FNDA:17,_RNCNCINvNtNtNtCsawjdjYzw0zz_7mostrod3app4bond5slash27slash_or_release_on_timeoutINtNtCsauO83Ko6oyK_5alloc4sync3ArcNtNtB6_5tests10StubSettleEE00Bc_
FNDA:0,_RNCNCINvNtNtNtCsawjdjYzw0zz_7mostrod3app4bond5slash27slash_or_release_on_timeoutNtNtBc_9lightning12LndConnectorE00Bc_
FNDA:13,_RNCNCINvNtNtNtCsawjdjYzw0zz_7mostrod3app4bond5slash33resolve_range_maker_bond_at_closeINtNtCsauO83Ko6oyK_5alloc4sync3ArcNtNtB6_5tests10StubSettleEE00Bc_
FNDA:0,_RNCNCINvNtNtNtCsawjdjYzw0zz_7mostrod3app4bond5slash33resolve_range_maker_bond_at_closeINtNtCsauO83Ko6oyK_5alloc4sync3ArcNtNtB6_5tests10StubSettleEE0s0_0Bc_
FNDA:0,_RNCNCINvNtNtNtCsawjdjYzw0zz_7mostrod3app4bond5slash33resolve_range_maker_bond_at_closeINtNtCsauO83Ko6oyK_5alloc4sync3ArcNtNtB6_5tests10StubSettleEE0s1_0Bc_
FNDA:0,_RNCNCINvNtNtNtCsawjdjYzw0zz_7mostrod3app4bond5slash33resolve_range_maker_bond_at_closeINtNtCsauO83Ko6oyK_5alloc4sync3ArcNtNtB6_5tests10StubSettleEE0s2_0Bc_
FNDA:0,_RNCNCINvNtNtNtCsawjdjYzw0zz_7mostrod3app4bond5slash33resolve_range_maker_bond_at_closeINtNtCsauO83Ko6oyK_5alloc4sync3ArcNtNtB6_5tests10StubSettleEE0s3_0Bc_
FNDA:9,_RNCNCINvNtNtNtCsawjdjYzw0zz_7mostrod3app4bond5slash33resolve_range_maker_bond_at_closeINtNtCsauO83Ko6oyK_5alloc4sync3ArcNtNtB6_5tests10StubSettleEE0s4_0Bc_
FNDA:0,_RNCNCINvNtNtNtCsawjdjYzw0zz_7mostrod3app4bond5slash33resolve_range_maker_bond_at_closeINtNtCsauO83Ko6oyK_5alloc4sync3ArcNtNtB6_5tests10StubSettleEE0s5_0Bc_
FNDA:2,_RNCNCINvNtNtNtCsawjdjYzw0zz_7mostrod3app4bond5slash33resolve_range_maker_bond_at_closeINtNtCsauO83Ko6oyK_5alloc4sync3ArcNtNtB6_5tests10StubSettleEE0s6_0Bc_
FNDA:0,_RNCNCINvNtNtNtCsawjdjYzw0zz_7mostrod3app4bond5slash33resolve_range_maker_bond_at_closeINtNtCsauO83Ko6oyK_5alloc4sync3ArcNtNtB6_5tests10StubSettleEE0s7_0Bc_
FNDA:1,_RNCNCINvNtNtNtCsawjdjYzw0zz_7mostrod3app4bond5slash33resolve_range_maker_bond_at_closeNtNtB6_5tests17RaceWinningSettleE00Bc_
FNDA:0,_RNCNCINvNtNtNtCsawjdjYzw0zz_7mostrod3app4bond5slash33resolve_range_maker_bond_at_closeNtNtB6_5tests17RaceWinningSettleE0s0_0Bc_
FNDA:0,_RNCNCINvNtNtNtCsawjdjYzw0zz_7mostrod3app4bond5slash33resolve_range_maker_bond_at_closeNtNtB6_5tests17RaceWinningSettleE0s1_0Bc_
FNDA:0,_RNCNCINvNtNtNtCsawjdjYzw0zz_7mostrod3app4bond5slash33resolve_range_maker_bond_at_closeNtNtB6_5tests17RaceWinningSettleE0s2_0Bc_
FNDA:0,_RNCNCINvNtNtNtCsawjdjYzw0zz_7mostrod3app4bond5slash33resolve_range_maker_bond_at_closeNtNtB6_5tests17RaceWinningSettleE0s3_0Bc_
FNDA:0,_RNCNCINvNtNtNtCsawjdjYzw0zz_7mostrod3app4bond5slash33resolve_range_maker_bond_at_closeNtNtB6_5tests17RaceWinningSettleE0s4_0Bc_
FNDA:0,_RNCNCINvNtNtNtCsawjdjYzw0zz_7mostrod3app4bond5slash33resolve_range_maker_bond_at_closeNtNtB6_5tests17RaceWinningSettleE0s5_0Bc_
FNDA:0,_RNCNCINvNtNtNtCsawjdjYzw0zz_7mostrod3app4bond5slash33resolve_range_maker_bond_at_closeNtNtB6_5tests17RaceWinningSettleE0s6_0Bc_
FNDA:0,_RNCNCINvNtNtNtCsawjdjYzw0zz_7mostrod3app4bond5slash33resolve_range_maker_bond_at_closeNtNtB6_5tests17RaceWinningSettleE0s7_0Bc_
FNDA:0,_RNCNCINvNtNtNtCsawjdjYzw0zz_7mostrod3app4bond5slash33resolve_range_maker_bond_at_closeNtNtBc_9lightning12LndConnectorE00Bc_
FNDA:0,_RNCNCINvNtNtNtCsawjdjYzw0zz_7mostrod3app4bond5slash33resolve_range_maker_bond_at_closeNtNtBc_9lightning12LndConnectorE0s0_0Bc_
FNDA:0,_RNCNCINvNtNtNtCsawjdjYzw0zz_7mostrod3app4bond5slash33resolve_range_maker_bond_at_closeNtNtBc_9lightning12LndConnectorE0s1_0Bc_
FNDA:0,_RNCNCINvNtNtNtCsawjdjYzw0zz_7mostrod3app4bond5slash33resolve_range_maker_bond_at_closeNtNtBc_9lightning12LndConnectorE0s2_0Bc_
FNDA:0,_RNCNCINvNtNtNtCsawjdjYzw0zz_7mostrod3app4bond5slash33resolve_range_maker_bond_at_closeNtNtBc_9lightning12LndConnectorE0s3_0Bc_
FNDA:0,_RNCNCINvNtNtNtCsawjdjYzw0zz_7mostrod3app4bond5slash33resolve_range_maker_bond_at_closeNtNtBc_9lightning12LndConnectorE0s4_0Bc_
FNDA:0,_RNCNCINvNtNtNtCsawjdjYzw0zz_7mostrod3app4bond5slash33resolve_range_maker_bond_at_closeNtNtBc_9lightning12LndConnectorE0s5_0Bc_
FNDA:0,_RNCNCINvNtNtNtCsawjdjYzw0zz_7mostrod3app4bond5slash33resolve_range_maker_bond_at_closeNtNtBc_9lightning12LndConnectorE0s6_0Bc_
FNDA:0,_RNCNCINvNtNtNtCsawjdjYzw0zz_7mostrod3app4bond5slash33resolve_range_maker_bond_at_closeNtNtBc_9lightning12LndConnectorE0s7_0Bc_
FNDA:0,_RNCNCNvNtNtNtCsawjdjYzw0zz_7mostrod3app4bond5slash21slash_reason_recorded00Bb_
FNDA:0,_RNCNCNvNtNtNtCsawjdjYzw0zz_7mostrod3app4bond5slash22find_slice_slash_child00Bb_
FNDA:31,_RNCNCNvNtNtNtCsawjdjYzw0zz_7mostrod3app4bond5slash24record_maker_slice_slash00Bb_
FNDA:0,_RNCNCNvNtNtNtCsawjdjYzw0zz_7mostrod3app4bond5slash24record_maker_slice_slash0s_0Bb_
FNDA:9,_RNCNvNtNtNtCsawjdjYzw0zz_7mostrod3app4bond5slash18release_on_timeout0B9_
FNDA:3,_RNCNvNtNtNtCsawjdjYzw0zz_7mostrod3app4bond5slash19is_unique_violation0B9_
FNDA:3,_RNCNvNtNtNtCsawjdjYzw0zz_7mostrod3app4bond5slash19notify_bond_slashed0B9_
FNDA:33,_RNCNvNtNtNtCsawjdjYzw0zz_7mostrod3app4bond5slash19resolve_locked_bond0B9_
FNDA:36,_RNCNvNtNtNtCsawjdjYzw0zz_7mostrod3app4bond5slash20resolve_slash_target0B9_
FNDA:26,_RNCNvNtNtNtCsawjdjYzw0zz_7mostrod3app4bond5slash21slash_reason_recorded0B9_
FNDA:5,_RNCNvNtNtNtCsawjdjYzw0zz_7mostrod3app4bond5slash22find_slice_slash_child0B9_
FNDA:12,_RNCNvNtNtNtCsawjdjYzw0zz_7mostrod3app4bond5slash23timeout_slash_confirmed0B9_
FNDA:33,_RNCNvNtNtNtCsawjdjYzw0zz_7mostrod3app4bond5slash24record_maker_slice_slash0B9_
FNDA:10,_RNCNvNtNtNtCsawjdjYzw0zz_7mostrod3app4bond5slash24validate_bond_resolution0B9_
FNDA:38,_RNCNvNtNtNtCsawjdjYzw0zz_7mostrod3app4bond5slash26order_has_range_maker_bond0B9_
FNDA:11,_RNCNvNtNtNtCsawjdjYzw0zz_7mostrod3app4bond5slash34collect_stranded_range_maker_roots0B9_
FNDA:5,_RNCNvNtNtNtCsawjdjYzw0zz_7mostrod3app4bond5slash36reconcile_stranded_range_maker_bonds0B9_
FNDA:8,_RNCNvNtNtNtCsawjdjYzw0zz_7mostrod3app4bond5slash41resolve_range_maker_bond_at_close_or_warn0B9_
FNDA:0,_RNCNvXNtNtNtCsawjdjYzw0zz_7mostrod3app4bond5slashNtNtBa_9lightning12LndConnectorNtB4_15SettleLightning19settle_hold_invoice0Ba_
FNDA:24,_RNvNtNtNtCsawjdjYzw0zz_7mostrod3app4bond5slash13side_is_maker
FNDA:9,_RNvNtNtNtCsawjdjYzw0zz_7mostrod3app4bond5slash18release_on_timeout
FNDA:3,_RNvNtNtNtCsawjdjYzw0zz_7mostrod3app4bond5slash19is_unique_violation
FNDA:3,_RNvNtNtNtCsawjdjYzw0zz_7mostrod3app4bond5slash19notify_bond_slashed
FNDA:36,_RNvNtNtNtCsawjdjYzw0zz_7mostrod3app4bond5slash19resolve_locked_bond
FNDA:36,_RNvNtNtNtCsawjdjYzw0zz_7mostrod3app4bond5slash20resolve_slash_target
FNDA:26,_RNvNtNtNtCsawjdjYzw0zz_7mostrod3app4bond5slash21slash_reason_recorded
FNDA:5,_RNvNtNtNtCsawjdjYzw0zz_7mostrod3app4bond5slash22find_slice_slash_child
FNDA:7,_RNvNtNtNtCsawjdjYzw0zz_7mostrod3app4bond5slash23extract_bond_resolution
FNDA:12,_RNvNtNtNtCsawjdjYzw0zz_7mostrod3app4bond5slash23timeout_slash_confirmed
FNDA:7,_RNvNtNtNtCsawjdjYzw0zz_7mostrod3app4bond5slash24is_already_settled_error
FNDA:33,_RNvNtNtNtCsawjdjYzw0zz_7mostrod3app4bond5slash24record_maker_slice_slash
FNDA:10,_RNvNtNtNtCsawjdjYzw0zz_7mostrod3app4bond5slash24validate_bond_resolution
FNDA:38,_RNvNtNtNtCsawjdjYzw0zz_7mostrod3app4bond5slash26order_has_range_maker_bond
FNDA:18,_RNvNtNtNtCsawjdjYzw0zz_7mostrod3app4bond5slash28order_republishes_on_timeout
FNDA:11,_RNvNtNtNtCsawjdjYzw0zz_7mostrod3app4bond5slash34collect_stranded_range_maker_roots
FNDA:5,_RNvNtNtNtCsawjdjYzw0zz_7mostrod3app4bond5slash36reconcile_stranded_range_maker_bonds
FNDA:8,_RNvNtNtNtCsawjdjYzw0zz_7mostrod3app4bond5slash41resolve_range_maker_bond_at_close_or_warn
FNDA:33,_RNvXs_NtNtNtNtCsawjdjYzw0zz_7mostrod3app4bond5slash5testsINtNtCsauO83Ko6oyK_5alloc4sync3ArcNtB4_10StubSettleENtB6_15SettleLightning19settle_hold_invoice
FNDA:0,_RNvXNtNtNtCsawjdjYzw0zz_7mostrod3app4bond5slashNtNtB8_9lightning12LndConnectorNtB2_15SettleLightning19settle_hold_invoice
FNDA:486,_RNCNCNCNvNtNtNtNtCsawjdjYzw0zz_7mostrod3app4bond5slash5tests10setup_pool000Bf_
FNDA:891,_RNCNCNCNvNtNtNtNtCsawjdjYzw0zz_7mostrod3app4bond5slash5tests10setup_pool0s_00Bf_
FNDA:324,_RNCNCNvNtNtNtNtCsawjdjYzw0zz_7mostrod3app4bond5slash5tests10setup_pool00Bd_
FNDA:324,_RNCNCNvNtNtNtNtCsawjdjYzw0zz_7mostrod3app4bond5slash5tests10setup_pool0s_0Bd_
FNDA:1,_RNCNCNvNtNtNtNtCsawjdjYzw0zz_7mostrod3app4bond5slash5testss_41range_close_crash_after_settle_is_resumed00Bd_
FNDA:2,_RNCNCNvNtNtNtNtCsawjdjYzw0zz_7mostrod3app4bond5slash5testss_41range_close_crash_after_settle_is_resumed0s0_0Bd_
FNDA:1,_RNCNCNvNtNtNtNtCsawjdjYzw0zz_7mostrod3app4bond5slash5testss_41range_close_crash_after_settle_is_resumed0s1_0Bd_
FNDA:1,_RNCNCNvNtNtNtNtCsawjdjYzw0zz_7mostrod3app4bond5slash5testss_41range_close_crash_after_settle_is_resumed0s2_0Bd_
FNDA:1,_RNCNCNvNtNtNtNtCsawjdjYzw0zz_7mostrod3app4bond5slash5testss_41range_close_crash_after_settle_is_resumed0s_0Bd_
FNDA:23,_RNCNCNvNtNtNtNtCsawjdjYzw0zz_7mostrod3app4bond5slash5testss_44notify_bond_slashed_targets_the_slashed_user00Bd_
FNDA:1,_RNCNCNvNtNtNtNtCsawjdjYzw0zz_7mostrod3app4bond5slash5testss_44notify_bond_slashed_targets_the_slashed_user0s_0Bd_
FNDA:3,_RNCNCNvNtNtNtNtCsawjdjYzw0zz_7mostrod3app4bond5slash5testss_44range_close_conserves_sats_across_two_slices0s0_0Bd_
FNDA:3,_RNCNCNvNtNtNtNtCsawjdjYzw0zz_7mostrod3app4bond5slash5testss_44range_close_conserves_sats_across_two_slices0s1_0Bd_
FNDA:3,_RNCNCNvNtNtNtNtCsawjdjYzw0zz_7mostrod3app4bond5slash5testss_44range_close_conserves_sats_across_two_slices0s2_0Bd_
FNDA:3,_RNCNCNvNtNtNtNtCsawjdjYzw0zz_7mostrod3app4bond5slash5testss_44range_close_conserves_sats_across_two_slices0s_0Bd_
FNDA:2,_RNCNCNvNtNtNtNtCsawjdjYzw0zz_7mostrod3app4bond5slash5testss_44settle_already_settled_is_treated_as_success00Bd_
FNDA:1,_RNCNCNvNtNtNtNtCsawjdjYzw0zz_7mostrod3app4bond5slash5testss_46range_close_reanchors_slice_child_claim_window00Bd_
FNDA:1,_RNCNCNvNtNtNtNtCsawjdjYzw0zz_7mostrod3app4bond5slash5testss_47range_close_loses_cas_race_and_skips_refund_row00Bd_
FNDA:22,_RNCNCNvNtNtNtNtCsawjdjYzw0zz_7mostrod3app4bond5slash5testss_49notify_bond_slashed_skips_when_pubkey_unparseable00Bd_
FNDA:22,_RNCNCNvNtNtNtNtCsawjdjYzw0zz_7mostrod3app4bond5slash5testss_53notify_bond_slashed_skips_when_order_kind_unparseable00Bd_
FNDA:2,_RNCNCNvNtNtNtNtCsawjdjYzw0zz_7mostrod3app4bond5slash5testss_61range_close_with_one_slash_settles_once_and_refunds_remainder00Bd_
FNDA:2,_RNCNCNvNtNtNtNtCsawjdjYzw0zz_7mostrod3app4bond5slash5testss_65reconcile_sweep_retries_stranded_locked_parent_after_failed_close00Bd_
FNDA:81,_RNCNvNtNtNtNtCsawjdjYzw0zz_7mostrod3app4bond5slash5tests10setup_pool0Bb_
FNDA:40,_RNCNvNtNtNtNtCsawjdjYzw0zz_7mostrod3app4bond5slash5tests11insert_bond0Bb_
FNDA:24,_RNCNvNtNtNtNtCsawjdjYzw0zz_7mostrod3app4bond5slash5tests15read_bond_state0Bb_
FNDA:45,_RNCNvNtNtNtNtCsawjdjYzw0zz_7mostrod3app4bond5slash5tests16insert_order_row0Bb_
FNDA:50,_RNCNvNtNtNtNtCsawjdjYzw0zz_7mostrod3app4bond5slash5tests21insert_bond_with_role0Bb_
FNDA:37,_RNCNvNtNtNtNtCsawjdjYzw0zz_7mostrod3app4bond5slash5tests22insert_range_order_row0Bb_
FNDA:33,_RNCNvNtNtNtNtCsawjdjYzw0zz_7mostrod3app4bond5slash5tests24insert_parent_maker_bond0Bb_
FNDA:1,_RNCNvNtNtNtNtCsawjdjYzw0zz_7mostrod3app4bond5slash5testss_29slash_both_settles_both_htlcs0Bb_
FNDA:1,_RNCNvNtNtNtNtCsawjdjYzw0zz_7mostrod3app4bond5slash5testss_31apply_with_no_bond_rows_is_noop0Bb_
FNDA:1,_RNCNvNtNtNtNtCsawjdjYzw0zz_7mostrod3app4bond5slash5testss_31timeout_no_config_releases_bond0Bb_
FNDA:1,_RNCNvNtNtNtNtCsawjdjYzw0zz_7mostrod3app4bond5slash5testss_32reconcile_sweep_skips_open_range0Bb_
FNDA:1,_RNCNvNtNtNtNtCsawjdjYzw0zz_7mostrod3app4bond5slash5testss_34apply_null_payload_returns_no_rows0Bb_
FNDA:1,_RNCNvNtNtNtNtCsawjdjYzw0zz_7mostrod3app4bond5slash5testss_34slash_one_settles_exactly_one_htlc0Bb_
FNDA:1,_RNCNvNtNtNtNtCsawjdjYzw0zz_7mostrod3app4bond5slash5testss_37apply_idempotent_retry_returns_no_row0Bb_
FNDA:1,_RNCNvNtNtNtNtCsawjdjYzw0zz_7mostrod3app4bond5slash5testss_39slash_treats_already_settled_as_success0Bb_
FNDA:1,_RNCNvNtNtNtNtCsawjdjYzw0zz_7mostrod3app4bond5slash5testss_40non_slashed_bond_is_released_not_settled0Bb_
FNDA:1,_RNCNvNtNtNtNtCsawjdjYzw0zz_7mostrod3app4bond5slash5testss_40record_maker_slice_slash_is_proportional0Bb_
FNDA:1,_RNCNvNtNtNtNtCsawjdjYzw0zz_7mostrod3app4bond5slash5testss_41maker_bond_resolves_from_descendant_slice0Bb_
FNDA:1,_RNCNvNtNtNtNtCsawjdjYzw0zz_7mostrod3app4bond5slash5testss_41range_close_crash_after_settle_is_resumed0Bb_
FNDA:1,_RNCNvNtNtNtNtCsawjdjYzw0zz_7mostrod3app4bond5slash5testss_41range_close_releases_non_range_maker_bond0Bb_
FNDA:1,_RNCNvNtNtNtNtCsawjdjYzw0zz_7mostrod3app4bond5slash5testss_41validate_rejects_when_bond_table_is_empty0Bb_
FNDA:1,_RNCNvNtNtNtNtCsawjdjYzw0zz_7mostrod3app4bond5slash5testss_42range_close_no_slashes_releases_maker_bond0Bb_
FNDA:1,_RNCNvNtNtNtNtCsawjdjYzw0zz_7mostrod3app4bond5slash5testss_42range_close_noop_when_no_maker_bond_exists0Bb_
FNDA:1,_RNCNvNtNtNtNtCsawjdjYzw0zz_7mostrod3app4bond5slash5testss_42validate_null_payload_passes_with_no_bonds0Bb_
FNDA:1,_RNCNvNtNtNtNtCsawjdjYzw0zz_7mostrod3app4bond5slash5testss_43apply_slash_both_returns_two_confirmed_rows0Bb_
FNDA:1,_RNCNvNtNtNtNtCsawjdjYzw0zz_7mostrod3app4bond5slash5testss_44apply_null_payload_releases_all_active_bonds0Bb_
FNDA:1,_RNCNvNtNtNtNtCsawjdjYzw0zz_7mostrod3app4bond5slash5testss_44notify_bond_slashed_targets_the_slashed_user0Bb_
FNDA:1,_RNCNvNtNtNtNtCsawjdjYzw0zz_7mostrod3app4bond5slash5testss_44range_close_conserves_sats_across_two_slices0Bb_
FNDA:1,_RNCNvNtNtNtNtCsawjdjYzw0zz_7mostrod3app4bond5slash5testss_44range_close_full_slash_creates_no_refund_row0Bb_
FNDA:1,_RNCNvNtNtNtNtCsawjdjYzw0zz_7mostrod3app4bond5slash5testss_44settle_already_settled_is_treated_as_success0Bb_
FNDA:1,_RNCNvNtNtNtNtCsawjdjYzw0zz_7mostrod3app4bond5slash5testss_45apply_is_idempotent_on_already_pending_payout0Bb_
FNDA:1,_RNCNvNtNtNtNtCsawjdjYzw0zz_7mostrod3app4bond5slash5testss_45apply_slash_buyer_returns_confirmed_taker_row0Bb_
FNDA:1,_RNCNvNtNtNtNtCsawjdjYzw0zz_7mostrod3app4bond5slash5testss_45apply_transient_settle_failure_returns_no_row0Bb_
FNDA:1,_RNCNvNtNtNtNtCsawjdjYzw0zz_7mostrod3app4bond5slash5testss_45timeout_cancel_releases_maker_bond_sell_order0Bb_
FNDA:1,_RNCNvNtNtNtNtCsawjdjYzw0zz_7mostrod3app4bond5slash5testss_45timeout_slash_skipped_when_apply_to_make_only0Bb_
FNDA:1,_RNCNvNtNtNtNtCsawjdjYzw0zz_7mostrod3app4bond5slash5testss_46range_close_reanchors_slice_child_claim_window0Bb_
FNDA:1,_RNCNvNtNtNtNtCsawjdjYzw0zz_7mostrod3app4bond5slash5testss_47range_close_loses_cas_race_and_skips_refund_row0Bb_
FNDA:1,_RNCNvNtNtNtNtCsawjdjYzw0zz_7mostrod3app4bond5slash5testss_47slash_one_cas_db_error_is_logged_not_propagated0Bb_
FNDA:1,_RNCNvNtNtNtNtCsawjdjYzw0zz_7mostrod3app4bond5slash5testss_47timeout_republish_retains_maker_bond_sell_order0Bb_
FNDA:1,_RNCNvNtNtNtNtCsawjdjYzw0zz_7mostrod3app4bond5slash5testss_48record_maker_slice_slash_is_idempotent_per_slice0Bb_
FNDA:1,_RNCNvNtNtNtNtCsawjdjYzw0zz_7mostrod3app4bond5slash5testss_48timeout_slash_disabled_releases_without_slashing0Bb_
FNDA:1,_RNCNvNtNtNtNtCsawjdjYzw0zz_7mostrod3app4bond5slash5testss_49is_unique_violation_false_for_non_unique_db_error0Bb_
FNDA:1,_RNCNvNtNtNtNtCsawjdjYzw0zz_7mostrod3app4bond5slash5testss_49notify_bond_slashed_skips_when_pubkey_unparseable0Bb_
FNDA:1,_RNCNvNtNtNtNtCsawjdjYzw0zz_7mostrod3app4bond5slash5testss_49reconcile_with_returns_zero_when_scan_query_fails0Bb_
FNDA:1,_RNCNvNtNtNtNtCsawjdjYzw0zz_7mostrod3app4bond5slash5testss_49slash_settle_transport_failure_leaves_bond_locked0Bb_
FNDA:1,_RNCNvNtNtNtNtCsawjdjYzw0zz_7mostrod3app4bond5slash5testss_49slice_slash_unique_index_rejects_forced_duplicate0Bb_
FNDA:1,_RNCNvNtNtNtNtCsawjdjYzw0zz_7mostrod3app4bond5slash5testss_49timeout_range_maker_slash_is_idempotent_per_slice0Bb_
FNDA:1,_RNCNvNtNtNtNtCsawjdjYzw0zz_7mostrod3app4bond5slash5testss_50record_maker_slice_slash_clamps_cumulative_to_bond0Bb_
FNDA:1,_RNCNvNtNtNtNtCsawjdjYzw0zz_7mostrod3app4bond5slash5testss_50timeout_slash_buy_seller_silent_slashes_taker_bond0Bb_
FNDA:1,_RNCNvNtNtNtNtCsawjdjYzw0zz_7mostrod3app4bond5slash5testss_50timeout_slash_sell_buyer_silent_slashes_taker_bond0Bb_
FNDA:1,_RNCNvNtNtNtNtCsawjdjYzw0zz_7mostrod3app4bond5slash5testss_51timeout_maker_slash_skipped_when_apply_to_take_only0Bb_
FNDA:1,_RNCNvNtNtNtNtCsawjdjYzw0zz_7mostrod3app4bond5slash5testss_51validate_slash_seller_on_sell_apply_to_take_rejects0Bb_
FNDA:1,_RNCNvNtNtNtNtCsawjdjYzw0zz_7mostrod3app4bond5slash5testss_52record_maker_slice_slash_buy_order_uses_buyer_pubkey0Bb_
FNDA:1,_RNCNvNtNtNtNtCsawjdjYzw0zz_7mostrod3app4bond5slash5testss_53apply_slash_buyer_on_buy_order_transitions_maker_bond0Bb_
FNDA:1,_RNCNvNtNtNtNtCsawjdjYzw0zz_7mostrod3app4bond5slash5testss_53notify_bond_slashed_skips_when_order_kind_unparseable0Bb_
FNDA:1,_RNCNvNtNtNtNtCsawjdjYzw0zz_7mostrod3app4bond5slash5testss_53range_close_skips_settle_when_parent_preimage_missing0Bb_
FNDA:1,_RNCNvNtNtNtNtCsawjdjYzw0zz_7mostrod3app4bond5slash5testss_54apply_range_maker_slash_records_child_without_settling0Bb_
FNDA:1,_RNCNvNtNtNtNtCsawjdjYzw0zz_7mostrod3app4bond5slash5testss_54apply_slash_buyer_on_sell_order_transitions_taker_bond0Bb_
FNDA:1,_RNCNvNtNtNtNtCsawjdjYzw0zz_7mostrod3app4bond5slash5testss_54validate_slash_buyer_passes_when_buyer_has_locked_bond0Bb_
FNDA:1,_RNCNvNtNtNtNtCsawjdjYzw0zz_7mostrod3app4bond5slash5testss_55apply_range_maker_slash_idempotent_retry_returns_no_row0Bb_
FNDA:1,_RNCNvNtNtNtNtCsawjdjYzw0zz_7mostrod3app4bond5slash5testss_55apply_range_maker_slash_returns_child_with_slice_amount0Bb_
FNDA:1,_RNCNvNtNtNtNtCsawjdjYzw0zz_7mostrod3app4bond5slash5testss_55apply_slash_seller_on_sell_order_transitions_maker_bond0Bb_
FNDA:1,_RNCNvNtNtNtNtCsawjdjYzw0zz_7mostrod3app4bond5slash5testss_55record_maker_slice_slash_propagates_non_unique_db_error0Bb_
FNDA:1,_RNCNvNtNtNtNtCsawjdjYzw0zz_7mostrod3app4bond5slash5testss_55resolve_at_close_or_warn_noop_when_no_locked_maker_bond0Bb_
FNDA:1,_RNCNvNtNtNtNtCsawjdjYzw0zz_7mostrod3app4bond5slash5testss_55timeout_maker_responsible_slashes_maker_bond_sell_order0Bb_
FNDA:1,_RNCNvNtNtNtNtCsawjdjYzw0zz_7mostrod3app4bond5slash5testss_56collect_stranded_logs_and_skips_when_order_lookup_errors0Bb_
FNDA:1,_RNCNvNtNtNtNtCsawjdjYzw0zz_7mostrod3app4bond5slash5testss_56record_maker_slice_slash_skipped_once_parent_left_locked0Bb_
FNDA:1,_RNCNvNtNtNtNtCsawjdjYzw0zz_7mostrod3app4bond5slash5testss_56slash_one_with_no_preimage_leaves_bond_locked_for_review0Bb_
FNDA:1,_RNCNvNtNtNtNtCsawjdjYzw0zz_7mostrod3app4bond5slash5testss_56timeout_republish_with_no_slash_still_retains_maker_bond0Bb_
FNDA:1,_RNCNvNtNtNtNtCsawjdjYzw0zz_7mostrod3app4bond5slash5testss_58reconcile_sweep_isolates_a_bad_root_and_processes_the_rest0Bb_
FNDA:1,_RNCNvNtNtNtNtCsawjdjYzw0zz_7mostrod3app4bond5slash5testss_58reconcile_with_logs_and_continues_when_a_root_close_errors0Bb_
FNDA:1,_RNCNvNtNtNtNtCsawjdjYzw0zz_7mostrod3app4bond5slash5testss_58timeout_no_slash_when_responsible_party_is_maker_buy_order0Bb_
FNDA:1,_RNCNvNtNtNtNtCsawjdjYzw0zz_7mostrod3app4bond5slash5testss_59record_maker_slice_slash_skips_when_root_missing_max_amount0Bb_
FNDA:1,_RNCNvNtNtNtNtCsawjdjYzw0zz_7mostrod3app4bond5slash5testss_59resolve_at_close_or_warn_logs_when_maker_bond_lookup_errors0Bb_
FNDA:1,_RNCNvNtNtNtNtCsawjdjYzw0zz_7mostrod3app4bond5slash5testss_59timeout_dispatch_on_non_waiting_status_releases_defensively0Bb_
FNDA:1,_RNCNvNtNtNtNtCsawjdjYzw0zz_7mostrod3app4bond5slash5testss_59timeout_no_slash_when_responsible_party_is_maker_sell_order0Bb_
FNDA:1,_RNCNvNtNtNtNtCsawjdjYzw0zz_7mostrod3app4bond5slash5testss_60resolve_slash_target_ignores_range_root_bond_when_not_locked0Bb_
FNDA:1,_RNCNvNtNtNtNtCsawjdjYzw0zz_7mostrod3app4bond5slash5testss_61range_close_with_one_slash_settles_once_and_refunds_remainder0Bb_
FNDA:1,_RNCNvNtNtNtNtCsawjdjYzw0zz_7mostrod3app4bond5slash5testss_61timeout_slash_armed_but_no_bond_posted_releases_without_slash0Bb_
FNDA:1,_RNCNvNtNtNtNtCsawjdjYzw0zz_7mostrod3app4bond5slash5testss_62record_maker_slice_slash_skips_when_bond_already_fully_slashed0Bb_
FNDA:1,_RNCNvNtNtNtNtCsawjdjYzw0zz_7mostrod3app4bond5slash5testss_62record_maker_slice_slash_skips_when_slice_missing_maker_pubkey0Bb_
FNDA:1,_RNCNvNtNtNtNtCsawjdjYzw0zz_7mostrod3app4bond5slash5testss_62slash_one_cas_noop_when_bond_already_transitioned_concurrently0Bb_
FNDA:1,_RNCNvNtNtNtNtCsawjdjYzw0zz_7mostrod3app4bond5slash5testss_62timeout_slash_confirmed_survives_concurrent_payout_progression0Bb_
FNDA:1,_RNCNvNtNtNtNtCsawjdjYzw0zz_7mostrod3app4bond5slash5testss_63timeout_range_maker_slash_records_child_and_keeps_parent_locked0Bb_
FNDA:1,_RNCNvNtNtNtNtCsawjdjYzw0zz_7mostrod3app4bond5slash5testss_65reconcile_sweep_retries_stranded_locked_parent_after_failed_close0Bb_
FNDA:1,_RNCNvNtNtNtNtCsawjdjYzw0zz_7mostrod3app4bond5slash5testss_66reconcile_stranded_range_maker_bonds_returns_early_when_scan_fails0Bb_
FNDA:1,_RNCNvNtNtNtNtCsawjdjYzw0zz_7mostrod3app4bond5slash5testss_66timeout_range_maker_slash_resolves_root_bond_from_descendant_slice0Bb_
FNDA:1,_RNCNvNtNtNtNtCsawjdjYzw0zz_7mostrod3app4bond5slash5testss_68timeout_maker_responsible_buy_order_slashes_maker_and_releases_taker0Bb_
FNDA:1,_RNCNvNtNtNtNtCsawjdjYzw0zz_7mostrod3app4bond5slash5testss_71timeout_slash_transient_settle_failure_leaves_bond_locked_and_no_notice0Bb_
FNDA:1,_RNCNvNtNtNtNtCsawjdjYzw0zz_7mostrod3app4bond5slash5testss_72reconcile_stranded_range_maker_bonds_returns_early_when_nothing_stranded0Bb_
FNDA:1,_RNCNvXs0_NtNtNtNtCsawjdjYzw0zz_7mostrod3app4bond5slash5testsNtB7_17RaceWinningSettleNtB9_15SettleLightning19settle_hold_invoice0Bf_
FNDA:33,_RNCNvXs_NtNtNtNtCsawjdjYzw0zz_7mostrod3app4bond5slash5testsINtNtCsauO83Ko6oyK_5alloc4sync3ArcNtB6_10StubSettleENtB8_15SettleLightning19settle_hold_invoice0Be_
FNDA:7,_RNvMNtNtNtNtCsawjdjYzw0zz_7mostrod3app4bond5slash5testsNtB2_10StubSettle14fail_next_with
FNDA:59,_RNvMNtNtNtNtCsawjdjYzw0zz_7mostrod3app4bond5slash5testsNtB2_10StubSettle3new
FNDA:37,_RNvMNtNtNtNtCsawjdjYzw0zz_7mostrod3app4bond5slash5testsNtB2_10StubSettle5calls
FNDA:81,_RNvNtNtNtNtCsawjdjYzw0zz_7mostrod3app4bond5slash5tests10setup_pool
FNDA:40,_RNvNtNtNtNtCsawjdjYzw0zz_7mostrod3app4bond5slash5tests11insert_bond
FNDA:37,_RNvNtNtNtNtCsawjdjYzw0zz_7mostrod3app4bond5slash5tests11range_slice
FNDA:18,_RNvNtNtNtNtCsawjdjYzw0zz_7mostrod3app4bond5slash5tests11timeout_cfg
FNDA:84,_RNvNtNtNtNtCsawjdjYzw0zz_7mostrod3app4bond5slash5tests13fixture_order
FNDA:95,_RNvNtNtNtNtCsawjdjYzw0zz_7mostrod3app4bond5slash5tests13stub_preimage
FNDA:19,_RNvNtNtNtNtCsawjdjYzw0zz_7mostrod3app4bond5slash5tests13waiting_order
FNDA:3,_RNvNtNtNtNtCsawjdjYzw0zz_7mostrod3app4bond5slash5tests14order_msg_with
FNDA:24,_RNvNtNtNtNtCsawjdjYzw0zz_7mostrod3app4bond5slash5tests15read_bond_state
FNDA:45,_RNvNtNtNtNtCsawjdjYzw0zz_7mostrod3app4bond5slash5tests16insert_order_row
FNDA:50,_RNvNtNtNtNtCsawjdjYzw0zz_7mostrod3app4bond5slash5tests21insert_bond_with_role
FNDA:37,_RNvNtNtNtNtCsawjdjYzw0zz_7mostrod3app4bond5slash5tests22insert_range_order_row
FNDA:33,_RNvNtNtNtNtCsawjdjYzw0zz_7mostrod3app4bond5slash5tests24insert_parent_maker_bond
FNDA:135,_RNvNtNtNtNtCsawjdjYzw0zz_7mostrod3app4bond5slash5tests8maker_pk
FNDA:127,_RNvNtNtNtNtCsawjdjYzw0zz_7mostrod3app4bond5slash5tests8taker_pk
FNDA:1,_RNvNtNtNtNtCsawjdjYzw0zz_7mostrod3app4bond5slash5testss_29slash_both_settles_both_htlcs
FNDA:1,_RNvNtNtNtNtCsawjdjYzw0zz_7mostrod3app4bond5slash5testss_31apply_with_no_bond_rows_is_noop
FNDA:1,_RNvNtNtNtNtCsawjdjYzw0zz_7mostrod3app4bond5slash5testss_31timeout_no_config_releases_bond
FNDA:1,_RNvNtNtNtNtCsawjdjYzw0zz_7mostrod3app4bond5slash5testss_32reconcile_sweep_skips_open_range
FNDA:1,_RNvNtNtNtNtCsawjdjYzw0zz_7mostrod3app4bond5slash5testss_34apply_null_payload_returns_no_rows
FNDA:1,_RNvNtNtNtNtCsawjdjYzw0zz_7mostrod3app4bond5slash5testss_34slash_one_settles_exactly_one_htlc
FNDA:1,_RNvNtNtNtNtCsawjdjYzw0zz_7mostrod3app4bond5slash5testss_36extract_returns_payload_when_present
FNDA:1,_RNvNtNtNtNtCsawjdjYzw0zz_7mostrod3app4bond5slash5testss_37apply_idempotent_retry_returns_no_row
FNDA:1,_RNvNtNtNtNtCsawjdjYzw0zz_7mostrod3app4bond5slash5testss_39slash_treats_already_settled_as_success
FNDA:1,_RNvNtNtNtNtCsawjdjYzw0zz_7mostrod3app4bond5slash5testss_40non_slashed_bond_is_released_not_settled
FNDA:1,_RNvNtNtNtNtCsawjdjYzw0zz_7mostrod3app4bond5slash5testss_40record_maker_slice_slash_is_proportional
FNDA:1,_RNvNtNtNtNtCsawjdjYzw0zz_7mostrod3app4bond5slash5testss_41maker_bond_resolves_from_descendant_slice
FNDA:1,_RNvNtNtNtNtCsawjdjYzw0zz_7mostrod3app4bond5slash5testss_41range_close_crash_after_settle_is_resumed
FNDA:1,_RNvNtNtNtNtCsawjdjYzw0zz_7mostrod3app4bond5slash5testss_41range_close_releases_non_range_maker_bond
FNDA:1,_RNvNtNtNtNtCsawjdjYzw0zz_7mostrod3app4bond5slash5testss_41validate_rejects_when_bond_table_is_empty
FNDA:1,_RNvNtNtNtNtCsawjdjYzw0zz_7mostrod3app4bond5slash5testss_42range_close_no_slashes_releases_maker_bond
FNDA:1,_RNvNtNtNtNtCsawjdjYzw0zz_7mostrod3app4bond5slash5testss_42range_close_noop_when_no_maker_bond_exists
FNDA:1,_RNvNtNtNtNtCsawjdjYzw0zz_7mostrod3app4bond5slash5testss_42validate_null_payload_passes_with_no_bonds
FNDA:1,_RNvNtNtNtNtCsawjdjYzw0zz_7mostrod3app4bond5slash5testss_43apply_slash_both_returns_two_confirmed_rows
FNDA:1,_RNvNtNtNtNtCsawjdjYzw0zz_7mostrod3app4bond5slash5testss_43extract_returns_default_when_payload_absent
FNDA:1,_RNvNtNtNtNtCsawjdjYzw0zz_7mostrod3app4bond5slash5testss_44apply_null_payload_releases_all_active_bonds
FNDA:1,_RNvNtNtNtNtCsawjdjYzw0zz_7mostrod3app4bond5slash5testss_44notify_bond_slashed_targets_the_slashed_user
FNDA:1,_RNvNtNtNtNtCsawjdjYzw0zz_7mostrod3app4bond5slash5testss_44range_close_conserves_sats_across_two_slices
FNDA:1,_RNvNtNtNtNtCsawjdjYzw0zz_7mostrod3app4bond5slash5testss_44range_close_full_slash_creates_no_refund_row
FNDA:1,_RNvNtNtNtNtCsawjdjYzw0zz_7mostrod3app4bond5slash5testss_44settle_already_settled_is_treated_as_success
FNDA:1,_RNvNtNtNtNtCsawjdjYzw0zz_7mostrod3app4bond5slash5testss_45apply_is_idempotent_on_already_pending_payout
FNDA:1,_RNvNtNtNtNtCsawjdjYzw0zz_7mostrod3app4bond5slash5testss_45apply_slash_buyer_returns_confirmed_taker_row
FNDA:1,_RNvNtNtNtNtCsawjdjYzw0zz_7mostrod3app4bond5slash5testss_45apply_transient_settle_failure_returns_no_row
FNDA:1,_RNvNtNtNtNtCsawjdjYzw0zz_7mostrod3app4bond5slash5testss_45timeout_cancel_releases_maker_bond_sell_order
FNDA:1,_RNvNtNtNtNtCsawjdjYzw0zz_7mostrod3app4bond5slash5testss_45timeout_slash_skipped_when_apply_to_make_only
FNDA:1,_RNvNtNtNtNtCsawjdjYzw0zz_7mostrod3app4bond5slash5testss_46range_close_reanchors_slice_child_claim_window
FNDA:1,_RNvNtNtNtNtCsawjdjYzw0zz_7mostrod3app4bond5slash5testss_47range_close_loses_cas_race_and_skips_refund_row
FNDA:1,_RNvNtNtNtNtCsawjdjYzw0zz_7mostrod3app4bond5slash5testss_47slash_one_cas_db_error_is_logged_not_propagated
FNDA:1,_RNvNtNtNtNtCsawjdjYzw0zz_7mostrod3app4bond5slash5testss_47timeout_republish_retains_maker_bond_sell_order
FNDA:1,_RNvNtNtNtNtCsawjdjYzw0zz_7mostrod3app4bond5slash5testss_48record_maker_slice_slash_is_idempotent_per_slice
FNDA:1,_RNvNtNtNtNtCsawjdjYzw0zz_7mostrod3app4bond5slash5testss_48timeout_slash_disabled_releases_without_slashing
FNDA:1,_RNvNtNtNtNtCsawjdjYzw0zz_7mostrod3app4bond5slash5testss_49is_unique_violation_false_for_non_unique_db_error
FNDA:1,_RNvNtNtNtNtCsawjdjYzw0zz_7mostrod3app4bond5slash5testss_49notify_bond_slashed_skips_when_pubkey_unparseable
FNDA:1,_RNvNtNtNtNtCsawjdjYzw0zz_7mostrod3app4bond5slash5testss_49reconcile_with_returns_zero_when_scan_query_fails
FNDA:1,_RNvNtNtNtNtCsawjdjYzw0zz_7mostrod3app4bond5slash5testss_49slash_settle_transport_failure_leaves_bond_locked
FNDA:1,_RNvNtNtNtNtCsawjdjYzw0zz_7mostrod3app4bond5slash5testss_49slice_slash_unique_index_rejects_forced_duplicate
FNDA:1,_RNvNtNtNtNtCsawjdjYzw0zz_7mostrod3app4bond5slash5testss_49timeout_range_maker_slash_is_idempotent_per_slice
FNDA:1,_RNvNtNtNtNtCsawjdjYzw0zz_7mostrod3app4bond5slash5testss_50record_maker_slice_slash_clamps_cumulative_to_bond
FNDA:1,_RNvNtNtNtNtCsawjdjYzw0zz_7mostrod3app4bond5slash5testss_50timeout_slash_buy_seller_silent_slashes_taker_bond
FNDA:1,_RNvNtNtNtNtCsawjdjYzw0zz_7mostrod3app4bond5slash5testss_50timeout_slash_sell_buyer_silent_slashes_taker_bond
FNDA:1,_RNvNtNtNtNtCsawjdjYzw0zz_7mostrod3app4bond5slash5testss_51timeout_maker_slash_skipped_when_apply_to_take_only
FNDA:1,_RNvNtNtNtNtCsawjdjYzw0zz_7mostrod3app4bond5slash5testss_51validate_slash_seller_on_sell_apply_to_take_rejects
FNDA:1,_RNvNtNtNtNtCsawjdjYzw0zz_7mostrod3app4bond5slash5testss_52extract_returns_default_for_unrelated_payload_shapes
FNDA:1,_RNvNtNtNtNtCsawjdjYzw0zz_7mostrod3app4bond5slash5testss_52record_maker_slice_slash_buy_order_uses_buyer_pubkey
FNDA:1,_RNvNtNtNtNtCsawjdjYzw0zz_7mostrod3app4bond5slash5testss_53apply_slash_buyer_on_buy_order_transitions_maker_bond
FNDA:1,_RNvNtNtNtNtCsawjdjYzw0zz_7mostrod3app4bond5slash5testss_53notify_bond_slashed_skips_when_order_kind_unparseable
FNDA:1,_RNvNtNtNtNtCsawjdjYzw0zz_7mostrod3app4bond5slash5testss_53range_close_skips_settle_when_parent_preimage_missing
FNDA:1,_RNvNtNtNtNtCsawjdjYzw0zz_7mostrod3app4bond5slash5testss_54apply_range_maker_slash_records_child_without_settling
FNDA:1,_RNvNtNtNtNtCsawjdjYzw0zz_7mostrod3app4bond5slash5testss_54apply_slash_buyer_on_sell_order_transitions_taker_bond
FNDA:1,_RNvNtNtNtNtCsawjdjYzw0zz_7mostrod3app4bond5slash5testss_54validate_slash_buyer_passes_when_buyer_has_locked_bond
FNDA:1,_RNvNtNtNtNtCsawjdjYzw0zz_7mostrod3app4bond5slash5testss_55apply_range_maker_slash_idempotent_retry_returns_no_row
FNDA:1,_RNvNtNtNtNtCsawjdjYzw0zz_7mostrod3app4bond5slash5testss_55apply_range_maker_slash_returns_child_with_slice_amount
FNDA:1,_RNvNtNtNtNtCsawjdjYzw0zz_7mostrod3app4bond5slash5testss_55apply_slash_seller_on_sell_order_transitions_maker_bond
FNDA:1,_RNvNtNtNtNtCsawjdjYzw0zz_7mostrod3app4bond5slash5testss_55record_maker_slice_slash_propagates_non_unique_db_error
FNDA:1,_RNvNtNtNtNtCsawjdjYzw0zz_7mostrod3app4bond5slash5testss_55resolve_at_close_or_warn_noop_when_no_locked_maker_bond
FNDA:1,_RNvNtNtNtNtCsawjdjYzw0zz_7mostrod3app4bond5slash5testss_55timeout_maker_responsible_slashes_maker_bond_sell_order
FNDA:1,_RNvNtNtNtNtCsawjdjYzw0zz_7mostrod3app4bond5slash5testss_56collect_stranded_logs_and_skips_when_order_lookup_errors
FNDA:1,_RNvNtNtNtNtCsawjdjYzw0zz_7mostrod3app4bond5slash5testss_56record_maker_slice_slash_skipped_once_parent_left_locked
FNDA:1,_RNvNtNtNtNtCsawjdjYzw0zz_7mostrod3app4bond5slash5testss_56slash_one_with_no_preimage_leaves_bond_locked_for_review
FNDA:1,_RNvNtNtNtNtCsawjdjYzw0zz_7mostrod3app4bond5slash5testss_56timeout_republish_with_no_slash_still_retains_maker_bond
FNDA:1,_RNvNtNtNtNtCsawjdjYzw0zz_7mostrod3app4bond5slash5testss_58reconcile_sweep_isolates_a_bad_root_and_processes_the_rest
FNDA:1,_RNvNtNtNtNtCsawjdjYzw0zz_7mostrod3app4bond5slash5testss_58reconcile_with_logs_and_continues_when_a_root_close_errors
FNDA:1,_RNvNtNtNtNtCsawjdjYzw0zz_7mostrod3app4bond5slash5testss_58timeout_no_slash_when_responsible_party_is_maker_buy_order
FNDA:1,_RNvNtNtNtNtCsawjdjYzw0zz_7mostrod3app4bond5slash5testss_59record_maker_slice_slash_skips_when_root_missing_max_amount
FNDA:1,_RNvNtNtNtNtCsawjdjYzw0zz_7mostrod3app4bond5slash5testss_59resolve_at_close_or_warn_logs_when_maker_bond_lookup_errors
FNDA:1,_RNvNtNtNtNtCsawjdjYzw0zz_7mostrod3app4bond5slash5testss_59timeout_dispatch_on_non_waiting_status_releases_defensively
FNDA:1,_RNvNtNtNtNtCsawjdjYzw0zz_7mostrod3app4bond5slash5testss_59timeout_no_slash_when_responsible_party_is_maker_sell_order
FNDA:1,_RNvNtNtNtNtCsawjdjYzw0zz_7mostrod3app4bond5slash5testss_60resolve_slash_target_ignores_range_root_bond_when_not_locked
FNDA:1,_RNvNtNtNtNtCsawjdjYzw0zz_7mostrod3app4bond5slash5testss_61range_close_with_one_slash_settles_once_and_refunds_remainder
FNDA:1,_RNvNtNtNtNtCsawjdjYzw0zz_7mostrod3app4bond5slash5testss_61timeout_slash_armed_but_no_bond_posted_releases_without_slash
FNDA:1,_RNvNtNtNtNtCsawjdjYzw0zz_7mostrod3app4bond5slash5testss_62record_maker_slice_slash_skips_when_bond_already_fully_slashed
FNDA:1,_RNvNtNtNtNtCsawjdjYzw0zz_7mostrod3app4bond5slash5testss_62record_maker_slice_slash_skips_when_slice_missing_maker_pubkey
FNDA:1,_RNvNtNtNtNtCsawjdjYzw0zz_7mostrod3app4bond5slash5testss_62slash_one_cas_noop_when_bond_already_transitioned_concurrently
FNDA:1,_RNvNtNtNtNtCsawjdjYzw0zz_7mostrod3app4bond5slash5testss_62timeout_slash_confirmed_survives_concurrent_payout_progression
FNDA:1,_RNvNtNtNtNtCsawjdjYzw0zz_7mostrod3app4bond5slash5testss_63timeout_range_maker_slash_records_child_and_keeps_parent_locked
FNDA:1,_RNvNtNtNtNtCsawjdjYzw0zz_7mostrod3app4bond5slash5testss_65reconcile_sweep_retries_stranded_locked_parent_after_failed_close
FNDA:1,_RNvNtNtNtNtCsawjdjYzw0zz_7mostrod3app4bond5slash5testss_66reconcile_stranded_range_maker_bonds_returns_early_when_scan_fails
FNDA:1,_RNvNtNtNtNtCsawjdjYzw0zz_7mostrod3app4bond5slash5testss_66timeout_range_maker_slash_resolves_root_bond_from_descendant_slice
FNDA:1,_RNvNtNtNtNtCsawjdjYzw0zz_7mostrod3app4bond5slash5testss_68timeout_maker_responsible_buy_order_slashes_maker_and_releases_taker
FNDA:1,_RNvNtNtNtNtCsawjdjYzw0zz_7mostrod3app4bond5slash5testss_71timeout_slash_transient_settle_failure_leaves_bond_locked_and_no_notice
FNDA:1,_RNvNtNtNtNtCsawjdjYzw0zz_7mostrod3app4bond5slash5testss_72reconcile_stranded_range_maker_bonds_returns_early_when_nothing_stranded
FNDA:1,_RNvXs0_NtNtNtNtCsawjdjYzw0zz_7mostrod3app4bond5slash5testsNtB5_17RaceWinningSettleNtB7_15SettleLightning19settle_hold_invoice
FNF:278
FNH:267
DA:84,0
DA:85,0
DA:86,0
DA:87,0
DA:88,0
DA:89,0
DA:90,0
DA:91,0
DA:92,0
DA:93,0
DA:100,7
DA:101,7
DA:102,7
DA:103,4
DA:104,4
DA:105,7
DA:113,3
DA:114,3
DA:115,3
DA:116,2
DA:117,2
DA:118,2
DA:119,3
DA:120,3
DA:141,7
DA:142,7
DA:143,1
DA:144,6
DA:145,6
DA:146,6
DA:147,6
DA:149,7
DA:168,10
DA:169,10
DA:170,10
DA:171,10
DA:172,10
DA:173,10
DA:174,5
DA:175,5
DA:176,5
DA:177,5
DA:178,5
DA:179,2
DA:180,2
DA:181,2
DA:183,1
DA:184,4
DA:185,4
DA:186,3
DA:187,3
DA:188,3
DA:190,1
DA:191,3
DA:192,3
DA:193,10
DA:198,24
DA:199,24
DA:200,9
DA:201,24
DA:204,24
DA:218,36
DA:219,36
DA:220,36
DA:221,36
DA:222,36
DA:223,36
DA:224,36
DA:225,36
DA:226,29
DA:227,7
DA:228,7
DA:229,2
DA:230,2
DA:231,2
DA:232,1
DA:233,1
DA:234,0
DA:235,5
DA:236,6
DA:237,36
DA:275,23
DA:276,23
DA:277,23
DA:278,23
DA:279,23
DA:280,23
DA:281,23
DA:285,23
DA:290,23
DA:297,23
DA:303,23
DA:311,23
DA:313,46
DA:314,23
DA:315,23
DA:316,23
DA:317,46
DA:318,26
DA:319,20
DA:324,20
DA:325,2
DA:327,18
DA:335,4
DA:336,4
DA:337,4
DA:338,4
DA:339,4
DA:340,3
DA:341,3
DA:342,3
DA:343,1
DA:350,14
DA:351,14
DA:352,14
DA:353,12
DA:354,12
DA:363,23
DA:364,23
DA:365,22
DA:366,14
DA:367,8
DA:368,8
DA:369,4
DA:370,4
DA:371,4
DA:372,0
DA:377,4
DA:380,23
DA:381,23
DA:387,38
DA:388,38
DA:389,38
DA:390,38
DA:391,38
DA:392,38
DA:393,38
DA:461,18
DA:462,9
DA:463,18
DA:467,18
DA:473,9
DA:474,9
DA:475,5
DA:477,4
DA:479,9
DA:481,19
DA:482,19
DA:483,19
DA:484,19
DA:485,19
DA:486,19
DA:490,19
DA:491,10
DA:492,8
DA:494,1
DA:495,1
DA:508,18
DA:516,18
DA:517,18
DA:518,17
DA:519,17
DA:520,14
DA:521,8
DA:523,6
DA:525,17
DA:526,18
DA:527,8
DA:528,8
DA:529,10
DA:536,10
DA:537,10
DA:538,10
DA:543,1
DA:544,1
DA:566,9
DA:567,9
DA:568,3
DA:569,3
DA:570,3
DA:571,3
DA:572,3
DA:573,3
DA:574,3
DA:575,3
DA:576,3
DA:577,3
DA:578,3
DA:579,2
DA:581,1
DA:584,6
DA:585,6
DA:586,6
DA:587,6
DA:588,6
DA:589,6
DA:590,6
DA:591,6
DA:596,6
DA:597,5
DA:599,1
DA:603,9
DA:604,11
DA:605,11
DA:606,8
DA:607,3
DA:611,3
DA:612,1
DA:613,2
DA:614,2
DA:615,0
DA:620,2
DA:623,9
DA:624,7
DA:625,7
DA:631,7
DA:634,2
DA:639,2
DA:642,19
DA:648,5
DA:649,5
DA:650,5
DA:651,5
DA:652,5
DA:653,5
DA:654,5
DA:655,5
DA:656,5
DA:657,5
DA:658,5
DA:659,5
DA:685,26
DA:686,26
DA:687,26
DA:688,26
DA:689,26
DA:690,26
DA:691,26
DA:692,26
DA:693,26
DA:694,26
DA:695,26
DA:696,26
DA:697,26
DA:698,26
DA:704,12
DA:705,12
DA:706,12
DA:716,3
DA:717,3
DA:718,2
DA:719,1
DA:720,1
DA:725,1
DA:728,2
DA:729,1
DA:730,1
DA:731,1
DA:735,1
DA:738,1
DA:739,1
DA:740,1
DA:741,1
DA:742,1
DA:743,1
DA:744,1
DA:745,1
DA:746,1
DA:747,1
DA:748,1
DA:749,1
DA:750,1
DA:751,1
DA:752,1
DA:753,1
DA:755,1
DA:756,1
DA:757,1
DA:758,1
DA:759,1
DA:760,1
DA:761,1
DA:762,1
DA:763,1
DA:764,3
DA:779,23
DA:780,23
DA:781,23
DA:782,23
DA:783,23
DA:784,23
DA:785,23
DA:786,23
DA:787,22
DA:789,1
DA:794,1
DA:798,22
DA:799,4
DA:800,1
DA:806,3
DA:811,3
DA:813,18
DA:815,19
DA:816,19
DA:817,19
DA:818,19
DA:819,19
DA:820,19
DA:821,19
DA:822,19
DA:823,19
DA:824,19
DA:825,19
DA:826,19
DA:827,19
DA:828,19
DA:829,19
DA:830,18
DA:831,18
DA:832,17
DA:837,0
DA:847,1
DA:854,1
DA:855,1
DA:862,23
DA:886,33
DA:887,33
DA:888,33
DA:889,33
DA:890,33
DA:891,33
DA:892,33
DA:893,33
DA:894,33
DA:895,33
DA:896,32
DA:897,1
DA:899,33
DA:900,1
DA:905,1
DA:907,32
DA:908,2
DA:913,2
DA:918,30
DA:919,30
DA:920,30
DA:921,30
DA:922,30
DA:923,1
DA:929,1
DA:930,29
DA:932,29
DA:933,29
DA:961,29
DA:962,29
DA:963,29
DA:964,29
DA:965,29
DA:966,29
DA:967,29
DA:968,29
DA:969,29
DA:970,29
DA:971,29
DA:972,29
DA:973,29
DA:974,29
DA:975,29
DA:976,29
DA:977,29
DA:978,29
DA:979,29
DA:980,29
DA:981,29
DA:982,29
DA:983,29
DA:984,29
DA:985,29
DA:986,29
DA:987,29
DA:988,29
DA:994,28
DA:995,28
DA:996,1
DA:997,0
DA:1002,0
DA:1004,1
DA:1005,1
DA:1006,1
DA:1007,1
DA:1010,28
DA:1014,4
DA:1019,4
DA:1020,24
DA:1027,24
DA:1028,24
DA:1029,24
DA:1030,24
DA:1031,24
DA:1032,24
DA:1033,24
DA:1034,24
DA:1035,24
DA:1036,24
DA:1037,24
DA:1038,24
DA:1040,24
DA:1047,24
DA:1048,33
DA:1069,18
DA:1070,18
DA:1071,18
DA:1072,18
DA:1073,18
DA:1074,18
DA:1075,2
DA:1079,16
DA:1080,1
DA:1081,15
DA:1083,15
DA:1084,15
DA:1085,14
DA:1086,14
DA:1087,14
DA:1088,14
DA:1089,14
DA:1092,1
DA:1099,15
DA:1100,15
DA:1103,2
DA:1104,13
DA:1108,13
DA:1109,1
DA:1113,1
DA:1115,12
DA:1116,3
DA:1117,2
DA:1122,1
DA:1126,1
DA:1128,9
DA:1139,11
DA:1141,11
DA:1142,11
DA:1143,11
DA:1144,11
DA:1150,11
DA:1151,11
DA:1152,11
DA:1153,11
DA:1154,11
DA:1155,11
DA:1156,11
DA:1157,11
DA:1158,1
DA:1159,1
DA:1163,1
DA:1164,10
DA:1174,10
DA:1175,10
DA:1176,10
DA:1177,10
DA:1178,10
DA:1179,10
DA:1180,10
DA:1181,10
DA:1182,10
DA:1192,10
DA:1193,10
DA:1194,10
DA:1195,10
DA:1196,10
DA:1197,10
DA:1198,10
DA:1199,10
DA:1200,10
DA:1201,10
DA:1202,10
DA:1203,0
DA:1205,10
DA:1212,9
DA:1213,9
DA:1214,9
DA:1215,9
DA:1216,9
DA:1217,9
DA:1218,9
DA:1219,9
DA:1220,9
DA:1221,9
DA:1222,9
DA:1223,9
DA:1224,9
DA:1225,9
DA:1226,9
DA:1227,9
DA:1228,9
DA:1229,9
DA:1230,9
DA:1231,9
DA:1232,9
DA:1233,9
DA:1234,9
DA:1235,9
DA:1236,1
DA:1238,8
DA:1239,8
DA:1240,8
DA:1242,8
DA:1248,0
DA:1252,8
DA:1253,18
DA:1261,8
DA:1262,8
DA:1263,8
DA:1264,8
DA:1265,8
DA:1266,8
DA:1267,8
DA:1268,0
DA:1269,7
DA:1270,1
DA:1271,1
DA:1272,1
DA:1275,0
DA:1276,0
DA:1277,0
DA:1278,0
DA:1279,0
DA:1282,0
DA:1283,0
DA:1287,0
DA:1288,8
DA:1303,11
DA:1304,11
DA:1305,11
DA:1306,11
DA:1307,11
DA:1316,6
DA:1317,4
DA:1318,1
DA:1319,1
DA:1320,1
DA:1325,1
DA:1328,4
DA:1329,3
DA:1330,1
DA:1331,0
DA:1332,0
DA:1337,0
DA:1341,9
DA:1342,11
DA:1351,5
DA:1352,5
DA:1353,5
DA:1354,5
DA:1355,5
DA:1356,4
DA:1357,1
DA:1358,1
DA:1359,1
DA:1362,4
DA:1363,4
DA:1364,3
DA:1365,2
DA:1366,1
DA:1372,4
DA:1373,5
DA:1380,5
DA:1382,5
DA:1383,4
DA:1384,0
DA:1385,1
DA:1386,1
DA:1387,1
DA:1390,0
DA:1391,0
DA:1392,0
DA:1393,0
DA:1394,0
DA:1397,0
DA:1398,0
DA:1399,0
DA:1403,0
DA:1404,5
DA:1415,36
DA:1416,36
DA:1417,15
DA:1418,21
DA:1420,36
DA:1421,36
DA:1422,36
DA:1423,36
DA:1424,36
DA:1454,59
DA:1455,59
DA:1456,59
DA:1457,37
DA:1458,37
DA:1459,37
DA:1460,7
DA:1461,7
DA:1462,7
DA:1466,33
DA:1467,33
DA:1468,33
DA:1469,33
DA:1470,33
DA:1471,33
DA:1472,33
DA:1473,7
DA:1474,7
DA:1475,7
DA:1476,26
DA:1477,26
DA:1478,33
DA:1479,33
DA:1482,81
DA:1483,81
DA:1484,81
DA:1485,81
DA:1486,81
DA:1487,81
DA:1488,81
DA:1489,81
DA:1490,81
DA:1491,81
DA:1492,81
DA:1493,81
DA:1494,243
DA:1495,81
DA:1496,81
DA:1497,486
DA:1499,243
DA:1500,243
DA:1501,243
DA:1502,243
DA:1504,81
DA:1505,81
DA:1506,81
DA:1507,81
DA:1508,81
DA:1509,81
DA:1510,81
DA:1511,81
DA:1512,81
DA:1513,81
DA:1514,81
DA:1515,81
DA:1519,243
DA:1520,81
DA:1521,81
DA:1522,891
DA:1524,243
DA:1525,243
DA:1526,243
DA:1527,243
DA:1529,81
DA:1530,81
DA:1531,81
DA:1532,81
DA:1533,81
DA:1534,81
DA:1535,81
DA:1536,81
DA:1538,45
DA:1539,45
DA:1540,45
DA:1541,45
DA:1542,45
DA:1543,45
DA:1544,45
DA:1545,45
DA:1546,45
DA:1547,45
DA:1548,45
DA:1549,45
DA:1550,45
DA:1551,45
DA:1552,45
DA:1553,45
DA:1554,45
DA:1555,45
DA:1556,45
DA:1557,45
DA:1558,45
DA:1559,45
DA:1560,45
DA:1561,45
DA:1563,84
DA:1564,84
DA:1565,84
DA:1566,84
DA:1567,84
DA:1568,84
DA:1569,84
DA:1570,84
DA:1571,84
DA:1572,84
DA:1573,84
DA:1574,84
DA:1575,84
DA:1576,84
DA:1577,84
DA:1578,84
DA:1584,95
DA:1585,95
DA:1586,95
DA:1588,40
DA:1589,40
DA:1590,40
DA:1591,40
DA:1592,40
DA:1593,40
DA:1594,40
DA:1595,40
DA:1601,50
DA:1602,50
DA:1603,50
DA:1604,50
DA:1605,50
DA:1606,50
DA:1607,50
DA:1608,50
DA:1609,50
DA:1610,50
DA:1613,50
DA:1614,50
DA:1615,50
DA:1616,50
DA:1618,127
DA:1619,127
DA:1620,127
DA:1621,135
DA:1622,135
DA:1623,135
DA:1625,3
DA:1626,3
DA:1627,3
DA:1628,3
DA:1629,3
DA:1630,3
DA:1631,3
DA:1633,3
DA:1636,1
DA:1640,1
DA:1641,1
DA:1642,1
DA:1643,1
DA:1644,1
DA:1647,1
DA:1651,1
DA:1652,1
DA:1653,1
DA:1654,1
DA:1655,1
DA:1658,1
DA:1659,1
DA:1660,1
DA:1661,1
DA:1662,1
DA:1663,1
DA:1664,1
DA:1665,1
DA:1666,1
DA:1667,1
DA:1670,1
DA:1674,1
DA:1675,1
DA:1676,1
DA:1677,1
DA:1678,1
DA:1679,1
DA:1680,1
DA:1681,1
DA:1682,1
DA:1685,1
DA:1687,1
DA:1688,1
DA:1689,1
DA:1690,1
DA:1691,1
DA:1692,1
DA:1693,1
DA:1694,1
DA:1695,1
DA:1696,1
DA:1699,1
DA:1703,1
DA:1704,1
DA:1705,1
DA:1707,1
DA:1708,1
DA:1709,1
DA:1710,1
DA:1711,1
DA:1712,1
DA:1713,1
DA:1714,1
DA:1715,1
DA:1716,1
DA:1717,1
DA:1718,1
DA:1719,1
DA:1722,1
DA:1725,1
DA:1726,1
DA:1727,1
DA:1728,1
DA:1729,1
DA:1730,1
DA:1731,1
DA:1732,1
DA:1733,1
DA:1734,1
DA:1735,1
DA:1736,1
DA:1739,1
DA:1743,1
DA:1744,1
DA:1745,1
DA:1746,1
DA:1748,1
DA:1749,1
DA:1750,1
DA:1751,1
DA:1752,1
DA:1753,1
DA:1754,1
DA:1755,1
DA:1756,1
DA:1757,1
DA:1758,1
DA:1759,1
DA:1760,1
DA:1762,1
DA:1763,1
DA:1764,1
DA:1765,1
DA:1766,1
DA:1767,1
DA:1768,1
DA:1769,1
DA:1770,1
DA:1771,1
DA:1772,1
DA:1775,1
DA:1779,1
DA:1780,1
DA:1781,1
DA:1782,1
DA:1783,1
DA:1784,1
DA:1785,1
DA:1786,1
DA:1787,1
DA:1788,1
DA:1789,1
DA:1790,1
DA:1791,1
DA:1792,1
DA:1793,1
DA:1794,1
DA:1795,1
DA:1797,1
DA:1798,1
DA:1799,1
DA:1800,1
DA:1801,1
DA:1802,1
DA:1803,1
DA:1804,1
DA:1805,1
DA:1806,1
DA:1807,1
DA:1813,1
DA:1814,1
DA:1817,1
DA:1826,1
DA:1827,1
DA:1828,1
DA:1829,1
DA:1830,1
DA:1831,1
DA:1832,1
DA:1833,1
DA:1834,1
DA:1835,1
DA:1836,1
DA:1837,1
DA:1838,1
DA:1839,1
DA:1840,1
DA:1841,1
DA:1845,1
DA:1847,1
DA:1848,1
DA:1849,1
DA:1850,1
DA:1851,1
DA:1852,1
DA:1853,1
DA:1854,1
DA:1855,1
DA:1857,1
DA:1858,1
DA:1859,1
DA:1860,1
DA:1861,1
DA:1862,1
DA:1863,1
DA:1865,1
DA:1868,1
DA:1870,1
DA:1871,1
DA:1872,1
DA:1873,1
DA:1874,1
DA:1875,1
DA:1876,1
DA:1877,1
DA:1878,1
DA:1879,1
DA:1880,1
DA:1883,1
DA:1888,1
DA:1890,1
DA:1891,1
DA:1892,1
DA:1893,1
DA:1894,1
DA:1895,1
DA:1896,1
DA:1897,1
DA:1898,1
DA:1899,1
DA:1900,1
DA:1901,1
DA:1902,1
DA:1903,1
DA:1905,1
DA:1906,1
DA:1907,1
DA:1908,1
DA:1909,1
DA:1910,1
DA:1911,1
DA:1912,1
DA:1913,1
DA:1914,1
DA:1916,1
DA:1917,1
DA:1918,1
DA:1919,1
DA:1920,1
DA:1921,1
DA:1922,1
DA:1924,1
DA:1927,1
DA:1928,1
DA:1931,1
DA:1934,1
DA:1935,1
DA:1936,1
DA:1937,1
DA:1938,1
DA:1939,1
DA:1940,1
DA:1941,1
DA:1943,1
DA:1944,1
DA:1945,1
DA:1946,1
DA:1947,1
DA:1948,1
DA:1949,1
DA:1950,1
DA:1951,1
DA:1952,1
DA:1953,1
DA:1954,1
DA:1955,1
DA:1956,1
DA:1957,1
DA:1958,1
DA:1961,1
DA:1962,1
DA:1963,1
DA:1964,1
DA:1965,1
DA:1966,1
DA:1967,1
DA:1968,1
DA:1969,1
DA:1970,1
DA:1971,1
DA:1972,1
DA:1973,1
DA:1974,1
DA:1975,1
DA:1976,1
DA:1981,1
DA:1983,1
DA:1986,1
DA:1987,1
DA:1988,1
DA:1989,1
DA:1990,1
DA:1993,1
DA:1996,1
DA:1997,1
DA:1998,1
DA:1999,1
DA:2000,1
DA:2001,1
DA:2002,1
DA:2003,1
DA:2004,1
DA:2005,1
DA:2006,1
DA:2007,1
DA:2008,1
DA:2009,1
DA:2010,1
DA:2011,1
DA:2012,1
DA:2013,1
DA:2014,1
DA:2015,1
DA:2016,1
DA:2017,1
DA:2022,1
DA:2027,1
DA:2028,1
DA:2029,1
DA:2030,1
DA:2031,1
DA:2032,1
DA:2033,1
DA:2034,1
DA:2035,1
DA:2037,1
DA:2038,1
DA:2039,1
DA:2041,1
DA:2042,1
DA:2043,1
DA:2046,1
DA:2047,1
DA:2048,1
DA:2049,1
DA:2050,1
DA:2051,1
DA:2052,1
DA:2055,1
DA:2062,1
DA:2063,1
DA:2064,1
DA:2065,1
DA:2066,1
DA:2067,1
DA:2068,1
DA:2069,1
DA:2070,1
DA:2071,1
DA:2073,1
DA:2074,1
DA:2075,1
DA:2080,1
DA:2081,1
DA:2085,2
DA:2086,2
DA:2087,2
DA:2088,2
DA:2089,2
DA:2090,2
DA:2091,2
DA:2092,1
DA:2093,1
DA:2096,1
DA:2100,1
DA:2101,1
DA:2102,1
DA:2103,1
DA:2104,1
DA:2105,1
DA:2106,1
DA:2107,1
DA:2108,1
DA:2110,1
DA:2111,1
DA:2112,1
DA:2114,1
DA:2115,1
DA:2118,1
DA:2119,1
DA:2120,1
DA:2121,1
DA:2122,1
DA:2123,1
DA:2124,1
DA:2127,1
DA:2133,1
DA:2134,1
DA:2135,1
DA:2136,1
DA:2137,1
DA:2138,1
DA:2139,1
DA:2140,1
DA:2141,1
DA:2142,1
DA:2144,1
DA:2145,1
DA:2146,1
DA:2148,1
DA:2149,1
DA:2150,1
DA:2151,1
DA:2152,1
DA:2153,1
DA:2154,1
DA:2155,1
DA:2156,1
DA:2157,1
DA:2158,1
DA:2161,1
DA:2165,1
DA:2166,1
DA:2167,1
DA:2168,1
DA:2169,1
DA:2170,1
DA:2171,1
DA:2172,1
DA:2173,1
DA:2174,1
DA:2176,1
DA:2177,1
DA:2178,1
DA:2180,1
DA:2181,1
DA:2182,1
DA:2183,1
DA:2184,1
DA:2185,1
DA:2186,1
DA:2187,1
DA:2188,1
DA:2189,1
DA:2190,1
DA:2199,18
DA:2200,18
DA:2201,18
DA:2202,18
DA:2203,18
DA:2204,18
DA:2205,18
DA:2206,18
DA:2207,18
DA:2208,18
DA:2209,18
DA:2210,18
DA:2214,19
DA:2215,19
DA:2216,19
DA:2217,19
DA:2218,19
DA:2220,24
DA:2221,24
DA:2222,24
DA:2223,24
DA:2224,24
DA:2225,24
DA:2226,24
DA:2227,24
DA:2230,1
DA:2235,1
DA:2236,1
DA:2237,1
DA:2238,1
DA:2239,1
DA:2240,1
DA:2242,1
DA:2243,1
DA:2244,1
DA:2246,1
DA:2247,1
DA:2248,1
DA:2249,1
DA:2251,1
DA:2252,1
DA:2255,1
DA:2256,1
DA:2259,1
DA:2260,1
DA:2261,1
DA:2262,1
DA:2263,1
DA:2266,1
DA:2271,1
DA:2272,1
DA:2273,1
DA:2274,1
DA:2275,1
DA:2276,1
DA:2278,1
DA:2279,1
DA:2280,1
DA:2282,1
DA:2283,1
DA:2284,1
DA:2285,1
DA:2287,1
DA:2288,1
DA:2289,1
DA:2292,1
DA:2293,1
DA:2294,1
DA:2297,1
DA:2298,1
DA:2299,1
DA:2300,1
DA:2301,1
DA:2302,1
DA:2303,1
DA:2304,1
DA:2305,1
DA:2306,1
DA:2309,1
DA:2317,1
DA:2318,1
DA:2319,1
DA:2320,1
DA:2321,1
DA:2322,1
DA:2324,1
DA:2325,1
DA:2326,1
DA:2327,1
DA:2328,1
DA:2329,1
DA:2330,1
DA:2331,1
DA:2332,1
DA:2333,1
DA:2334,1
DA:2337,1
DA:2338,1
DA:2339,1
DA:2340,1
DA:2342,1
DA:2343,1
DA:2344,1
DA:2347,1
DA:2348,1
DA:2349,1
DA:2352,1
DA:2353,1
DA:2354,1
DA:2357,1
DA:2358,1
DA:2359,1
DA:2360,1
DA:2361,1
DA:2362,1
DA:2365,1
DA:2370,1
DA:2371,1
DA:2372,1
DA:2373,1
DA:2374,1
DA:2375,1
DA:2377,1
DA:2378,1
DA:2379,1
DA:2380,1
DA:2381,1
DA:2382,1
DA:2383,1
DA:2384,1
DA:2385,1
DA:2386,1
DA:2387,1
DA:2389,1
DA:2390,1
DA:2391,1
DA:2392,1
DA:2394,1
DA:2395,1
DA:2396,1
DA:2397,1
DA:2398,1
DA:2401,1
DA:2402,1
DA:2403,1
DA:2404,1
DA:2405,1
DA:2406,1
DA:2409,1
DA:2417,1
DA:2418,1
DA:2419,1
DA:2420,1
DA:2421,1
DA:2422,1
DA:2423,1
DA:2424,1
DA:2425,1
DA:2426,1
DA:2427,1
DA:2428,1
DA:2429,1
DA:2431,1
DA:2432,1
DA:2433,1
DA:2434,1
DA:2436,1
DA:2437,1
DA:2438,1
DA:2439,1
DA:2440,1
DA:2443,1
DA:2444,1
DA:2445,1
DA:2446,1
DA:2447,1
DA:2448,1
DA:2451,1
DA:2456,1
DA:2457,1
DA:2458,1
DA:2459,1
DA:2460,1
DA:2462,1
DA:2463,1
DA:2464,1
DA:2465,1
DA:2467,1
DA:2468,1
DA:2469,1
DA:2470,1
DA:2471,1
DA:2472,1
DA:2473,1
DA:2476,1
DA:2483,1
DA:2484,1
DA:2485,1
DA:2486,1
DA:2487,1
DA:2489,1
DA:2490,1
DA:2491,1
DA:2492,1
DA:2494,1
DA:2495,1
DA:2498,1
DA:2499,1
DA:2500,1
DA:2501,1
DA:2502,1
DA:2503,1
DA:2506,1
DA:2510,1
DA:2511,1
DA:2512,1
DA:2513,1
DA:2514,1
DA:2515,1
DA:2517,1
DA:2518,1
DA:2519,1
DA:2521,1
DA:2522,1
DA:2523,1
DA:2524,1
DA:2526,1
DA:2527,1
DA:2528,1
DA:2529,1
DA:2530,1
DA:2531,1
DA:2532,1
DA:2535,1
DA:2538,1
DA:2539,1
DA:2540,1
DA:2541,1
DA:2542,1
DA:2543,1
DA:2545,1
DA:2546,1
DA:2547,1
DA:2549,1
DA:2550,1
DA:2551,1
DA:2552,1
DA:2554,1
DA:2555,1
DA:2556,1
DA:2557,1
DA:2558,1
DA:2559,1
DA:2560,1
DA:2565,1
DA:2570,1
DA:2571,1
DA:2572,1
DA:2573,1
DA:2574,1
DA:2575,1
DA:2576,1
DA:2577,1
DA:2578,1
DA:2579,1
DA:2580,1
DA:2581,1
DA:2583,1
DA:2584,1
DA:2585,1
DA:2586,1
DA:2588,1
DA:2589,1
DA:2590,1
DA:2593,1
DA:2594,1
DA:2595,1
DA:2598,1
DA:2599,1
DA:2600,1
DA:2601,1
DA:2602,1
DA:2603,1
DA:2604,1
DA:2605,1
DA:2606,1
DA:2609,1
DA:2615,1
DA:2616,1
DA:2617,1
DA:2618,1
DA:2619,1
DA:2620,1
DA:2622,1
DA:2623,1
DA:2624,1
DA:2625,1
DA:2626,1
DA:2627,1
DA:2628,1
DA:2629,1
DA:2630,1
DA:2631,1
DA:2632,1
DA:2634,1
DA:2635,1
DA:2636,1
DA:2637,1
DA:2639,1
DA:2640,1
DA:2641,1
DA:2642,1
DA:2645,1
DA:2646,1
DA:2647,1
DA:2650,1
DA:2651,1
DA:2652,1
DA:2653,1
DA:2654,1
DA:2655,1
DA:2658,1
DA:2664,1
DA:2665,1
DA:2666,1
DA:2667,1
DA:2668,1
DA:2669,1
DA:2670,1
DA:2671,1
DA:2672,1
DA:2673,1
DA:2674,1
DA:2675,1
DA:2677,1
DA:2678,1
DA:2679,1
DA:2680,1
DA:2682,1
DA:2683,1
DA:2684,1
DA:2685,1
DA:2686,1
DA:2687,1
DA:2688,1
DA:2691,1
DA:2699,1
DA:2700,1
DA:2701,1
DA:2702,1
DA:2703,1
DA:2704,1
DA:2705,1
DA:2707,1
DA:2708,1
DA:2709,1
DA:2710,1
DA:2712,1
DA:2713,1
DA:2714,1
DA:2715,1
DA:2716,1
DA:2717,1
DA:2718,1
DA:2720,1
DA:2721,1
DA:2724,1
DA:2725,1
DA:2726,1
DA:2727,1
DA:2728,1
DA:2729,1
DA:2730,1
DA:2731,1
DA:2732,1
DA:2735,1
DA:2740,1
DA:2741,1
DA:2742,1
DA:2743,1
DA:2744,1
DA:2745,1
DA:2746,1
DA:2747,1
DA:2748,1
DA:2750,1
DA:2751,1
DA:2752,1
DA:2753,1
DA:2755,1
DA:2756,1
DA:2757,1
DA:2758,1
DA:2759,1
DA:2760,1
DA:2761,1
DA:2762,1
DA:2763,1
DA:2764,1
DA:2767,1
DA:2772,1
DA:2773,1
DA:2774,1
DA:2775,1
DA:2776,1
DA:2778,1
DA:2779,1
DA:2780,1
DA:2781,1
DA:2782,1
DA:2783,1
DA:2784,1
DA:2785,1
DA:2786,1
DA:2787,1
DA:2788,1
DA:2789,1
DA:2791,1
DA:2792,1
DA:2793,1
DA:2794,1
DA:2796,1
DA:2797,1
DA:2800,1
DA:2801,1
DA:2802,1
DA:2803,1
DA:2804,1
DA:2805,1
DA:2806,1
DA:2807,1
DA:2808,1
DA:2809,1
DA:2810,1
DA:2813,1
DA:2818,1
DA:2819,1
DA:2820,1
DA:2821,1
DA:2822,1
DA:2823,1
DA:2825,1
DA:2826,1
DA:2827,1
DA:2829,1
DA:2830,1
DA:2831,1
DA:2833,1
DA:2834,1
DA:2835,1
DA:2836,1
DA:2837,1
DA:2838,1
DA:2839,1
DA:2842,1
DA:2847,1
DA:2848,1
DA:2849,1
DA:2850,1
DA:2851,1
DA:2852,1
DA:2854,1
DA:2855,1
DA:2856,1
DA:2857,1
DA:2859,1
DA:2860,1
DA:2861,1
DA:2862,1
DA:2864,1
DA:2865,1
DA:2868,1
DA:2869,1
DA:2870,1
DA:2871,1
DA:2872,1
DA:2873,1
DA:2876,1
DA:2885,1
DA:2886,1
DA:2887,1
DA:2888,1
DA:2889,1
DA:2890,1
DA:2892,1
DA:2894,4
DA:2895,1
DA:2896,1
DA:2897,1
DA:2898,1
DA:2899,1
DA:2900,4
DA:2903,4
DA:2904,4
DA:2905,4
DA:2906,4
DA:2907,4
DA:2908,4
DA:2909,4
DA:2910,4
DA:2917,1
DA:2918,1
DA:2919,1
DA:2925,1
DA:2926,1
DA:2927,1
DA:2928,1
DA:2929,1
DA:2930,1
DA:2931,1
DA:2932,1
DA:2933,1
DA:2934,1
DA:2935,1
DA:2936,1
DA:2939,1
DA:2943,1
DA:2944,1
DA:2945,1
DA:2946,1
DA:2947,1
DA:2948,1
DA:2950,1
DA:2951,1
DA:2953,1
DA:2955,1
DA:2956,1
DA:2957,1
DA:2958,1
DA:2959,1
DA:2960,23
DA:2961,23
DA:2962,23
DA:2963,23
DA:2964,1
DA:2965,1
DA:2966,1
DA:2967,1
DA:2968,1
DA:2969,1
DA:2970,1
DA:2971,1
DA:2982,37
DA:2983,37
DA:2984,37
DA:2985,37
DA:2986,37
DA:2987,37
DA:2988,37
DA:2989,37
DA:2990,37
DA:2991,37
DA:2992,37
DA:2993,37
DA:2994,37
DA:2995,37
DA:2996,37
DA:2997,37
DA:2998,37
DA:2999,37
DA:3000,37
DA:3001,37
DA:3002,37
DA:3003,37
DA:3004,37
DA:3005,37
DA:3006,37
DA:3007,37
DA:3008,37
DA:3012,37
DA:3013,37
DA:3014,37
DA:3015,37
DA:3016,37
DA:3017,37
DA:3018,37
DA:3019,37
DA:3020,37
DA:3021,37
DA:3022,37
DA:3023,37
DA:3024,37
DA:3025,37
DA:3026,37
DA:3031,33
DA:3032,33
DA:3033,33
DA:3034,33
DA:3035,33
DA:3036,33
DA:3037,33
DA:3038,33
DA:3039,33
DA:3040,33
DA:3041,33
DA:3042,33
DA:3043,33
DA:3046,1
DA:3049,1
DA:3050,1
DA:3051,1
DA:3052,1
DA:3054,1
DA:3055,1
DA:3056,1
DA:3057,1
DA:3058,1
DA:3059,1
DA:3060,1
DA:3061,1
DA:3062,1
DA:3063,1
DA:3065,1
DA:3066,1
DA:3067,1
DA:3068,1
DA:3069,1
DA:3070,1
DA:3071,1
DA:3072,1
DA:3073,1
DA:3074,1
DA:3075,1
DA:3077,1
DA:3078,1
DA:3079,1
DA:3082,1
DA:3083,1
DA:3084,1
DA:3085,1
DA:3088,1
DA:3091,1
DA:3092,1
DA:3093,1
DA:3094,1
DA:3097,1
DA:3098,1
DA:3099,1
DA:3100,1
DA:3101,1
DA:3102,1
DA:3103,1
DA:3104,1
DA:3105,1
DA:3106,1
DA:3110,1
DA:3111,1
DA:3112,1
DA:3113,1
DA:3114,1
DA:3115,1
DA:3116,1
DA:3117,1
DA:3118,1
DA:3119,1
DA:3120,1
DA:3121,1
DA:3122,1
DA:3124,1
DA:3125,1
DA:3126,1
DA:3127,1
DA:3128,1
DA:3129,1
DA:3132,1
DA:3133,1
DA:3134,1
DA:3135,1
DA:3136,1
DA:3138,1
DA:3139,1
DA:3140,1
DA:3141,1
DA:3143,1
DA:3144,1
DA:3147,1
DA:3148,1
DA:3149,1
DA:3150,1
DA:3151,1
DA:3152,1
DA:3153,1
DA:3156,1
DA:3157,1
DA:3158,1
DA:3159,1
DA:3160,1
DA:3161,1
DA:3162,1
DA:3163,1
DA:3164,1
DA:3165,1
DA:3166,1
DA:3167,1
DA:3168,1
DA:3169,1
DA:3170,1
DA:3172,1
DA:3173,1
DA:3174,1
DA:3175,1
DA:3178,1
DA:3179,1
DA:3180,1
DA:3182,1
DA:3183,1
DA:3184,1
DA:3185,1
DA:3186,1
DA:3187,1
DA:3188,2
DA:3189,1
DA:3190,1
DA:3191,1
DA:3192,1
DA:3193,1
DA:3194,1
DA:3197,1
DA:3198,1
DA:3199,1
DA:3200,1
DA:3201,1
DA:3202,1
DA:3203,1
DA:3204,1
DA:3205,1
DA:3206,1
DA:3207,1
DA:3208,1
DA:3209,1
DA:3212,1
DA:3218,1
DA:3219,1
DA:3220,1
DA:3221,1
DA:3222,1
DA:3223,1
DA:3224,1
DA:3225,1
DA:3226,1
DA:3227,1
DA:3228,1
DA:3229,1
DA:3230,1
DA:3231,1
DA:3234,1
DA:3235,1
DA:3236,1
DA:3237,1
DA:3238,1
DA:3239,1
DA:3240,1
DA:3245,1
DA:3246,1
DA:3247,1
DA:3248,1
DA:3249,1
DA:3250,1
DA:3251,1
DA:3252,1
DA:3255,1
DA:3256,1
DA:3257,1
DA:3258,1
DA:3261,1
DA:3264,1
DA:3265,1
DA:3267,1
DA:3270,1
DA:3271,1
DA:3272,1
DA:3273,1
DA:3274,1
DA:3275,1
DA:3276,1
DA:3277,1
DA:3278,1
DA:3279,1
DA:3286,1
DA:3287,1
DA:3288,1
DA:3289,1
DA:3292,1
DA:3293,1
DA:3294,1
DA:3295,1
DA:3296,1
DA:3297,1
DA:3298,1
DA:3299,1
DA:3300,1
DA:3301,1
DA:3302,1
DA:3303,1
DA:3304,1
DA:3307,1
DA:3308,1
DA:3309,1
DA:3310,1
DA:3311,1
DA:3312,1
DA:3313,1
DA:3314,1
DA:3315,1
DA:3316,2
DA:3317,1
DA:3318,1
DA:3319,1
DA:3320,1
DA:3321,1
DA:3322,1
DA:3323,1
DA:3324,1
DA:3325,1
DA:3326,1
DA:3327,1
DA:3328,1
DA:3329,1
DA:3332,1
DA:3335,1
DA:3336,1
DA:3337,1
DA:3338,1
DA:3339,1
DA:3340,1
DA:3341,1
DA:3342,1
DA:3343,1
DA:3344,1
DA:3345,1
DA:3346,1
DA:3347,1
DA:3348,1
DA:3350,1
DA:3351,1
DA:3352,1
DA:3353,1
DA:3354,1
DA:3356,1
DA:3357,1
DA:3358,1
DA:3359,1
DA:3360,1
DA:3361,1
DA:3362,1
DA:3363,2
DA:3364,1
DA:3365,1
DA:3366,1
DA:3369,1
DA:3370,1
DA:3372,1
DA:3373,1
DA:3374,1
DA:3376,1
DA:3377,1
DA:3378,1
DA:3379,1
DA:3380,1
DA:3381,1
DA:3382,1
DA:3383,1
DA:3384,1
DA:3385,1
DA:3386,1
DA:3387,1
DA:3388,1
DA:3389,1
DA:3391,1
DA:3392,1
DA:3395,1
DA:3396,1
DA:3397,1
DA:3398,1
DA:3399,1
DA:3400,1
DA:3401,1
DA:3402,1
DA:3403,1
DA:3406,1
DA:3409,1
DA:3410,1
DA:3411,1
DA:3412,1
DA:3414,1
DA:3415,1
DA:3416,1
DA:3418,1
DA:3419,1
DA:3420,1
DA:3421,1
DA:3422,1
DA:3424,1
DA:3425,1
DA:3426,1
DA:3429,1
DA:3433,1
DA:3434,1
DA:3435,1
DA:3436,1
DA:3437,1
DA:3438,1
DA:3439,1
DA:3440,1
DA:3441,1
DA:3442,1
DA:3443,1
DA:3444,1
DA:3445,1
DA:3446,1
DA:3450,1
DA:3451,1
DA:3452,1
DA:3453,1
DA:3454,1
DA:3455,1
DA:3456,1
DA:3457,1
DA:3459,1
DA:3460,1
DA:3461,1
DA:3462,1
DA:3464,1
DA:3465,1
DA:3466,1
DA:3467,1
DA:3468,1
DA:3469,1
DA:3470,1
DA:3471,1
DA:3472,1
DA:3473,1
DA:3474,1
DA:3475,1
DA:3476,1
DA:3479,1
DA:3483,1
DA:3484,1
DA:3485,1
DA:3486,1
DA:3488,1
DA:3489,1
DA:3490,1
DA:3491,1
DA:3492,1
DA:3493,1
DA:3494,1
DA:3495,1
DA:3496,1
DA:3497,1
DA:3499,1
DA:3500,1
DA:3501,1
DA:3502,1
DA:3503,1
DA:3504,1
DA:3505,1
DA:3506,1
DA:3507,1
DA:3508,1
DA:3509,1
DA:3511,1
DA:3512,1
DA:3513,1
DA:3514,1
DA:3515,1
DA:3516,1
DA:3517,1
DA:3518,1
DA:3521,1
DA:3528,1
DA:3529,1
DA:3530,1
DA:3531,1
DA:3534,1
DA:3535,1
DA:3536,1
DA:3537,1
DA:3538,1
DA:3539,1
DA:3542,1
DA:3543,1
DA:3544,1
DA:3545,1
DA:3546,1
DA:3547,1
DA:3548,1
DA:3549,1
DA:3550,1
DA:3551,1
DA:3553,1
DA:3554,1
DA:3555,1
DA:3556,1
DA:3557,1
DA:3558,1
DA:3559,1
DA:3560,1
DA:3563,1
DA:3568,1
DA:3569,1
DA:3570,1
DA:3571,1
DA:3574,1
DA:3575,1
DA:3576,1
DA:3577,1
DA:3578,1
DA:3579,1
DA:3580,1
DA:3581,1
DA:3582,1
DA:3583,1
DA:3587,1
DA:3588,1
DA:3589,1
DA:3590,1
DA:3591,1
DA:3592,1
DA:3593,1
DA:3594,1
DA:3595,1
DA:3596,1
DA:3597,1
DA:3598,1
DA:3599,1
DA:3600,1
DA:3601,1
DA:3602,1
DA:3603,1
DA:3604,1
DA:3605,1
DA:3606,1
DA:3607,1
DA:3613,1
DA:3614,1
DA:3615,1
DA:3616,1
DA:3617,1
DA:3618,1
DA:3619,1
DA:3620,1
DA:3621,1
DA:3622,1
DA:3623,1
DA:3624,1
DA:3625,1
DA:3626,1
DA:3627,1
DA:3628,1
DA:3629,1
DA:3630,1
DA:3631,1
DA:3632,1
DA:3633,1
DA:3636,1
DA:3641,1
DA:3642,1
DA:3644,1
DA:3645,1
DA:3646,1
DA:3647,1
DA:3648,1
DA:3649,1
DA:3650,1
DA:3651,1
DA:3652,1
DA:3653,1
DA:3654,1
DA:3655,1
DA:3656,1
DA:3659,1
DA:3660,1
DA:3661,1
DA:3662,1
DA:3663,1
DA:3664,1
DA:3665,1
DA:3667,1
DA:3673,1
DA:3674,1
DA:3675,1
DA:3676,1
DA:3678,1
DA:3679,1
DA:3681,1
DA:3686,1
DA:3687,1
DA:3688,1
DA:3689,1
DA:3690,1
DA:3691,1
DA:3692,2
DA:3693,1
DA:3696,1
DA:3699,1
DA:3700,1
DA:3701,1
DA:3702,1
DA:3703,1
DA:3705,1
DA:3706,1
DA:3707,1
DA:3708,1
DA:3709,1
DA:3710,1
DA:3711,1
DA:3714,1
DA:3720,1
DA:3725,1
DA:3726,1
DA:3727,1
DA:3728,1
DA:3729,1
DA:3730,1
DA:3731,1
DA:3732,1
DA:3733,1
DA:3734,1
DA:3738,1
DA:3739,1
DA:3740,1
DA:3741,1
DA:3742,1
DA:3743,1
DA:3744,1
DA:3745,1
DA:3746,1
DA:3747,1
DA:3748,1
DA:3749,1
DA:3750,1
DA:3751,1
DA:3753,1
DA:3754,1
DA:3757,1
DA:3758,1
DA:3759,1
DA:3760,1
DA:3761,1
DA:3762,1
DA:3764,1
DA:3765,1
DA:3766,1
DA:3769,1
DA:3777,1
DA:3781,1
DA:3782,1
DA:3783,1
DA:3784,1
DA:3786,1
DA:3787,1
DA:3788,1
DA:3789,1
DA:3790,1
DA:3791,1
DA:3792,1
DA:3793,1
DA:3794,1
DA:3795,1
DA:3798,1
DA:3799,1
DA:3800,1
DA:3801,1
DA:3802,1
DA:3803,1
DA:3804,1
DA:3805,1
DA:3806,1
DA:3807,1
DA:3808,1
DA:3809,1
DA:3810,1
DA:3812,1
DA:3813,1
DA:3814,1
DA:3816,1
DA:3817,1
DA:3818,1
DA:3819,1
DA:3821,1
DA:3823,1
DA:3824,1
DA:3829,1
DA:3830,1
DA:3831,3
DA:3832,1
DA:3833,1
DA:3834,1
DA:3835,3
DA:3836,1
DA:3837,1
DA:3838,1
DA:3845,1
DA:3846,1
DA:3847,3
DA:3848,1
DA:3849,1
DA:3850,1
DA:3851,1
DA:3852,3
DA:3853,1
DA:3854,1
DA:3855,1
DA:3856,1
DA:3857,1
DA:3858,1
DA:3859,1
DA:3860,1
DA:3865,1
DA:3868,1
DA:3869,1
DA:3870,1
DA:3871,1
DA:3872,1
DA:3873,1
DA:3874,1
DA:3875,1
DA:3877,1
DA:3878,1
DA:3879,1
DA:3880,1
DA:3881,1
DA:3882,1
DA:3883,1
DA:3884,1
DA:3885,1
DA:3887,1
DA:3888,1
DA:3889,1
DA:3890,1
DA:3893,1
DA:3894,1
DA:3895,1
DA:3896,1
DA:3897,1
DA:3900,1
DA:3902,1
DA:3903,1
DA:3904,1
DA:3905,1
DA:3906,1
DA:3907,1
DA:3908,1
DA:3909,1
DA:3910,1
DA:3911,1
DA:3912,1
DA:3913,1
DA:3914,1
DA:3915,1
DA:3916,1
DA:3917,1
DA:3919,1
DA:3920,1
DA:3921,1
DA:3922,1
DA:3923,1
DA:3924,1
DA:3925,1
DA:3926,1
DA:3927,1
DA:3929,1
DA:3930,1
DA:3931,1
DA:3932,1
DA:3933,1
DA:3934,1
DA:3935,1
DA:3936,1
DA:3937,1
DA:3940,1
DA:3942,1
DA:3943,1
DA:3944,1
DA:3945,1
DA:3946,1
DA:3947,1
DA:3948,1
DA:3949,1
DA:3951,1
DA:3952,1
DA:3953,1
DA:3954,1
DA:3955,1
DA:3956,1
DA:3957,1
DA:3958,1
DA:3959,1
DA:3961,1
DA:3962,1
DA:3963,1
DA:3964,1
DA:3965,1
DA:3966,1
DA:3969,1
DA:3974,1
DA:3975,1
DA:3976,1
DA:3977,1
DA:3978,1
DA:3979,1
DA:3980,1
DA:3981,1
DA:3982,1
DA:3983,1
DA:3985,1
DA:3986,1
DA:3987,1
DA:3988,1
DA:3990,1
DA:3991,1
DA:3992,1
DA:3993,1
DA:3994,1
DA:3995,1
DA:3996,1
DA:3999,1
DA:4004,1
DA:4005,1
DA:4006,1
DA:4007,1
DA:4008,1
DA:4009,1
DA:4010,1
DA:4011,1
DA:4013,1
DA:4014,1
DA:4015,1
DA:4016,1
DA:4017,1
DA:4018,1
DA:4019,1
DA:4020,1
DA:4021,1
DA:4022,1
DA:4024,1
DA:4025,1
DA:4026,1
DA:4027,1
DA:4028,1
DA:4029,1
DA:4030,1
DA:4031,1
DA:4032,1
DA:4033,1
DA:4034,1
DA:4035,1
DA:4036,1
DA:4037,1
DA:4040,1
DA:4044,1
DA:4045,1
DA:4046,1
DA:4047,1
DA:4048,1
DA:4049,1
DA:4050,1
DA:4051,1
DA:4052,1
DA:4054,1
DA:4055,1
DA:4056,1
DA:4057,1
DA:4059,1
DA:4060,1
DA:4061,1
DA:4062,1
DA:4063,1
DA:4064,1
DA:4065,1
DA:4068,1
DA:4069,1
DA:4072,1
DA:4073,1
DA:4074,1
DA:4075,1
DA:4076,1
DA:4079,1
DA:4083,1
DA:4084,1
DA:4085,1
DA:4086,1
DA:4087,1
DA:4088,1
DA:4089,1
DA:4090,1
DA:4091,1
DA:4093,1
DA:4094,1
DA:4095,1
DA:4096,1
DA:4097,1
DA:4099,1
DA:4100,1
DA:4101,1
DA:4102,1
DA:4103,1
DA:4104,1
DA:4109,1
DA:4116,1
DA:4117,1
DA:4118,1
DA:4119,1
DA:4120,1
DA:4121,1
DA:4122,1
DA:4123,1
DA:4124,1
DA:4125,1
DA:4128,1
DA:4133,1
DA:4134,1
DA:4135,1
DA:4136,1
DA:4137,1
DA:4138,1
DA:4139,1
DA:4140,1
DA:4141,1
DA:4142,1
DA:4143,1
DA:4145,1
DA:4146,1
DA:4147,1
DA:4149,1
DA:4150,1
DA:4151,1
DA:4152,1
DA:4153,1
DA:4154,1
DA:4155,1
DA:4156,1
DA:4157,1
DA:4160,1
DA:4165,1
DA:4166,1
DA:4167,1
DA:4168,1
DA:4169,1
DA:4171,1
DA:4172,1
DA:4173,1
DA:4174,1
DA:4176,1
DA:4177,1
DA:4178,1
DA:4179,1
DA:4180,1
DA:4181,1
DA:4182,1
DA:4185,1
DA:4191,1
DA:4192,1
DA:4193,1
DA:4194,1
DA:4195,1
DA:4196,1
DA:4198,1
DA:4199,1
DA:4201,1
DA:4202,1
DA:4203,1
DA:4204,1
DA:4206,1
DA:4207,1
DA:4210,1
DA:4211,1
DA:4216,1
DA:4218,1
DA:4219,1
DA:4220,1
DA:4221,1
DA:4222,1
DA:4224,1
DA:4225,1
DA:4226,1
DA:4228,1
DA:4230,1
DA:4231,1
DA:4232,1
DA:4233,1
DA:4234,1
DA:4235,22
DA:4236,22
DA:4237,22
DA:4238,22
DA:4239,1
DA:4240,1
DA:4241,1
DA:4242,1
DA:4243,1
DA:4246,1
DA:4248,1
DA:4249,1
DA:4250,1
DA:4251,1
DA:4252,1
DA:4254,1
DA:4255,1
DA:4257,1
DA:4259,1
DA:4260,1
DA:4261,1
DA:4262,1
DA:4263,1
DA:4264,22
DA:4265,22
DA:4266,22
DA:4267,22
DA:4268,1
DA:4269,1
DA:4270,1
DA:4271,1
DA:4272,1
DA:4277,1
DA:4283,1
DA:4284,1
DA:4285,1
DA:4286,1
DA:4287,1
DA:4288,1
DA:4290,1
DA:4291,1
DA:4293,1
DA:4295,1
DA:4296,1
DA:4299,1
DA:4300,1
DA:4301,1
DA:4302,1
DA:4303,1
DA:4306,1
DA:4311,1
DA:4312,1
DA:4313,1
DA:4314,1
DA:4315,1
DA:4316,1
DA:4317,1
DA:4318,1
DA:4319,1
DA:4320,1
DA:4321,1
DA:4323,1
DA:4325,1
DA:4326,1
DA:4327,1
DA:4330,1
DA:4331,1
DA:4332,1
DA:4333,1
DA:4334,1
DA:4335,1
DA:4336,1
DA:4337,1
DA:4338,1
DA:4339,1
DA:4340,1
DA:4341,1
DA:4344,1
DA:4348,1
DA:4349,1
DA:4350,1
DA:4351,1
DA:4352,1
DA:4353,1
DA:4354,1
DA:4355,1
DA:4356,1
DA:4359,1
DA:4361,1
DA:4362,1
DA:4363,1
DA:4364,1
DA:4365,1
DA:4366,1
DA:4371,1
DA:4375,1
DA:4376,1
DA:4377,1
DA:4378,1
DA:4380,1
DA:4381,1
DA:4382,1
DA:4383,1
DA:4384,1
DA:4385,1
DA:4386,1
DA:4387,1
DA:4388,1
DA:4389,1
DA:4391,1
DA:4392,1
DA:4393,1
DA:4394,1
DA:4395,1
DA:4396,1
DA:4397,1
DA:4398,1
DA:4399,1
DA:4400,1
DA:4403,1
DA:4407,1
DA:4408,1
DA:4409,1
DA:4410,1
DA:4411,1
DA:4413,1
DA:4414,1
DA:4415,1
DA:4416,1
DA:4417,1
DA:4418,1
DA:4419,1
DA:4420,1
DA:4421,1
DA:4422,1
DA:4424,1
DA:4425,1
DA:4426,1
DA:4427,1
DA:4428,1
DA:4429,1
DA:4432,1
DA:4436,1
DA:4437,1
DA:4438,1
DA:4439,1
DA:4441,2
DA:4442,2
DA:4443,2
DA:4444,2
DA:4445,2
DA:4446,2
DA:4447,2
DA:4448,2
DA:4449,2
DA:4450,2
DA:4451,2
DA:4452,2
DA:4453,2
DA:4454,2
DA:4455,1
DA:4456,1
DA:4457,1
DA:4458,1
DA:4459,1
DA:4460,1
DA:4463,1
DA:4467,1
DA:4468,1
DA:4469,1
DA:4470,1
DA:4471,1
DA:4472,1
DA:4473,1
DA:4474,1
DA:4475,1
DA:4476,1
DA:4477,1
DA:4479,1
DA:4480,1
DA:4481,1
DA:4482,1
DA:4483,1
DA:4484,1
DA:4485,1
DA:4486,1
DA:4487,1
DA:4488,1
DA:4490,1
DA:4491,1
DA:4494,1
DA:4495,1
DA:4496,1
DA:4497,1
DA:4498,1
DA:4501,1
DA:4505,1
DA:4506,1
DA:4507,1
DA:4508,1
DA:4509,1
DA:4510,1
DA:4511,1
DA:4512,1
DA:4514,1
DA:4515,1
DA:4516,1
DA:4517,1
DA:4518,1
DA:4519,1
DA:4520,1
DA:4521,1
DA:4522,1
DA:4523,1
DA:4524,1
DA:4525,1
DA:4530,1
DA:4533,1
DA:4534,1
DA:4535,1
DA:4536,1
DA:4538,1
DA:4539,1
DA:4540,1
DA:4542,1
DA:4543,1
DA:4546,1
DA:4550,1
DA:4551,1
DA:4552,1
DA:4553,1
DA:4554,1
DA:4556,1
DA:4557,1
DA:4558,1
DA:4560,1
DA:4561,1
DA:4564,1
DA:4565,1
DA:4566,1
DA:4569,1
DA:4573,1
DA:4574,1
DA:4575,1
DA:4576,1
DA:4577,1
DA:4578,1
DA:4579,1
DA:4580,1
DA:4581,1
DA:4582,1
DA:4583,1
DA:4584,1
DA:4585,1
DA:4586,1
DA:4587,1
DA:4588,1
DA:4589,1
DA:4590,1
DA:4591,1
DA:4593,1
DA:4594,1
DA:4595,1
DA:4596,1
DA:4598,1
DA:4599,1
DA:4602,1
DA:4603,1
DA:4604,1
DA:4605,1
DA:4606,1
DA:4607,1
DA:4608,1
DA:4622,1
DA:4623,1
DA:4624,1
DA:4625,1
DA:4626,1
DA:4627,1
DA:4628,1
DA:4629,1
DA:4630,1
DA:4631,1
DA:4632,1
DA:4633,1
DA:4634,1
DA:4635,1
DA:4639,1
DA:4640,1
DA:4641,1
DA:4642,1
DA:4643,1
DA:4644,1
DA:4645,1
DA:4646,1
DA:4647,1
DA:4648,1
DA:4649,1
DA:4650,1
DA:4651,1
DA:4652,1
DA:4653,1
DA:4654,1
DA:4656,1
DA:4657,1
DA:4658,1
DA:4659,1
DA:4660,1
DA:4661,1
DA:4662,1
DA:4667,1
DA:4668,1
DA:4669,1
DA:4670,1
DA:4671,1
DA:4672,1
DA:4673,1
DA:4674,1
DA:4675,1
DA:4676,1
DA:4679,1
DA:4683,1
DA:4684,1
DA:4685,1
DA:4686,1
DA:4687,1
DA:4688,1
DA:4689,1
DA:4690,1
DA:4691,1
DA:4692,1
DA:4693,1
DA:4694,1
DA:4695,1
DA:4696,1
DA:4697,1
DA:4699,1
DA:4700,1
DA:4701,1
DA:4702,1
DA:4704,1
DA:4705,1
DA:4706,1
DA:4707,1
DA:4708,1
DA:4709,1
DA:4710,1
DA:4714,1
DA:4715,1
DA:4720,1
DA:4725,1
DA:4726,1
DA:4727,1
DA:4729,1
DA:4730,1
DA:4733,1
DA:4736,1
DA:4737,1
DA:4738,1
DA:4739,1
DA:4740,1
DA:4741,1
DA:4742,1
DA:4744,1
DA:4745,1
DA:4750,1
DA:4754,1
DA:4755,1
DA:4756,1
DA:4757,1
DA:4758,1
DA:4760,1
DA:4761,1
DA:4762,1
DA:4763,1
DA:4764,1
DA:4765,1
DA:4766,1
DA:4767,1
DA:4769,1
DA:4770,1
DA:4771,1
DA:4772,1
DA:4773,1
DA:4774,1
DA:4777,1
DA:4781,1
DA:4782,1
DA:4783,1
DA:4784,1
DA:4785,1
DA:4786,1
DA:4788,1
DA:4790,1
DA:4791,1
DA:4794,1
DA:4798,1
DA:4799,1
DA:4800,1
DA:4801,1
DA:4802,1
DA:4803,1
DA:4804,1
DA:4805,1
DA:4806,1
DA:4807,1
DA:4808,1
DA:4809,1
DA:4810,1
DA:4811,1
DA:4812,1
DA:4816,1
DA:4817,1
DA:4818,1
DA:4819,1
DA:4820,1
DA:4821,1
DA:4822,1
DA:4823,1
DA:4825,1
DA:4826,1
DA:4828,1
DA:4832,1
DA:4833,1
DA:4834,1
DA:4835,1
DA:4836,1
DA:4837,1
DA:4838,1
DA:4841,1
DA:4846,1
DA:4847,1
DA:4848,1
DA:4851,1
DA:4854,1
DA:4855,1
DA:4856,1
DA:4857,1
DA:4858,1
DA:4860,1
DA:4861,1
BRF:0
BRH:0
LF:3411
LH:3358
end_of_record
SF:/home/runner/work/mostro/mostro/src/app/bond/types.rs
FN:108,_RNvMs0_NtNtNtCsawjdjYzw0zz_7mostrod3app4bond5typesNtB5_9BondState11is_terminal
FN:119,_RNvMs0_NtNtNtCsawjdjYzw0zz_7mostrod3app4bond5typesNtB5_9BondState9is_active
FN:18,_RNvXNtNtNtCsawjdjYzw0zz_7mostrod3app4bond5typesNtB2_8BondRoleNtNtCs4kUJL3MZFFz_4core3fmt7Display3fmt
FN:125,_RNvXs1_NtNtNtCsawjdjYzw0zz_7mostrod3app4bond5typesNtB5_9BondStateNtNtCs4kUJL3MZFFz_4core3fmt7Display3fmt
FN:142,_RNvXs2_NtNtNtCsawjdjYzw0zz_7mostrod3app4bond5typesNtB5_9BondStateNtNtNtCs4kUJL3MZFFz_4core3str6traits7FromStr8from_str
FN:167,_RNvXs3_NtNtNtCsawjdjYzw0zz_7mostrod3app4bond5typesNtB5_15BondSlashReasonNtNtCs4kUJL3MZFFz_4core3fmt7Display3fmt
FN:178,_RNvXs4_NtNtNtCsawjdjYzw0zz_7mostrod3app4bond5typesNtB5_15BondSlashReasonNtNtNtCs4kUJL3MZFFz_4core3str6traits7FromStr8from_str
FN:195,_RNvXs5_NtNtNtCsawjdjYzw0zz_7mostrod3app4bond5typesNtB5_14BondParseErrorNtNtCs4kUJL3MZFFz_4core3fmt7Display3fmt
FN:29,_RNvXs_NtNtNtCsawjdjYzw0zz_7mostrod3app4bond5typesNtB4_8BondRoleNtNtNtCs4kUJL3MZFFz_4core3str6traits7FromStr8from_str
FN:213,_RNvNtNtNtNtCsawjdjYzw0zz_7mostrod3app4bond5types5testss_14role_roundtrip
FN:220,_RNvNtNtNtNtCsawjdjYzw0zz_7mostrod3app4bond5types5testss_15state_roundtrip
FN:235,_RNvNtNtNtNtCsawjdjYzw0zz_7mostrod3app4bond5types5testss_22slash_reason_roundtrip
FN:242,_RNvNtNtNtNtCsawjdjYzw0zz_7mostrod3app4bond5types5testss_22unknown_parse_rejected
FN:271,_RNvNtNtNtNtCsawjdjYzw0zz_7mostrod3app4bond5types5testss_27terminal_and_active_helpers
FN:249,_RNvNtNtNtNtCsawjdjYzw0zz_7mostrod3app4bond5types5testss_35parse_error_display_and_error_trait
FNDA:43,_RNvMs0_NtNtNtCsawjdjYzw0zz_7mostrod3app4bond5typesNtB5_9BondState11is_terminal
FNDA:7,_RNvMs0_NtNtNtCsawjdjYzw0zz_7mostrod3app4bond5typesNtB5_9BondState9is_active
FNDA:424,_RNvXNtNtNtCsawjdjYzw0zz_7mostrod3app4bond5typesNtB2_8BondRoleNtNtCs4kUJL3MZFFz_4core3fmt7Display3fmt
FNDA:1267,_RNvXs1_NtNtNtCsawjdjYzw0zz_7mostrod3app4bond5typesNtB5_9BondStateNtNtCs4kUJL3MZFFz_4core3fmt7Display3fmt
FNDA:79,_RNvXs2_NtNtNtCsawjdjYzw0zz_7mostrod3app4bond5typesNtB5_9BondStateNtNtNtCs4kUJL3MZFFz_4core3str6traits7FromStr8from_str
FNDA:158,_RNvXs3_NtNtNtCsawjdjYzw0zz_7mostrod3app4bond5typesNtB5_15BondSlashReasonNtNtCs4kUJL3MZFFz_4core3fmt7Display3fmt
FNDA:29,_RNvXs4_NtNtNtCsawjdjYzw0zz_7mostrod3app4bond5typesNtB5_15BondSlashReasonNtNtNtCs4kUJL3MZFFz_4core3str6traits7FromStr8from_str
FNDA:4,_RNvXs5_NtNtNtCsawjdjYzw0zz_7mostrod3app4bond5typesNtB5_14BondParseErrorNtNtCs4kUJL3MZFFz_4core3fmt7Display3fmt
FNDA:4,_RNvXs_NtNtNtCsawjdjYzw0zz_7mostrod3app4bond5typesNtB4_8BondRoleNtNtNtCs4kUJL3MZFFz_4core3str6traits7FromStr8from_str
FNDA:1,_RNvNtNtNtNtCsawjdjYzw0zz_7mostrod3app4bond5types5testss_14role_roundtrip
FNDA:1,_RNvNtNtNtNtCsawjdjYzw0zz_7mostrod3app4bond5types5testss_15state_roundtrip
FNDA:1,_RNvNtNtNtNtCsawjdjYzw0zz_7mostrod3app4bond5types5testss_22slash_reason_roundtrip
FNDA:1,_RNvNtNtNtNtCsawjdjYzw0zz_7mostrod3app4bond5types5testss_22unknown_parse_rejected
FNDA:1,_RNvNtNtNtNtCsawjdjYzw0zz_7mostrod3app4bond5types5testss_27terminal_and_active_helpers
FNDA:1,_RNvNtNtNtNtCsawjdjYzw0zz_7mostrod3app4bond5types5testss_35parse_error_display_and_error_trait
FNF:15
FNH:15
DA:18,424
DA:19,424
DA:20,216
DA:21,208
DA:23,424
DA:29,4
DA:30,4
DA:31,4
DA:32,3
DA:33,2
DA:35,4
DA:108,43
DA:109,36
DA:110,43
DA:113,43
DA:119,7
DA:120,7
DA:121,7
DA:125,1267
DA:126,1267
DA:127,414
DA:128,436
DA:129,59
DA:130,264
DA:131,48
DA:132,14
DA:133,32
DA:135,1267
DA:136,1267
DA:142,79
DA:143,79
DA:144,79
DA:145,62
DA:146,34
DA:147,28
DA:148,22
DA:149,19
DA:150,17
DA:151,6
DA:153,79
DA:167,158
DA:168,158
DA:169,133
DA:170,25
DA:172,158
DA:178,29
DA:179,29
DA:180,29
DA:181,6
DA:182,5
DA:184,29
DA:195,4
DA:196,4
DA:197,1
DA:198,2
DA:199,1
DA:200,1
DA:203,4
DA:213,1
DA:214,2
DA:215,2
DA:217,1
DA:220,1
DA:221,7
DA:222,1
DA:223,1
DA:224,1
DA:225,1
DA:226,1
DA:227,1
DA:228,1
DA:229,1
DA:230,7
DA:232,1
DA:235,1
DA:236,2
DA:237,2
DA:239,1
DA:242,1
DA:243,1
DA:244,1
DA:245,1
DA:246,1
DA:249,1
DA:254,1
DA:255,1
DA:257,1
DA:258,1
DA:260,1
DA:261,1
DA:262,1
DA:266,1
DA:267,1
DA:268,1
DA:271,1
DA:272,4
DA:273,1
DA:274,1
DA:275,1
DA:276,1
DA:277,1
DA:278,4
DA:279,4
DA:281,2
DA:282,2
DA:283,2
DA:286,1
DA:287,1
DA:288,1
BRF:0
BRH:0
LF:109
LH:109
end_of_record
SF:/home/runner/work/mostro/mostro/src/app/cancel.rs
FN:22,_RNvXNtNtCsawjdjYzw0zz_7mostrod3app6cancelNtNtB6_9lightning12LndConnectorNtB2_15CancelLightning19cancel_hold_invoice
FN:588,_RINvNtNtCsawjdjYzw0zz_7mostrod3app6cancel19cancel_active_orderNtNtB2_5tests12StubLnClientEB6_
FN:588,_RINvNtNtCsawjdjYzw0zz_7mostrod3app6cancel19cancel_active_orderNtNtB6_9lightning12LndConnectorEB6_
FN:485,_RINvNtNtCsawjdjYzw0zz_7mostrod3app6cancel21cancel_action_genericNtNtB2_5tests12StubLnClientEB6_
FN:485,_RINvNtNtCsawjdjYzw0zz_7mostrod3app6cancel21cancel_action_genericNtNtB6_9lightning12LndConnectorEB6_
FN:338,_RINvNtNtCsawjdjYzw0zz_7mostrod3app6cancel21cancel_order_by_makerNtNtB2_5tests12StubLnClientEB6_
FN:338,_RINvNtNtCsawjdjYzw0zz_7mostrod3app6cancel21cancel_order_by_makerNtNtB6_9lightning12LndConnectorEB6_
FN:212,_RINvNtNtCsawjdjYzw0zz_7mostrod3app6cancel21cancel_order_by_takerNtNtB2_5tests12StubLnClientEB6_
FN:212,_RINvNtNtCsawjdjYzw0zz_7mostrod3app6cancel21cancel_order_by_takerNtNtB6_9lightning12LndConnectorEB6_
FN:642,_RINvNtNtCsawjdjYzw0zz_7mostrod3app6cancel23cancel_not_active_orderNtNtB2_5tests12StubLnClientEB6_
FN:642,_RINvNtNtCsawjdjYzw0zz_7mostrod3app6cancel23cancel_not_active_orderNtNtB6_9lightning12LndConnectorEB6_
FN:278,_RINvNtNtCsawjdjYzw0zz_7mostrod3app6cancel27cancel_order_by_taker_innerNtNtB2_5tests12StubLnClientEB6_
FN:278,_RINvNtNtCsawjdjYzw0zz_7mostrod3app6cancel27cancel_order_by_taker_innerNtNtB6_9lightning12LndConnectorEB6_
FN:77,_RINvNtNtCsawjdjYzw0zz_7mostrod3app6cancel35cancel_cooperative_execution_step_2NtNtB2_5tests12StubLnClientEB6_
FN:77,_RINvNtNtCsawjdjYzw0zz_7mostrod3app6cancel35cancel_cooperative_execution_step_2NtNtB6_9lightning12LndConnectorEB6_
FN:595,_RNCINvNtNtCsawjdjYzw0zz_7mostrod3app6cancel19cancel_active_orderNtNtB4_5tests12StubLnClientE0B8_
FN:595,_RNCINvNtNtCsawjdjYzw0zz_7mostrod3app6cancel19cancel_active_orderNtNtB8_9lightning12LndConnectorE0B8_
FN:491,_RNCINvNtNtCsawjdjYzw0zz_7mostrod3app6cancel21cancel_action_genericNtNtB4_5tests12StubLnClientE0B8_
FN:491,_RNCINvNtNtCsawjdjYzw0zz_7mostrod3app6cancel21cancel_action_genericNtNtB8_9lightning12LndConnectorE0B8_
FN:346,_RNCINvNtNtCsawjdjYzw0zz_7mostrod3app6cancel21cancel_order_by_makerNtNtB4_5tests12StubLnClientE0B8_
FN:346,_RNCINvNtNtCsawjdjYzw0zz_7mostrod3app6cancel21cancel_order_by_makerNtNtB8_9lightning12LndConnectorE0B8_
FN:220,_RNCINvNtNtCsawjdjYzw0zz_7mostrod3app6cancel21cancel_order_by_takerNtNtB4_5tests12StubLnClientE0B8_
FN:220,_RNCINvNtNtCsawjdjYzw0zz_7mostrod3app6cancel21cancel_order_by_takerNtNtB8_9lightning12LndConnectorE0B8_
FN:649,_RNCINvNtNtCsawjdjYzw0zz_7mostrod3app6cancel23cancel_not_active_orderNtNtB4_5tests12StubLnClientE0B8_
FN:649,_RNCINvNtNtCsawjdjYzw0zz_7mostrod3app6cancel23cancel_not_active_orderNtNtB8_9lightning12LndConnectorE0B8_
FN:286,_RNCINvNtNtCsawjdjYzw0zz_7mostrod3app6cancel27cancel_order_by_taker_innerNtNtB4_5tests12StubLnClientE0B8_
FN:286,_RNCINvNtNtCsawjdjYzw0zz_7mostrod3app6cancel27cancel_order_by_taker_innerNtNtB8_9lightning12LndConnectorE0B8_
FN:85,_RNCINvNtNtCsawjdjYzw0zz_7mostrod3app6cancel35cancel_cooperative_execution_step_2NtNtB4_5tests12StubLnClientE0B8_
FN:85,_RNCINvNtNtCsawjdjYzw0zz_7mostrod3app6cancel35cancel_cooperative_execution_step_2NtNtB8_9lightning12LndConnectorE0B8_
FN:536,_RNCNCINvNtNtCsawjdjYzw0zz_7mostrod3app6cancel21cancel_action_genericNtNtB6_5tests12StubLnClientE00Ba_
FN:552,_RNCNCINvNtNtCsawjdjYzw0zz_7mostrod3app6cancel21cancel_action_genericNtNtB6_5tests12StubLnClientE0s0_0Ba_
FN:548,_RNCNCINvNtNtCsawjdjYzw0zz_7mostrod3app6cancel21cancel_action_genericNtNtB6_5tests12StubLnClientE0s_0Ba_
FN:536,_RNCNCINvNtNtCsawjdjYzw0zz_7mostrod3app6cancel21cancel_action_genericNtNtBa_9lightning12LndConnectorE00Ba_
FN:552,_RNCNCINvNtNtCsawjdjYzw0zz_7mostrod3app6cancel21cancel_action_genericNtNtBa_9lightning12LndConnectorE0s0_0Ba_
FN:548,_RNCNCINvNtNtCsawjdjYzw0zz_7mostrod3app6cancel21cancel_action_genericNtNtBa_9lightning12LndConnectorE0s_0Ba_
FN:352,_RNCNCINvNtNtCsawjdjYzw0zz_7mostrod3app6cancel21cancel_order_by_makerNtNtB6_5tests12StubLnClientE00Ba_
FN:352,_RNCNCINvNtNtCsawjdjYzw0zz_7mostrod3app6cancel21cancel_order_by_makerNtNtBa_9lightning12LndConnectorE00Ba_
FN:250,_RNCNCINvNtNtCsawjdjYzw0zz_7mostrod3app6cancel21cancel_order_by_takerNtNtB6_5tests12StubLnClientE00Ba_
FN:250,_RNCNCINvNtNtCsawjdjYzw0zz_7mostrod3app6cancel21cancel_order_by_takerNtNtBa_9lightning12LndConnectorE00Ba_
FN:310,_RNCNCINvNtNtCsawjdjYzw0zz_7mostrod3app6cancel27cancel_order_by_taker_innerNtNtB6_5tests12StubLnClientE00Ba_
FN:319,_RNCNCINvNtNtCsawjdjYzw0zz_7mostrod3app6cancel27cancel_order_by_taker_innerNtNtB6_5tests12StubLnClientE0s0_0Ba_
FN:315,_RNCNCINvNtNtCsawjdjYzw0zz_7mostrod3app6cancel27cancel_order_by_taker_innerNtNtB6_5tests12StubLnClientE0s_0Ba_
FN:310,_RNCNCINvNtNtCsawjdjYzw0zz_7mostrod3app6cancel27cancel_order_by_taker_innerNtNtBa_9lightning12LndConnectorE00Ba_
FN:319,_RNCNCINvNtNtCsawjdjYzw0zz_7mostrod3app6cancel27cancel_order_by_taker_innerNtNtBa_9lightning12LndConnectorE0s0_0Ba_
FN:315,_RNCNCINvNtNtCsawjdjYzw0zz_7mostrod3app6cancel27cancel_order_by_taker_innerNtNtBa_9lightning12LndConnectorE0s_0Ba_
FN:110,_RNCNCINvNtNtCsawjdjYzw0zz_7mostrod3app6cancel35cancel_cooperative_execution_step_2NtNtB6_5tests12StubLnClientE00Ba_
FN:126,_RNCNCINvNtNtCsawjdjYzw0zz_7mostrod3app6cancel35cancel_cooperative_execution_step_2NtNtB6_5tests12StubLnClientE0s0_0Ba_
FN:114,_RNCNCINvNtNtCsawjdjYzw0zz_7mostrod3app6cancel35cancel_cooperative_execution_step_2NtNtB6_5tests12StubLnClientE0s_0Ba_
FN:110,_RNCNCINvNtNtCsawjdjYzw0zz_7mostrod3app6cancel35cancel_cooperative_execution_step_2NtNtBa_9lightning12LndConnectorE00Ba_
FN:126,_RNCNCINvNtNtCsawjdjYzw0zz_7mostrod3app6cancel35cancel_cooperative_execution_step_2NtNtBa_9lightning12LndConnectorE0s0_0Ba_
FN:114,_RNCNCINvNtNtCsawjdjYzw0zz_7mostrod3app6cancel35cancel_cooperative_execution_step_2NtNtBa_9lightning12LndConnectorE0s_0Ba_
FN:404,_RNCNCNvNtNtCsawjdjYzw0zz_7mostrod3app6cancel31cancel_pending_order_from_maker00B9_
FN:411,_RNCNCNvNtNtCsawjdjYzw0zz_7mostrod3app6cancel31cancel_pending_order_from_maker0s_0B9_
FN:175,_RNCNCNvNtNtCsawjdjYzw0zz_7mostrod3app6cancel35cancel_cooperative_execution_step_100B9_
FN:188,_RNCNCNvNtNtCsawjdjYzw0zz_7mostrod3app6cancel35cancel_cooperative_execution_step_10s_0B9_
FN:481,_RNCNvNtNtCsawjdjYzw0zz_7mostrod3app6cancel13cancel_action0B7_
FN:54,_RNCNvNtNtCsawjdjYzw0zz_7mostrod3app6cancel14notify_creator0B7_
FN:400,_RNCNvNtNtCsawjdjYzw0zz_7mostrod3app6cancel31cancel_pending_order_from_maker0B7_
FN:169,_RNCNvNtNtCsawjdjYzw0zz_7mostrod3app6cancel35cancel_cooperative_execution_step_10B7_
FN:27,_RNCNvXNtNtCsawjdjYzw0zz_7mostrod3app6cancelNtNtB8_9lightning12LndConnectorNtB4_15CancelLightning19cancel_hold_invoice0B8_
FN:475,_RNvNtNtCsawjdjYzw0zz_7mostrod3app6cancel13cancel_action
FN:54,_RNvNtNtCsawjdjYzw0zz_7mostrod3app6cancel14notify_creator
FN:41,_RNvNtNtCsawjdjYzw0zz_7mostrod3app6cancel16reset_api_quotes
FN:394,_RNvNtNtCsawjdjYzw0zz_7mostrod3app6cancel31cancel_pending_order_from_maker
FN:163,_RNvNtNtCsawjdjYzw0zz_7mostrod3app6cancel35cancel_cooperative_execution_step_1
FN:920,_RNCNCNvNtNtNtCsawjdjYzw0zz_7mostrod3app6cancel5tests18queued_actions_for00Bb_
FN:921,_RNCNCNvNtNtNtCsawjdjYzw0zz_7mostrod3app6cancel5tests18queued_actions_for0s_0Bb_
FN:859,_RNCNCNvNtNtNtCsawjdjYzw0zz_7mostrod3app6cancel5testss_56pending_taker_with_active_bond_is_not_routed_as_intruder00Bb_
FN:868,_RNCNCNvNtNtNtCsawjdjYzw0zz_7mostrod3app6cancel5testss_56pending_taker_with_active_bond_is_not_routed_as_intruder0s_0Bb_
FN:873,_RNCNvNtNtNtCsawjdjYzw0zz_7mostrod3app6cancel5tests10setup_pool0B9_
FN:925,_RNCNvNtNtNtCsawjdjYzw0zz_7mostrod3app6cancel5tests11order_by_id0B9_
FN:914,_RNCNvNtNtNtCsawjdjYzw0zz_7mostrod3app6cancel5tests18queued_actions_for0B9_
FN:933,_RNCNvNtNtNtCsawjdjYzw0zz_7mostrod3app6cancel5tests27insert_requested_taker_bond0B9_
FN:1411,_RNCNvNtNtNtCsawjdjYzw0zz_7mostrod3app6cancel5testss_38cancel_action_rejects_unhandled_status0B9_
FN:1210,_RNCNvNtNtNtCsawjdjYzw0zz_7mostrod3app6cancel5testss_40cancel_not_active_order_rejects_intruder0B9_
FN:1301,_RNCNvNtNtNtCsawjdjYzw0zz_7mostrod3app6cancel5testss_51cancel_fiat_sent_step_1_records_seller_as_initiator0B9_
FN:1112,_RNCNvNtNtNtCsawjdjYzw0zz_7mostrod3app6cancel5testss_52pending_taker_without_bond_row_can_still_self_cancel0B9_
FN:1266,_RNCNvNtNtNtCsawjdjYzw0zz_7mostrod3app6cancel5testss_53cancel_active_order_step_1_records_buyer_as_initiator0B9_
FN:1065,_RNCNvNtNtNtCsawjdjYzw0zz_7mostrod3app6cancel5testss_54taker_self_cancel_of_last_bond_resets_order_to_pending0B9_
FN:1178,_RNCNvNtNtNtCsawjdjYzw0zz_7mostrod3app6cancel5testss_55taker_cancel_of_waiting_buyer_invoice_order_republishes0B9_
FN:826,_RNCNvNtNtNtCsawjdjYzw0zz_7mostrod3app6cancel5testss_56pending_taker_with_active_bond_is_not_routed_as_intruder0B9_
FN:1330,_RNCNvNtNtNtCsawjdjYzw0zz_7mostrod3app6cancel5testss_58cancel_active_order_step_2_rejects_same_party_confirmation0B9_
FN:779,_RNCNvNtNtNtCsawjdjYzw0zz_7mostrod3app6cancel5testss_60cancel_action_with_ctx_rejects_non_creator_for_pending_order0B9_
FN:1024,_RNCNvNtNtNtCsawjdjYzw0zz_7mostrod3app6cancel5testss_60taker_self_cancel_with_other_active_bonds_keeps_order_parked0B9_
FN:945,_RNCNvNtNtNtCsawjdjYzw0zz_7mostrod3app6cancel5testss_61cancel_action_rejects_orders_already_in_terminal_cancel_state0B9_
FN:1438,_RNCNvNtNtNtCsawjdjYzw0zz_7mostrod3app6cancel5testss_61notify_creator_enqueues_new_order_and_rejects_invalid_creator0B9_
FN:1237,_RNCNvNtNtNtCsawjdjYzw0zz_7mostrod3app6cancel5testss_62cancel_not_active_order_with_foreign_creator_is_internal_error0B9_
FN:1146,_RNCNvNtNtNtCsawjdjYzw0zz_7mostrod3app6cancel5testss_63maker_cancel_of_waiting_payment_order_cancels_and_notifies_both0B9_
FN:1359,_RNCNvNtNtNtCsawjdjYzw0zz_7mostrod3app6cancel5testss_69cancel_dispute_step_2_completes_cooperative_cancel_and_closes_dispute0B9_
FN:978,_RNCNvNtNtNtCsawjdjYzw0zz_7mostrod3app6cancel5testss_73maker_cancel_of_pending_order_persists_canceled_and_notifies_bonded_taker0B9_
FN:774,_RNCNvXNtNtNtCsawjdjYzw0zz_7mostrod3app6cancel5testsNtB4_12StubLnClientNtB6_15CancelLightning19cancel_hold_invoice0Ba_
FN:907,_RNvNtNtNtCsawjdjYzw0zz_7mostrod3app6cancel5tests10cancel_msg
FN:873,_RNvNtNtNtCsawjdjYzw0zz_7mostrod3app6cancel5tests10setup_pool
FN:925,_RNvNtNtNtCsawjdjYzw0zz_7mostrod3app6cancel5tests11order_by_id
FN:893,_RNvNtNtNtCsawjdjYzw0zz_7mostrod3app6cancel5tests17set_global_config
FN:914,_RNvNtNtNtCsawjdjYzw0zz_7mostrod3app6cancel5tests18queued_actions_for
FN:903,_RNvNtNtNtCsawjdjYzw0zz_7mostrod3app6cancel5tests18set_global_db_pool
FN:720,_RNvNtNtNtCsawjdjYzw0zz_7mostrod3app6cancel5tests20create_pending_order
FN:929,_RNvNtNtNtCsawjdjYzw0zz_7mostrod3app6cancel5tests27insert_requested_taker_bond
FN:704,_RNvNtNtNtCsawjdjYzw0zz_7mostrod3app6cancel5tests36create_unwrapped_message_with_pubkey
FN:882,_RNvNtNtNtCsawjdjYzw0zz_7mostrod3app6cancel5tests9build_ctx
FN:1411,_RNvNtNtNtCsawjdjYzw0zz_7mostrod3app6cancel5testss_38cancel_action_rejects_unhandled_status
FN:1210,_RNvNtNtNtCsawjdjYzw0zz_7mostrod3app6cancel5testss_40cancel_not_active_order_rejects_intruder
FN:1301,_RNvNtNtNtCsawjdjYzw0zz_7mostrod3app6cancel5testss_51cancel_fiat_sent_step_1_records_seller_as_initiator
FN:1112,_RNvNtNtNtCsawjdjYzw0zz_7mostrod3app6cancel5testss_52pending_taker_without_bond_row_can_still_self_cancel
FN:1266,_RNvNtNtNtCsawjdjYzw0zz_7mostrod3app6cancel5testss_53cancel_active_order_step_1_records_buyer_as_initiator
FN:1065,_RNvNtNtNtCsawjdjYzw0zz_7mostrod3app6cancel5testss_54taker_self_cancel_of_last_bond_resets_order_to_pending
FN:1178,_RNvNtNtNtCsawjdjYzw0zz_7mostrod3app6cancel5testss_55taker_cancel_of_waiting_buyer_invoice_order_republishes
FN:826,_RNvNtNtNtCsawjdjYzw0zz_7mostrod3app6cancel5testss_56pending_taker_with_active_bond_is_not_routed_as_intruder
FN:1330,_RNvNtNtNtCsawjdjYzw0zz_7mostrod3app6cancel5testss_58cancel_active_order_step_2_rejects_same_party_confirmation
FN:779,_RNvNtNtNtCsawjdjYzw0zz_7mostrod3app6cancel5testss_60cancel_action_with_ctx_rejects_non_creator_for_pending_order
FN:1024,_RNvNtNtNtCsawjdjYzw0zz_7mostrod3app6cancel5testss_60taker_self_cancel_with_other_active_bonds_keeps_order_parked
FN:945,_RNvNtNtNtCsawjdjYzw0zz_7mostrod3app6cancel5testss_61cancel_action_rejects_orders_already_in_terminal_cancel_state
FN:1438,_RNvNtNtNtCsawjdjYzw0zz_7mostrod3app6cancel5testss_61notify_creator_enqueues_new_order_and_rejects_invalid_creator
FN:1237,_RNvNtNtNtCsawjdjYzw0zz_7mostrod3app6cancel5testss_62cancel_not_active_order_with_foreign_creator_is_internal_error
FN:1146,_RNvNtNtNtCsawjdjYzw0zz_7mostrod3app6cancel5testss_63maker_cancel_of_waiting_payment_order_cancels_and_notifies_both
FN:737,_RNvNtNtNtCsawjdjYzw0zz_7mostrod3app6cancel5testss_67reset_api_quotes_resets_amount_fee_and_dev_fee_only_when_api_priced
FN:1359,_RNvNtNtNtCsawjdjYzw0zz_7mostrod3app6cancel5testss_69cancel_dispute_step_2_completes_cooperative_cancel_and_closes_dispute
FN:978,_RNvNtNtNtCsawjdjYzw0zz_7mostrod3app6cancel5testss_73maker_cancel_of_pending_order_persists_canceled_and_notifies_bonded_taker
FN:769,_RNvXNtNtNtCsawjdjYzw0zz_7mostrod3app6cancel5testsNtB2_12StubLnClientNtB4_15CancelLightning19cancel_hold_invoice
FNDA:0,_RNvXNtNtCsawjdjYzw0zz_7mostrod3app6cancelNtNtB6_9lightning12LndConnectorNtB2_15CancelLightning19cancel_hold_invoice
FNDA:4,_RINvNtNtCsawjdjYzw0zz_7mostrod3app6cancel19cancel_active_orderNtNtB2_5tests12StubLnClientEB6_
FNDA:0,_RINvNtNtCsawjdjYzw0zz_7mostrod3app6cancel19cancel_active_orderNtNtB6_9lightning12LndConnectorEB6_
FNDA:17,_RINvNtNtCsawjdjYzw0zz_7mostrod3app6cancel21cancel_action_genericNtNtB2_5tests12StubLnClientEB6_
FNDA:0,_RINvNtNtCsawjdjYzw0zz_7mostrod3app6cancel21cancel_action_genericNtNtB6_9lightning12LndConnectorEB6_
FNDA:1,_RINvNtNtCsawjdjYzw0zz_7mostrod3app6cancel21cancel_order_by_makerNtNtB2_5tests12StubLnClientEB6_
FNDA:0,_RINvNtNtCsawjdjYzw0zz_7mostrod3app6cancel21cancel_order_by_makerNtNtB6_9lightning12LndConnectorEB6_
FNDA:4,_RINvNtNtCsawjdjYzw0zz_7mostrod3app6cancel21cancel_order_by_takerNtNtB2_5tests12StubLnClientEB6_
FNDA:0,_RINvNtNtCsawjdjYzw0zz_7mostrod3app6cancel21cancel_order_by_takerNtNtB6_9lightning12LndConnectorEB6_
FNDA:4,_RINvNtNtCsawjdjYzw0zz_7mostrod3app6cancel23cancel_not_active_orderNtNtB2_5tests12StubLnClientEB6_
FNDA:0,_RINvNtNtCsawjdjYzw0zz_7mostrod3app6cancel23cancel_not_active_orderNtNtB6_9lightning12LndConnectorEB6_
FNDA:3,_RINvNtNtCsawjdjYzw0zz_7mostrod3app6cancel27cancel_order_by_taker_innerNtNtB2_5tests12StubLnClientEB6_
FNDA:0,_RINvNtNtCsawjdjYzw0zz_7mostrod3app6cancel27cancel_order_by_taker_innerNtNtB6_9lightning12LndConnectorEB6_
FNDA:2,_RINvNtNtCsawjdjYzw0zz_7mostrod3app6cancel35cancel_cooperative_execution_step_2NtNtB2_5tests12StubLnClientEB6_
FNDA:0,_RINvNtNtCsawjdjYzw0zz_7mostrod3app6cancel35cancel_cooperative_execution_step_2NtNtB6_9lightning12LndConnectorEB6_
FNDA:4,_RNCINvNtNtCsawjdjYzw0zz_7mostrod3app6cancel19cancel_active_orderNtNtB4_5tests12StubLnClientE0B8_
FNDA:0,_RNCINvNtNtCsawjdjYzw0zz_7mostrod3app6cancel19cancel_active_orderNtNtB8_9lightning12LndConnectorE0B8_
FNDA:17,_RNCINvNtNtCsawjdjYzw0zz_7mostrod3app6cancel21cancel_action_genericNtNtB4_5tests12StubLnClientE0B8_
FNDA:0,_RNCINvNtNtCsawjdjYzw0zz_7mostrod3app6cancel21cancel_action_genericNtNtB8_9lightning12LndConnectorE0B8_
FNDA:1,_RNCINvNtNtCsawjdjYzw0zz_7mostrod3app6cancel21cancel_order_by_makerNtNtB4_5tests12StubLnClientE0B8_
FNDA:0,_RNCINvNtNtCsawjdjYzw0zz_7mostrod3app6cancel21cancel_order_by_makerNtNtB8_9lightning12LndConnectorE0B8_
FNDA:4,_RNCINvNtNtCsawjdjYzw0zz_7mostrod3app6cancel21cancel_order_by_takerNtNtB4_5tests12StubLnClientE0B8_
FNDA:0,_RNCINvNtNtCsawjdjYzw0zz_7mostrod3app6cancel21cancel_order_by_takerNtNtB8_9lightning12LndConnectorE0B8_
FNDA:4,_RNCINvNtNtCsawjdjYzw0zz_7mostrod3app6cancel23cancel_not_active_orderNtNtB4_5tests12StubLnClientE0B8_
FNDA:0,_RNCINvNtNtCsawjdjYzw0zz_7mostrod3app6cancel23cancel_not_active_orderNtNtB8_9lightning12LndConnectorE0B8_
FNDA:3,_RNCINvNtNtCsawjdjYzw0zz_7mostrod3app6cancel27cancel_order_by_taker_innerNtNtB4_5tests12StubLnClientE0B8_
FNDA:0,_RNCINvNtNtCsawjdjYzw0zz_7mostrod3app6cancel27cancel_order_by_taker_innerNtNtB8_9lightning12LndConnectorE0B8_
FNDA:2,_RNCINvNtNtCsawjdjYzw0zz_7mostrod3app6cancel35cancel_cooperative_execution_step_2NtNtB4_5tests12StubLnClientE0B8_
FNDA:0,_RNCINvNtNtCsawjdjYzw0zz_7mostrod3app6cancel35cancel_cooperative_execution_step_2NtNtB8_9lightning12LndConnectorE0B8_
FNDA:2,_RNCNCINvNtNtCsawjdjYzw0zz_7mostrod3app6cancel21cancel_action_genericNtNtB6_5tests12StubLnClientE00Ba_
FNDA:1,_RNCNCINvNtNtCsawjdjYzw0zz_7mostrod3app6cancel21cancel_action_genericNtNtB6_5tests12StubLnClientE0s0_0Ba_
FNDA:4,_RNCNCINvNtNtCsawjdjYzw0zz_7mostrod3app6cancel21cancel_action_genericNtNtB6_5tests12StubLnClientE0s_0Ba_
FNDA:0,_RNCNCINvNtNtCsawjdjYzw0zz_7mostrod3app6cancel21cancel_action_genericNtNtBa_9lightning12LndConnectorE00Ba_
FNDA:0,_RNCNCINvNtNtCsawjdjYzw0zz_7mostrod3app6cancel21cancel_action_genericNtNtBa_9lightning12LndConnectorE0s0_0Ba_
FNDA:0,_RNCNCINvNtNtCsawjdjYzw0zz_7mostrod3app6cancel21cancel_action_genericNtNtBa_9lightning12LndConnectorE0s_0Ba_
FNDA:0,_RNCNCINvNtNtCsawjdjYzw0zz_7mostrod3app6cancel21cancel_order_by_makerNtNtB6_5tests12StubLnClientE00Ba_
FNDA:0,_RNCNCINvNtNtCsawjdjYzw0zz_7mostrod3app6cancel21cancel_order_by_makerNtNtBa_9lightning12LndConnectorE00Ba_
FNDA:1,_RNCNCINvNtNtCsawjdjYzw0zz_7mostrod3app6cancel21cancel_order_by_takerNtNtB6_5tests12StubLnClientE00Ba_
FNDA:0,_RNCNCINvNtNtCsawjdjYzw0zz_7mostrod3app6cancel21cancel_order_by_takerNtNtBa_9lightning12LndConnectorE00Ba_
FNDA:0,_RNCNCINvNtNtCsawjdjYzw0zz_7mostrod3app6cancel27cancel_order_by_taker_innerNtNtB6_5tests12StubLnClientE00Ba_
FNDA:0,_RNCNCINvNtNtCsawjdjYzw0zz_7mostrod3app6cancel27cancel_order_by_taker_innerNtNtB6_5tests12StubLnClientE0s0_0Ba_
FNDA:0,_RNCNCINvNtNtCsawjdjYzw0zz_7mostrod3app6cancel27cancel_order_by_taker_innerNtNtB6_5tests12StubLnClientE0s_0Ba_
FNDA:0,_RNCNCINvNtNtCsawjdjYzw0zz_7mostrod3app6cancel27cancel_order_by_taker_innerNtNtBa_9lightning12LndConnectorE00Ba_
FNDA:0,_RNCNCINvNtNtCsawjdjYzw0zz_7mostrod3app6cancel27cancel_order_by_taker_innerNtNtBa_9lightning12LndConnectorE0s0_0Ba_
FNDA:0,_RNCNCINvNtNtCsawjdjYzw0zz_7mostrod3app6cancel27cancel_order_by_taker_innerNtNtBa_9lightning12LndConnectorE0s_0Ba_
FNDA:0,_RNCNCINvNtNtCsawjdjYzw0zz_7mostrod3app6cancel35cancel_cooperative_execution_step_2NtNtB6_5tests12StubLnClientE00Ba_
FNDA:0,_RNCNCINvNtNtCsawjdjYzw0zz_7mostrod3app6cancel35cancel_cooperative_execution_step_2NtNtB6_5tests12StubLnClientE0s0_0Ba_
FNDA:0,_RNCNCINvNtNtCsawjdjYzw0zz_7mostrod3app6cancel35cancel_cooperative_execution_step_2NtNtB6_5tests12StubLnClientE0s_0Ba_
FNDA:0,_RNCNCINvNtNtCsawjdjYzw0zz_7mostrod3app6cancel35cancel_cooperative_execution_step_2NtNtBa_9lightning12LndConnectorE00Ba_
FNDA:0,_RNCNCINvNtNtCsawjdjYzw0zz_7mostrod3app6cancel35cancel_cooperative_execution_step_2NtNtBa_9lightning12LndConnectorE0s0_0Ba_
FNDA:0,_RNCNCINvNtNtCsawjdjYzw0zz_7mostrod3app6cancel35cancel_cooperative_execution_step_2NtNtBa_9lightning12LndConnectorE0s_0Ba_
FNDA:0,_RNCNCNvNtNtCsawjdjYzw0zz_7mostrod3app6cancel31cancel_pending_order_from_maker00B9_
FNDA:0,_RNCNCNvNtNtCsawjdjYzw0zz_7mostrod3app6cancel31cancel_pending_order_from_maker0s_0B9_
FNDA:0,_RNCNCNvNtNtCsawjdjYzw0zz_7mostrod3app6cancel35cancel_cooperative_execution_step_100B9_
FNDA:0,_RNCNCNvNtNtCsawjdjYzw0zz_7mostrod3app6cancel35cancel_cooperative_execution_step_10s_0B9_
FNDA:0,_RNCNvNtNtCsawjdjYzw0zz_7mostrod3app6cancel13cancel_action0B7_
FNDA:5,_RNCNvNtNtCsawjdjYzw0zz_7mostrod3app6cancel14notify_creator0B7_
FNDA:1,_RNCNvNtNtCsawjdjYzw0zz_7mostrod3app6cancel31cancel_pending_order_from_maker0B7_
FNDA:2,_RNCNvNtNtCsawjdjYzw0zz_7mostrod3app6cancel35cancel_cooperative_execution_step_10B7_
FNDA:0,_RNCNvXNtNtCsawjdjYzw0zz_7mostrod3app6cancelNtNtB8_9lightning12LndConnectorNtB4_15CancelLightning19cancel_hold_invoice0B8_
FNDA:0,_RNvNtNtCsawjdjYzw0zz_7mostrod3app6cancel13cancel_action
FNDA:5,_RNvNtNtCsawjdjYzw0zz_7mostrod3app6cancel14notify_creator
FNDA:5,_RNvNtNtCsawjdjYzw0zz_7mostrod3app6cancel16reset_api_quotes
FNDA:1,_RNvNtNtCsawjdjYzw0zz_7mostrod3app6cancel31cancel_pending_order_from_maker
FNDA:2,_RNvNtNtCsawjdjYzw0zz_7mostrod3app6cancel35cancel_cooperative_execution_step_1
FNDA:387,_RNCNCNvNtNtNtCsawjdjYzw0zz_7mostrod3app6cancel5tests18queued_actions_for00Bb_
FNDA:12,_RNCNCNvNtNtNtCsawjdjYzw0zz_7mostrod3app6cancel5tests18queued_actions_for0s_0Bb_
FNDA:1,_RNCNCNvNtNtNtCsawjdjYzw0zz_7mostrod3app6cancel5testss_56pending_taker_with_active_bond_is_not_routed_as_intruder00Bb_
FNDA:1,_RNCNCNvNtNtNtCsawjdjYzw0zz_7mostrod3app6cancel5testss_56pending_taker_with_active_bond_is_not_routed_as_intruder0s_0Bb_
FNDA:14,_RNCNvNtNtNtCsawjdjYzw0zz_7mostrod3app6cancel5tests10setup_pool0B9_
FNDA:9,_RNCNvNtNtNtCsawjdjYzw0zz_7mostrod3app6cancel5tests11order_by_id0B9_
FNDA:12,_RNCNvNtNtNtCsawjdjYzw0zz_7mostrod3app6cancel5tests18queued_actions_for0B9_
FNDA:4,_RNCNvNtNtNtCsawjdjYzw0zz_7mostrod3app6cancel5tests27insert_requested_taker_bond0B9_
FNDA:1,_RNCNvNtNtNtCsawjdjYzw0zz_7mostrod3app6cancel5testss_38cancel_action_rejects_unhandled_status0B9_
FNDA:1,_RNCNvNtNtNtCsawjdjYzw0zz_7mostrod3app6cancel5testss_40cancel_not_active_order_rejects_intruder0B9_
FNDA:1,_RNCNvNtNtNtCsawjdjYzw0zz_7mostrod3app6cancel5testss_51cancel_fiat_sent_step_1_records_seller_as_initiator0B9_
FNDA:1,_RNCNvNtNtNtCsawjdjYzw0zz_7mostrod3app6cancel5testss_52pending_taker_without_bond_row_can_still_self_cancel0B9_
FNDA:1,_RNCNvNtNtNtCsawjdjYzw0zz_7mostrod3app6cancel5testss_53cancel_active_order_step_1_records_buyer_as_initiator0B9_
FNDA:1,_RNCNvNtNtNtCsawjdjYzw0zz_7mostrod3app6cancel5testss_54taker_self_cancel_of_last_bond_resets_order_to_pending0B9_
FNDA:1,_RNCNvNtNtNtCsawjdjYzw0zz_7mostrod3app6cancel5testss_55taker_cancel_of_waiting_buyer_invoice_order_republishes0B9_
FNDA:1,_RNCNvNtNtNtCsawjdjYzw0zz_7mostrod3app6cancel5testss_56pending_taker_with_active_bond_is_not_routed_as_intruder0B9_
FNDA:1,_RNCNvNtNtNtCsawjdjYzw0zz_7mostrod3app6cancel5testss_58cancel_active_order_step_2_rejects_same_party_confirmation0B9_
FNDA:1,_RNCNvNtNtNtCsawjdjYzw0zz_7mostrod3app6cancel5testss_60cancel_action_with_ctx_rejects_non_creator_for_pending_order0B9_
FNDA:1,_RNCNvNtNtNtCsawjdjYzw0zz_7mostrod3app6cancel5testss_60taker_self_cancel_with_other_active_bonds_keeps_order_parked0B9_
FNDA:1,_RNCNvNtNtNtCsawjdjYzw0zz_7mostrod3app6cancel5testss_61cancel_action_rejects_orders_already_in_terminal_cancel_state0B9_
FNDA:1,_RNCNvNtNtNtCsawjdjYzw0zz_7mostrod3app6cancel5testss_61notify_creator_enqueues_new_order_and_rejects_invalid_creator0B9_
FNDA:1,_RNCNvNtNtNtCsawjdjYzw0zz_7mostrod3app6cancel5testss_62cancel_not_active_order_with_foreign_creator_is_internal_error0B9_
FNDA:1,_RNCNvNtNtNtCsawjdjYzw0zz_7mostrod3app6cancel5testss_63maker_cancel_of_waiting_payment_order_cancels_and_notifies_both0B9_
FNDA:1,_RNCNvNtNtNtCsawjdjYzw0zz_7mostrod3app6cancel5testss_69cancel_dispute_step_2_completes_cooperative_cancel_and_closes_dispute0B9_
FNDA:1,_RNCNvNtNtNtCsawjdjYzw0zz_7mostrod3app6cancel5testss_73maker_cancel_of_pending_order_persists_canceled_and_notifies_bonded_taker0B9_
FNDA:4,_RNCNvXNtNtNtCsawjdjYzw0zz_7mostrod3app6cancel5testsNtB4_12StubLnClientNtB6_15CancelLightning19cancel_hold_invoice0Ba_
FNDA:16,_RNvNtNtNtCsawjdjYzw0zz_7mostrod3app6cancel5tests10cancel_msg
FNDA:14,_RNvNtNtNtCsawjdjYzw0zz_7mostrod3app6cancel5tests10setup_pool
FNDA:9,_RNvNtNtNtCsawjdjYzw0zz_7mostrod3app6cancel5tests11order_by_id
FNDA:6,_RNvNtNtNtCsawjdjYzw0zz_7mostrod3app6cancel5tests17set_global_config
FNDA:12,_RNvNtNtNtCsawjdjYzw0zz_7mostrod3app6cancel5tests18queued_actions_for
FNDA:3,_RNvNtNtNtCsawjdjYzw0zz_7mostrod3app6cancel5tests18set_global_db_pool
FNDA:22,_RNvNtNtNtCsawjdjYzw0zz_7mostrod3app6cancel5tests20create_pending_order
FNDA:4,_RNvNtNtNtCsawjdjYzw0zz_7mostrod3app6cancel5tests27insert_requested_taker_bond
FNDA:17,_RNvNtNtNtCsawjdjYzw0zz_7mostrod3app6cancel5tests36create_unwrapped_message_with_pubkey
FNDA:14,_RNvNtNtNtCsawjdjYzw0zz_7mostrod3app6cancel5tests9build_ctx
FNDA:1,_RNvNtNtNtCsawjdjYzw0zz_7mostrod3app6cancel5testss_38cancel_action_rejects_unhandled_status
FNDA:1,_RNvNtNtNtCsawjdjYzw0zz_7mostrod3app6cancel5testss_40cancel_not_active_order_rejects_intruder
FNDA:1,_RNvNtNtNtCsawjdjYzw0zz_7mostrod3app6cancel5testss_51cancel_fiat_sent_step_1_records_seller_as_initiator
FNDA:1,_RNvNtNtNtCsawjdjYzw0zz_7mostrod3app6cancel5testss_52pending_taker_without_bond_row_can_still_self_cancel
FNDA:1,_RNvNtNtNtCsawjdjYzw0zz_7mostrod3app6cancel5testss_53cancel_active_order_step_1_records_buyer_as_initiator
FNDA:1,_RNvNtNtNtCsawjdjYzw0zz_7mostrod3app6cancel5testss_54taker_self_cancel_of_last_bond_resets_order_to_pending
FNDA:1,_RNvNtNtNtCsawjdjYzw0zz_7mostrod3app6cancel5testss_55taker_cancel_of_waiting_buyer_invoice_order_republishes
FNDA:1,_RNvNtNtNtCsawjdjYzw0zz_7mostrod3app6cancel5testss_56pending_taker_with_active_bond_is_not_routed_as_intruder
FNDA:1,_RNvNtNtNtCsawjdjYzw0zz_7mostrod3app6cancel5testss_58cancel_active_order_step_2_rejects_same_party_confirmation
FNDA:1,_RNvNtNtNtCsawjdjYzw0zz_7mostrod3app6cancel5testss_60cancel_action_with_ctx_rejects_non_creator_for_pending_order
FNDA:1,_RNvNtNtNtCsawjdjYzw0zz_7mostrod3app6cancel5testss_60taker_self_cancel_with_other_active_bonds_keeps_order_parked
FNDA:1,_RNvNtNtNtCsawjdjYzw0zz_7mostrod3app6cancel5testss_61cancel_action_rejects_orders_already_in_terminal_cancel_state
FNDA:1,_RNvNtNtNtCsawjdjYzw0zz_7mostrod3app6cancel5testss_61notify_creator_enqueues_new_order_and_rejects_invalid_creator
FNDA:1,_RNvNtNtNtCsawjdjYzw0zz_7mostrod3app6cancel5testss_62cancel_not_active_order_with_foreign_creator_is_internal_error
FNDA:1,_RNvNtNtNtCsawjdjYzw0zz_7mostrod3app6cancel5testss_63maker_cancel_of_waiting_payment_order_cancels_and_notifies_both
FNDA:1,_RNvNtNtNtCsawjdjYzw0zz_7mostrod3app6cancel5testss_67reset_api_quotes_resets_amount_fee_and_dev_fee_only_when_api_priced
FNDA:1,_RNvNtNtNtCsawjdjYzw0zz_7mostrod3app6cancel5testss_69cancel_dispute_step_2_completes_cooperative_cancel_and_closes_dispute
FNDA:1,_RNvNtNtNtCsawjdjYzw0zz_7mostrod3app6cancel5testss_73maker_cancel_of_pending_order_persists_canceled_and_notifies_bonded_taker
FNDA:4,_RNvXNtNtNtCsawjdjYzw0zz_7mostrod3app6cancel5testsNtB2_12StubLnClientNtB4_15CancelLightning19cancel_hold_invoice
FNF:95
FNH:80
DA:22,0
DA:23,0
DA:24,0
DA:25,0
DA:27,0
DA:28,0
DA:29,0
DA:30,0
DA:31,0
DA:32,0
DA:41,5
DA:42,5
DA:43,2
DA:44,2
DA:45,2
DA:46,2
DA:47,3
DA:48,5
DA:54,5
DA:56,5
DA:58,4
DA:59,4
DA:60,4
DA:61,4
DA:62,4
DA:63,4
DA:64,4
DA:65,4
DA:66,4
DA:68,4
DA:69,5
DA:77,2
DA:78,2
DA:79,2
DA:80,2
DA:81,2
DA:82,2
DA:83,2
DA:84,2
DA:85,2
DA:86,2
DA:88,2
DA:89,2
DA:91,1
DA:92,1
DA:93,0
DA:96,1
DA:98,1
DA:99,1
DA:101,0
DA:103,0
DA:104,1
DA:106,1
DA:107,1
DA:108,1
DA:109,1
DA:110,1
DA:112,1
DA:113,1
DA:114,1
DA:116,1
DA:117,1
DA:118,1
DA:119,1
DA:120,1
DA:121,1
DA:122,1
DA:123,1
DA:124,1
DA:125,1
DA:126,1
DA:127,1
DA:128,1
DA:129,1
DA:130,1
DA:131,1
DA:132,1
DA:133,1
DA:134,1
DA:135,1
DA:136,1
DA:140,1
DA:141,1
DA:142,1
DA:143,1
DA:144,1
DA:145,1
DA:146,1
DA:147,1
DA:153,1
DA:154,1
DA:156,1
DA:157,2
DA:163,2
DA:164,2
DA:165,2
DA:166,2
DA:167,2
DA:168,2
DA:169,2
DA:170,2
DA:172,2
DA:173,2
DA:174,2
DA:175,2
DA:178,2
DA:179,2
DA:180,2
DA:181,2
DA:182,2
DA:183,2
DA:184,2
DA:185,2
DA:186,2
DA:187,2
DA:188,2
DA:189,2
DA:190,2
DA:191,2
DA:192,2
DA:193,2
DA:194,2
DA:195,2
DA:196,2
DA:197,2
DA:199,2
DA:200,2
DA:212,4
DA:213,4
DA:214,4
DA:215,4
DA:216,4
DA:217,4
DA:218,4
DA:219,4
DA:220,4
DA:221,4
DA:222,4
DA:227,4
DA:228,4
DA:229,4
DA:230,2
DA:231,0
DA:235,2
DA:236,2
DA:247,4
DA:248,4
DA:249,4
DA:250,4
DA:251,4
DA:252,1
DA:253,1
DA:254,1
DA:255,1
DA:256,1
DA:257,1
DA:258,1
DA:259,1
DA:260,1
DA:261,1
DA:262,3
DA:266,3
DA:267,3
DA:268,3
DA:269,3
DA:270,3
DA:271,3
DA:272,3
DA:273,3
DA:274,3
DA:275,3
DA:276,4
DA:278,3
DA:279,3
DA:280,3
DA:281,3
DA:282,3
DA:283,3
DA:284,3
DA:285,3
DA:286,3
DA:288,3
DA:289,2
DA:290,2
DA:291,1
DA:294,3
DA:295,3
DA:296,3
DA:297,3
DA:298,3
DA:299,3
DA:300,3
DA:301,3
DA:302,3
DA:305,3
DA:308,3
DA:309,3
DA:310,3
DA:313,3
DA:314,3
DA:315,3
DA:317,3
DA:318,3
DA:319,3
DA:321,3
DA:327,3
DA:329,3
DA:330,3
DA:338,1
DA:339,1
DA:340,1
DA:341,1
DA:342,1
DA:343,1
DA:344,1
DA:345,1
DA:346,1
DA:348,1
DA:349,1
DA:350,1
DA:351,1
DA:352,1
DA:353,0
DA:355,1
DA:356,1
DA:357,1
DA:358,0
DA:360,1
DA:361,1
DA:362,1
DA:363,1
DA:364,1
DA:365,1
DA:366,1
DA:367,1
DA:368,1
DA:370,1
DA:371,1
DA:372,1
DA:373,1
DA:374,1
DA:375,1
DA:376,1
DA:377,1
DA:378,1
DA:384,1
DA:385,1
DA:387,1
DA:388,1
DA:394,1
DA:395,1
DA:396,1
DA:397,1
DA:398,1
DA:399,1
DA:400,1
DA:402,1
DA:403,1
DA:404,1
DA:406,1
DA:407,1
DA:408,1
DA:409,1
DA:410,1
DA:411,1
DA:413,0
DA:414,0
DA:415,0
DA:416,0
DA:420,1
DA:421,1
DA:422,1
DA:423,1
DA:424,1
DA:425,1
DA:426,1
DA:427,1
DA:428,1
DA:440,1
DA:441,1
DA:442,1
DA:443,1
DA:444,1
DA:445,1
DA:446,1
DA:447,1
DA:448,1
DA:449,1
DA:450,1
DA:451,1
DA:452,1
DA:453,1
DA:454,0
DA:455,0
DA:458,0
DA:459,0
DA:466,1
DA:467,1
DA:468,1
DA:469,1
DA:475,0
DA:476,0
DA:477,0
DA:478,0
DA:479,0
DA:480,0
DA:481,0
DA:482,0
DA:483,0
DA:485,17
DA:486,17
DA:487,17
DA:488,17
DA:489,17
DA:490,17
DA:491,17
DA:492,17
DA:494,17
DA:496,17
DA:499,17
DA:500,16
DA:501,15
DA:503,3
DA:504,14
DA:513,14
DA:514,10
DA:516,5
DA:517,1
DA:518,1
DA:519,4
DA:533,4
DA:534,4
DA:535,4
DA:536,4
DA:537,0
DA:538,0
DA:542,0
DA:545,4
DA:546,4
DA:547,4
DA:548,4
DA:549,1
DA:550,1
DA:551,1
DA:552,1
DA:553,4
DA:554,3
DA:555,3
DA:556,3
DA:557,3
DA:558,3
DA:559,3
DA:560,3
DA:561,3
DA:562,3
DA:563,3
DA:564,3
DA:565,1
DA:566,1
DA:567,9
DA:571,9
DA:573,4
DA:576,4
DA:578,1
DA:581,5
DA:582,17
DA:588,4
DA:589,4
DA:590,4
DA:591,4
DA:592,4
DA:593,4
DA:594,4
DA:595,4
DA:596,4
DA:598,4
DA:599,4
DA:602,4
DA:603,2
DA:604,2
DA:605,2
DA:606,2
DA:607,2
DA:608,2
DA:611,4
DA:613,2
DA:614,2
DA:615,2
DA:616,2
DA:617,2
DA:618,2
DA:619,2
DA:620,2
DA:621,2
DA:622,2
DA:625,2
DA:626,2
DA:627,2
DA:628,2
DA:629,2
DA:630,2
DA:631,2
DA:632,2
DA:635,3
DA:636,4
DA:642,4
DA:643,4
DA:644,4
DA:645,4
DA:646,4
DA:647,4
DA:648,4
DA:649,4
DA:651,4
DA:652,4
DA:655,4
DA:656,3
DA:657,1
DA:658,0
DA:660,1
DA:663,3
DA:664,1
DA:665,1
DA:666,1
DA:667,1
DA:668,1
DA:669,1
DA:670,1
DA:671,1
DA:672,1
DA:673,1
DA:674,2
DA:675,1
DA:676,1
DA:677,1
DA:678,1
DA:679,1
DA:680,1
DA:681,1
DA:682,1
DA:683,1
DA:684,1
DA:686,1
DA:688,2
DA:689,4
DA:704,17
DA:705,17
DA:706,17
DA:707,17
DA:708,17
DA:709,17
DA:710,17
DA:711,17
DA:712,17
DA:713,17
DA:714,17
DA:715,17
DA:716,17
DA:717,17
DA:718,17
DA:720,22
DA:721,22
DA:722,22
DA:723,22
DA:724,22
DA:725,22
DA:726,22
DA:727,22
DA:728,22
DA:729,22
DA:730,22
DA:731,22
DA:732,22
DA:733,22
DA:734,22
DA:737,1
DA:738,1
DA:739,1
DA:741,1
DA:742,1
DA:743,1
DA:744,1
DA:745,1
DA:746,1
DA:748,1
DA:749,1
DA:750,1
DA:751,1
DA:752,1
DA:753,1
DA:754,1
DA:755,1
DA:756,1
DA:757,1
DA:758,1
DA:759,1
DA:760,1
DA:761,1
DA:764,1
DA:769,4
DA:770,4
DA:771,4
DA:772,4
DA:774,4
DA:775,4
DA:779,1
DA:780,1
DA:781,1
DA:782,1
DA:783,1
DA:784,1
DA:785,1
DA:786,1
DA:787,1
DA:788,1
DA:790,1
DA:791,1
DA:792,1
DA:793,1
DA:794,1
DA:795,1
DA:798,1
DA:799,1
DA:801,1
DA:802,1
DA:803,1
DA:805,1
DA:807,1
DA:808,1
DA:809,1
DA:810,1
DA:811,1
DA:826,1
DA:828,1
DA:829,1
DA:830,1
DA:831,1
DA:832,1
DA:834,1
DA:835,1
DA:836,1
DA:837,1
DA:838,1
DA:839,1
DA:842,1
DA:843,1
DA:844,1
DA:845,1
DA:848,1
DA:849,1
DA:854,1
DA:855,1
DA:856,1
DA:857,1
DA:858,1
DA:859,1
DA:865,1
DA:866,1
DA:867,1
DA:868,1
DA:869,1
DA:870,1
DA:871,1
DA:873,14
DA:874,14
DA:875,14
DA:876,14
DA:877,14
DA:878,14
DA:879,14
DA:880,14
DA:882,14
DA:883,14
DA:884,14
DA:885,14
DA:886,14
DA:887,14
DA:893,6
DA:894,6
DA:895,6
DA:903,3
DA:904,3
DA:905,3
DA:907,16
DA:908,16
DA:909,16
DA:914,12
DA:915,12
DA:916,12
DA:917,12
DA:918,12
DA:919,12
DA:920,387
DA:921,12
DA:922,12
DA:923,12
DA:925,9
DA:926,9
DA:927,9
DA:929,4
DA:930,4
DA:931,4
DA:932,4
DA:933,4
DA:935,4
DA:936,4
DA:937,4
DA:938,4
DA:941,4
DA:942,4
DA:945,1
DA:946,1
DA:947,1
DA:948,1
DA:949,1
DA:950,1
DA:951,1
DA:953,3
DA:954,1
DA:955,1
DA:956,1
DA:957,1
DA:958,3
DA:959,3
DA:960,3
DA:961,3
DA:962,1
DA:963,3
DA:964,3
DA:965,3
DA:966,1
DA:967,3
DA:968,1
DA:969,3
DA:970,1
DA:971,1
DA:972,1
DA:973,1
DA:974,1
DA:975,1
DA:978,1
DA:979,1
DA:980,1
DA:981,1
DA:982,1
DA:983,1
DA:984,1
DA:986,1
DA:987,1
DA:988,1
DA:989,1
DA:990,1
DA:992,1
DA:993,1
DA:994,1
DA:995,1
DA:996,1
DA:997,1
DA:998,1
DA:999,1
DA:1000,1
DA:1002,1
DA:1003,1
DA:1004,1
DA:1005,1
DA:1007,1
DA:1008,1
DA:1011,1
DA:1012,1
DA:1013,1
DA:1014,1
DA:1017,1
DA:1018,1
DA:1019,1
DA:1020,1
DA:1021,1
DA:1024,1
DA:1025,1
DA:1026,1
DA:1027,1
DA:1028,1
DA:1029,1
DA:1031,1
DA:1032,1
DA:1033,1
DA:1034,1
DA:1035,1
DA:1037,1
DA:1038,1
DA:1039,1
DA:1040,1
DA:1041,1
DA:1042,1
DA:1043,1
DA:1044,1
DA:1045,1
DA:1047,1
DA:1048,1
DA:1052,1
DA:1053,1
DA:1054,1
DA:1056,1
DA:1057,1
DA:1058,1
DA:1059,1
DA:1060,1
DA:1061,1
DA:1062,1
DA:1065,1
DA:1066,1
DA:1067,1
DA:1068,1
DA:1069,1
DA:1070,1
DA:1071,1
DA:1073,1
DA:1075,1
DA:1076,1
DA:1077,1
DA:1078,1
DA:1079,1
DA:1081,1
DA:1082,1
DA:1083,1
DA:1084,1
DA:1085,1
DA:1086,1
DA:1087,1
DA:1088,1
DA:1089,1
DA:1091,1
DA:1092,1
DA:1095,1
DA:1096,1
DA:1097,1
DA:1098,1
DA:1099,1
DA:1100,1
DA:1101,1
DA:1104,1
DA:1105,1
DA:1106,1
DA:1107,1
DA:1108,1
DA:1109,1
DA:1112,1
DA:1113,1
DA:1114,1
DA:1115,1
DA:1116,1
DA:1117,1
DA:1118,1
DA:1120,1
DA:1121,1
DA:1122,1
DA:1126,1
DA:1127,1
DA:1128,1
DA:1129,1
DA:1130,1
DA:1131,1
DA:1132,1
DA:1133,1
DA:1134,1
DA:1136,1
DA:1137,1
DA:1140,1
DA:1141,1
DA:1142,1
DA:1143,1
DA:1146,1
DA:1147,1
DA:1148,1
DA:1149,1
DA:1150,1
DA:1151,1
DA:1153,1
DA:1154,1
DA:1155,1
DA:1156,1
DA:1158,1
DA:1159,1
DA:1160,1
DA:1161,1
DA:1162,1
DA:1163,1
DA:1164,1
DA:1165,1
DA:1166,1
DA:1168,1
DA:1169,1
DA:1170,1
DA:1171,1
DA:1173,1
DA:1174,1
DA:1175,1
DA:1178,1
DA:1179,1
DA:1180,1
DA:1181,1
DA:1182,1
DA:1183,1
DA:1184,1
DA:1186,1
DA:1187,1
DA:1188,1
DA:1189,1
DA:1190,1
DA:1192,1
DA:1193,1
DA:1194,1
DA:1195,1
DA:1196,1
DA:1197,1
DA:1198,1
DA:1199,1
DA:1200,1
DA:1202,1
DA:1203,1
DA:1204,1
DA:1205,1
DA:1206,1
DA:1207,1
DA:1210,1
DA:1211,1
DA:1212,1
DA:1213,1
DA:1214,1
DA:1216,1
DA:1217,1
DA:1218,1
DA:1220,1
DA:1221,1
DA:1222,1
DA:1223,1
DA:1224,1
DA:1225,1
DA:1226,1
DA:1227,1
DA:1228,1
DA:1230,1
DA:1231,1
DA:1232,1
DA:1233,1
DA:1234,1
DA:1237,1
DA:1238,1
DA:1239,1
DA:1240,1
DA:1241,1
DA:1243,1
DA:1244,1
DA:1246,1
DA:1247,1
DA:1249,1
DA:1250,1
DA:1251,1
DA:1252,1
DA:1253,1
DA:1254,1
DA:1255,1
DA:1256,1
DA:1257,1
DA:1259,1
DA:1260,1
DA:1261,1
DA:1262,1
DA:1263,1
DA:1266,1
DA:1267,1
DA:1268,1
DA:1269,1
DA:1270,1
DA:1272,1
DA:1273,1
DA:1274,1
DA:1277,1
DA:1278,1
DA:1279,1
DA:1280,1
DA:1281,1
DA:1282,1
DA:1283,1
DA:1284,1
DA:1285,1
DA:1287,1
DA:1288,1
DA:1289,1
DA:1290,1
DA:1291,1
DA:1292,1
DA:1293,1
DA:1294,1
DA:1295,1
DA:1296,1
DA:1297,1
DA:1298,1
DA:1301,1
DA:1302,1
DA:1303,1
DA:1304,1
DA:1305,1
DA:1307,1
DA:1308,1
DA:1309,1
DA:1312,1
DA:1313,1
DA:1314,1
DA:1315,1
DA:1316,1
DA:1317,1
DA:1318,1
DA:1319,1
DA:1320,1
DA:1322,1
DA:1323,1
DA:1324,1
DA:1325,1
DA:1326,1
DA:1327,1
DA:1330,1
DA:1331,1
DA:1332,1
DA:1333,1
DA:1334,1
DA:1336,1
DA:1337,1
DA:1338,1
DA:1339,1
DA:1342,1
DA:1343,1
DA:1344,1
DA:1345,1
DA:1346,1
DA:1347,1
DA:1348,1
DA:1349,1
DA:1350,1
DA:1352,1
DA:1353,1
DA:1354,1
DA:1355,1
DA:1356,1
DA:1359,1
DA:1360,1
DA:1361,1
DA:1362,1
DA:1363,1
DA:1364,1
DA:1366,1
DA:1367,1
DA:1368,1
DA:1369,1
DA:1370,1
DA:1371,1
DA:1373,1
DA:1374,1
DA:1375,1
DA:1376,1
DA:1379,1
DA:1380,1
DA:1381,1
DA:1382,1
DA:1383,1
DA:1384,1
DA:1385,1
DA:1386,1
DA:1387,1
DA:1389,1
DA:1390,1
DA:1391,1
DA:1392,1
DA:1394,1
DA:1395,1
DA:1396,1
DA:1397,1
DA:1399,1
DA:1402,1
DA:1403,1
DA:1404,1
DA:1405,1
DA:1406,1
DA:1407,1
DA:1408,1
DA:1411,1
DA:1412,1
DA:1413,1
DA:1414,1
DA:1415,1
DA:1417,1
DA:1418,1
DA:1419,1
DA:1421,1
DA:1422,1
DA:1423,1
DA:1424,1
DA:1425,1
DA:1426,1
DA:1427,1
DA:1428,1
DA:1429,1
DA:1431,1
DA:1432,1
DA:1433,1
DA:1434,1
DA:1435,1
DA:1438,1
DA:1439,1
DA:1440,1
DA:1442,1
DA:1443,1
DA:1444,1
DA:1445,1
DA:1449,1
DA:1450,1
DA:1451,1
DA:1452,1
DA:1453,1
DA:1454,1
DA:1455,1
BRF:0
BRH:0
LF:1116
LH:1065
end_of_record
SF:/home/runner/work/mostro/mostro/src/app/context.rs
FN:72,_RNvMNtNtCsawjdjYzw0zz_7mostrod3app7contextNtB2_10AppContext12nostr_client
FN:82,_RNvMNtNtCsawjdjYzw0zz_7mostrod3app7contextNtB2_10AppContext15order_msg_queue
FN:45,_RNvMNtNtCsawjdjYzw0zz_7mostrod3app7contextNtB2_10AppContext3new
FN:90,_RNvMNtNtCsawjdjYzw0zz_7mostrod3app7contextNtB2_10AppContext4keys
FN:62,_RNvMNtNtCsawjdjYzw0zz_7mostrod3app7contextNtB2_10AppContext4pool
FN:67,_RNvMNtNtCsawjdjYzw0zz_7mostrod3app7contextNtB2_10AppContext8pool_arc
FN:77,_RNvMNtNtCsawjdjYzw0zz_7mostrod3app7contextNtB2_10AppContext8settings
FN:120,_RNCNvMNtNtNtCsawjdjYzw0zz_7mostrod3app7context10test_utilsNtB4_17MockOrderMsgQueue3len0Ba_
FN:128,_RNCNvMNtNtNtCsawjdjYzw0zz_7mostrod3app7context10test_utilsNtB4_17MockOrderMsgQueue5clear0Ba_
FN:124,_RNCNvMNtNtNtCsawjdjYzw0zz_7mostrod3app7context10test_utilsNtB4_17MockOrderMsgQueue8is_empty0Ba_
FN:229,_RNCNvMs0_NtNtNtCsawjdjYzw0zz_7mostrod3app7context10test_utilsNtB7_18TestContextBuilder5build0Bd_
FN:232,_RNCNvMs0_NtNtNtCsawjdjYzw0zz_7mostrod3app7context10test_utilsNtB7_18TestContextBuilder5builds_0Bd_
FN:120,_RNvMNtNtNtCsawjdjYzw0zz_7mostrod3app7context10test_utilsNtB2_17MockOrderMsgQueue3len
FN:110,_RNvMNtNtNtCsawjdjYzw0zz_7mostrod3app7context10test_utilsNtB2_17MockOrderMsgQueue3new
FN:128,_RNvMNtNtNtCsawjdjYzw0zz_7mostrod3app7context10test_utilsNtB2_17MockOrderMsgQueue5clear
FN:116,_RNvMNtNtNtCsawjdjYzw0zz_7mostrod3app7context10test_utilsNtB2_17MockOrderMsgQueue5queue
FN:124,_RNvMNtNtNtCsawjdjYzw0zz_7mostrod3app7context10test_utilsNtB2_17MockOrderMsgQueue8is_empty
FN:183,_RNvMs0_NtNtNtCsawjdjYzw0zz_7mostrod3app7context10test_utilsNtB5_18TestContextBuilder13with_settings
FN:241,_RNvMs0_NtNtNtCsawjdjYzw0zz_7mostrod3app7context10test_utilsNtB5_18TestContextBuilder16build_with_mocks
FN:177,_RNvMs0_NtNtNtCsawjdjYzw0zz_7mostrod3app7context10test_utilsNtB5_18TestContextBuilder17with_nostr_client
FN:189,_RNvMs0_NtNtNtCsawjdjYzw0zz_7mostrod3app7context10test_utilsNtB5_18TestContextBuilder20with_order_msg_queue
FN:196,_RNvMs0_NtNtNtCsawjdjYzw0zz_7mostrod3app7context10test_utilsNtB5_18TestContextBuilder25with_mock_order_msg_queue
FN:159,_RNvMs0_NtNtNtCsawjdjYzw0zz_7mostrod3app7context10test_utilsNtB5_18TestContextBuilder3new
FN:216,_RNvMs0_NtNtNtCsawjdjYzw0zz_7mostrod3app7context10test_utilsNtB5_18TestContextBuilder5build
FN:203,_RNvMs0_NtNtNtCsawjdjYzw0zz_7mostrod3app7context10test_utilsNtB5_18TestContextBuilder9with_keys
FN:171,_RNvMs0_NtNtNtCsawjdjYzw0zz_7mostrod3app7context10test_utilsNtB5_18TestContextBuilder9with_pool
FN:255,_RNvNtNtNtCsawjdjYzw0zz_7mostrod3app7context10test_utils13test_settings
FN:249,_RNvXs1_NtNtNtCsawjdjYzw0zz_7mostrod3app7context10test_utilsNtB5_18TestContextBuilderNtNtCs4kUJL3MZFFz_4core7default7Default7default
FN:134,_RNvXs_NtNtNtCsawjdjYzw0zz_7mostrod3app7context10test_utilsNtB4_17MockOrderMsgQueueNtNtCs4kUJL3MZFFz_4core7default7Default7default
FN:356,_RNCNvNtNtNtCsawjdjYzw0zz_7mostrod3app7context5testss_28builder_can_use_custom_queue0B9_
FN:284,_RNCNvNtNtNtCsawjdjYzw0zz_7mostrod3app7context5testss_43builder_can_inject_mock_order_message_queue0B9_
FN:326,_RNCNvNtNtNtCsawjdjYzw0zz_7mostrod3app7context5testss_44default_builders_and_mock_queue_helpers_work0B9_
FN:299,_RNCNvNtNtNtCsawjdjYzw0zz_7mostrod3app7context5testss_46context_accessors_expose_injected_dependencies0B9_
FN:356,_RNvNtNtNtCsawjdjYzw0zz_7mostrod3app7context5testss_28builder_can_use_custom_queue
FN:284,_RNvNtNtNtCsawjdjYzw0zz_7mostrod3app7context5testss_43builder_can_inject_mock_order_message_queue
FN:326,_RNvNtNtNtCsawjdjYzw0zz_7mostrod3app7context5testss_44default_builders_and_mock_queue_helpers_work
FN:299,_RNvNtNtNtCsawjdjYzw0zz_7mostrod3app7context5testss_46context_accessors_expose_injected_dependencies
FNDA:15,_RNvMNtNtCsawjdjYzw0zz_7mostrod3app7contextNtB2_10AppContext12nostr_client
FNDA:3,_RNvMNtNtCsawjdjYzw0zz_7mostrod3app7contextNtB2_10AppContext15order_msg_queue
FNDA:185,_RNvMNtNtCsawjdjYzw0zz_7mostrod3app7contextNtB2_10AppContext3new
FNDA:10,_RNvMNtNtCsawjdjYzw0zz_7mostrod3app7contextNtB2_10AppContext4keys
FNDA:1996,_RNvMNtNtCsawjdjYzw0zz_7mostrod3app7contextNtB2_10AppContext4pool
FNDA:1,_RNvMNtNtCsawjdjYzw0zz_7mostrod3app7contextNtB2_10AppContext8pool_arc
FNDA:43,_RNvMNtNtCsawjdjYzw0zz_7mostrod3app7contextNtB2_10AppContext8settings
FNDA:2,_RNCNvMNtNtNtCsawjdjYzw0zz_7mostrod3app7context10test_utilsNtB4_17MockOrderMsgQueue3len0Ba_
FNDA:1,_RNCNvMNtNtNtCsawjdjYzw0zz_7mostrod3app7context10test_utilsNtB4_17MockOrderMsgQueue5clear0Ba_
FNDA:3,_RNCNvMNtNtNtCsawjdjYzw0zz_7mostrod3app7context10test_utilsNtB4_17MockOrderMsgQueue8is_empty0Ba_
FNDA:178,_RNCNvMs0_NtNtNtCsawjdjYzw0zz_7mostrod3app7context10test_utilsNtB7_18TestContextBuilder5build0Bd_
FNDA:180,_RNCNvMs0_NtNtNtCsawjdjYzw0zz_7mostrod3app7context10test_utilsNtB7_18TestContextBuilder5builds_0Bd_
FNDA:2,_RNvMNtNtNtCsawjdjYzw0zz_7mostrod3app7context10test_utilsNtB2_17MockOrderMsgQueue3len
FNDA:2,_RNvMNtNtNtCsawjdjYzw0zz_7mostrod3app7context10test_utilsNtB2_17MockOrderMsgQueue3new
FNDA:1,_RNvMNtNtNtCsawjdjYzw0zz_7mostrod3app7context10test_utilsNtB2_17MockOrderMsgQueue5clear
FNDA:3,_RNvMNtNtNtCsawjdjYzw0zz_7mostrod3app7context10test_utilsNtB2_17MockOrderMsgQueue5queue
FNDA:3,_RNvMNtNtNtCsawjdjYzw0zz_7mostrod3app7context10test_utilsNtB2_17MockOrderMsgQueue8is_empty
FNDA:181,_RNvMs0_NtNtNtCsawjdjYzw0zz_7mostrod3app7context10test_utilsNtB5_18TestContextBuilder13with_settings
FNDA:1,_RNvMs0_NtNtNtCsawjdjYzw0zz_7mostrod3app7context10test_utilsNtB5_18TestContextBuilder16build_with_mocks
FNDA:1,_RNvMs0_NtNtNtCsawjdjYzw0zz_7mostrod3app7context10test_utilsNtB5_18TestContextBuilder17with_nostr_client
FNDA:1,_RNvMs0_NtNtNtCsawjdjYzw0zz_7mostrod3app7context10test_utilsNtB5_18TestContextBuilder20with_order_msg_queue
FNDA:2,_RNvMs0_NtNtNtCsawjdjYzw0zz_7mostrod3app7context10test_utilsNtB5_18TestContextBuilder25with_mock_order_msg_queue
FNDA:181,_RNvMs0_NtNtNtCsawjdjYzw0zz_7mostrod3app7context10test_utilsNtB5_18TestContextBuilder3new
FNDA:181,_RNvMs0_NtNtNtCsawjdjYzw0zz_7mostrod3app7context10test_utilsNtB5_18TestContextBuilder5build
FNDA:1,_RNvMs0_NtNtNtCsawjdjYzw0zz_7mostrod3app7context10test_utilsNtB5_18TestContextBuilder9with_keys
FNDA:181,_RNvMs0_NtNtNtCsawjdjYzw0zz_7mostrod3app7context10test_utilsNtB5_18TestContextBuilder9with_pool
FNDA:348,_RNvNtNtNtCsawjdjYzw0zz_7mostrod3app7context10test_utils13test_settings
FNDA:1,_RNvXs1_NtNtNtCsawjdjYzw0zz_7mostrod3app7context10test_utilsNtB5_18TestContextBuilderNtNtCs4kUJL3MZFFz_4core7default7Default7default
FNDA:1,_RNvXs_NtNtNtCsawjdjYzw0zz_7mostrod3app7context10test_utilsNtB4_17MockOrderMsgQueueNtNtCs4kUJL3MZFFz_4core7default7Default7default
FNDA:1,_RNCNvNtNtNtCsawjdjYzw0zz_7mostrod3app7context5testss_28builder_can_use_custom_queue0B9_
FNDA:1,_RNCNvNtNtNtCsawjdjYzw0zz_7mostrod3app7context5testss_43builder_can_inject_mock_order_message_queue0B9_
FNDA:1,_RNCNvNtNtNtCsawjdjYzw0zz_7mostrod3app7context5testss_44default_builders_and_mock_queue_helpers_work0B9_
FNDA:1,_RNCNvNtNtNtCsawjdjYzw0zz_7mostrod3app7context5testss_46context_accessors_expose_injected_dependencies0B9_
FNDA:1,_RNvNtNtNtCsawjdjYzw0zz_7mostrod3app7context5testss_28builder_can_use_custom_queue
FNDA:1,_RNvNtNtNtCsawjdjYzw0zz_7mostrod3app7context5testss_43builder_can_inject_mock_order_message_queue
FNDA:1,_RNvNtNtNtCsawjdjYzw0zz_7mostrod3app7context5testss_44default_builders_and_mock_queue_helpers_work
FNDA:1,_RNvNtNtNtCsawjdjYzw0zz_7mostrod3app7context5testss_46context_accessors_expose_injected_dependencies
FNF:37
FNH:37
DA:45,185
DA:46,185
DA:47,185
DA:48,185
DA:49,185
DA:50,185
DA:51,185
DA:52,185
DA:53,185
DA:54,185
DA:55,185
DA:56,185
DA:57,185
DA:58,185
DA:59,185
DA:62,1996
DA:63,1996
DA:64,1996
DA:67,1
DA:68,1
DA:69,1
DA:72,15
DA:73,15
DA:74,15
DA:77,43
DA:78,43
DA:79,43
DA:82,3
DA:83,3
DA:84,3
DA:90,10
DA:91,10
DA:92,10
DA:110,2
DA:111,2
DA:112,2
DA:113,2
DA:114,2
DA:116,3
DA:117,3
DA:118,3
DA:120,2
DA:121,2
DA:122,2
DA:124,3
DA:125,3
DA:126,3
DA:128,1
DA:129,1
DA:130,1
DA:134,1
DA:135,1
DA:136,1
DA:159,181
DA:160,181
DA:161,181
DA:162,181
DA:163,181
DA:164,181
DA:165,181
DA:166,181
DA:167,181
DA:168,181
DA:171,181
DA:172,181
DA:173,181
DA:174,181
DA:177,1
DA:178,1
DA:179,1
DA:180,1
DA:183,181
DA:184,181
DA:185,181
DA:186,181
DA:189,1
DA:190,1
DA:191,1
DA:192,1
DA:193,1
DA:196,2
DA:197,2
DA:198,2
DA:199,2
DA:200,2
DA:203,1
DA:204,1
DA:205,1
DA:206,1
DA:216,181
DA:217,181
DA:218,181
DA:219,181
DA:221,181
DA:223,181
DA:224,181
DA:225,181
DA:227,181
DA:228,181
DA:229,181
DA:232,181
DA:233,180
DA:234,180
DA:235,180
DA:237,181
DA:238,181
DA:241,1
DA:242,1
DA:243,1
DA:244,1
DA:245,1
DA:249,1
DA:250,1
DA:251,1
DA:255,348
DA:256,348
DA:257,348
DA:258,348
DA:259,348
DA:260,348
DA:261,348
DA:262,348
DA:263,348
DA:264,348
DA:265,348
DA:266,348
DA:267,348
DA:268,348
DA:269,348
DA:270,348
DA:271,348
DA:272,348
DA:273,348
DA:274,348
DA:284,1
DA:285,1
DA:286,1
DA:288,1
DA:289,1
DA:290,1
DA:291,1
DA:292,1
DA:294,1
DA:295,1
DA:296,1
DA:299,1
DA:300,1
DA:301,1
DA:302,1
DA:304,1
DA:305,1
DA:306,1
DA:307,1
DA:308,1
DA:309,1
DA:312,1
DA:313,1
DA:316,1
DA:319,1
DA:322,1
DA:323,1
DA:326,1
DA:327,1
DA:330,1
DA:331,1
DA:333,1
DA:334,1
DA:335,1
DA:336,1
DA:337,1
DA:340,1
DA:341,1
DA:344,1
DA:345,1
DA:346,1
DA:347,1
DA:348,1
DA:351,1
DA:352,1
DA:353,1
DA:356,1
DA:357,1
DA:358,1
DA:360,1
DA:361,1
DA:362,1
DA:363,1
DA:364,1
DA:366,1
DA:367,1
BRF:0
BRH:0
LF:203
LH:203
end_of_record
SF:/home/runner/work/mostro/mostro/src/app/dev_fee.rs
FN:1065,_RNCNvNtNtNtCsawjdjYzw0zz_7mostrod3app7dev_fee5tests15setup_orders_db0B9_
FN:1098,_RNCNvNtNtNtCsawjdjYzw0zz_7mostrod3app7dev_fee5tests17insert_test_order0B9_
FN:1540,_RNCNvNtNtNtCsawjdjYzw0zz_7mostrod3app7dev_fee5tests19signed_test_invoice0B9_
FN:1506,_RNCNvNtNtNtCsawjdjYzw0zz_7mostrod3app7dev_fee5tests8dead_lnd0B9_
FN:1192,_RNCNvNtNtNtCsawjdjYzw0zz_7mostrod3app7dev_fee5testss_37atomic_claim_with_empty_hash_succeeds0B9_
FN:1548,_RNCNvNtNtNtCsawjdjYzw0zz_7mostrod3app7dev_fee5testss_39run_dev_fee_cycle_on_empty_db_is_a_noop0B9_
FN:1181,_RNCNvNtNtNtCsawjdjYzw0zz_7mostrod3app7dev_fee5testss_40atomic_claim_fails_for_nonexistent_order0B9_
FN:1169,_RNCNvNtNtNtCsawjdjYzw0zz_7mostrod3app7dev_fee5testss_41atomic_claim_fails_for_already_paid_order0B9_
FN:1118,_RNCNvNtNtNtCsawjdjYzw0zz_7mostrod3app7dev_fee5testss_41atomic_claim_succeeds_for_unclaimed_order0B9_
FN:1585,_RNCNvNtNtNtCsawjdjYzw0zz_7mostrod3app7dev_fee5testss_42cleanup_survives_query_and_update_failures0B9_
FN:1138,_RNCNvNtNtNtCsawjdjYzw0zz_7mostrod3app7dev_fee5testss_44atomic_claim_fails_for_already_claimed_order0B9_
FN:1962,_RNCNvNtNtNtCsawjdjYzw0zz_7mostrod3app7dev_fee5testss_45send_dev_fee_payment_rejects_non_positive_fee0B9_
FN:1557,_RNCNvNtNtNtCsawjdjYzw0zz_7mostrod3app7dev_fee5testss_46cleanup_resets_legacy_marker_without_timestamp0B9_
FN:1760,_RNCNvNtNtNtCsawjdjYzw0zz_7mostrod3app7dev_fee5testss_46payment_timeout_with_unknown_status_keeps_hash0B9_
FN:1806,_RNCNvNtNtNtCsawjdjYzw0zz_7mostrod3app7dev_fee5testss_46process_new_payments_claim_failure_skips_order0B9_
FN:1259,_RNCNvNtNtNtCsawjdjYzw0zz_7mostrod3app7dev_fee5testss_47cleanup_stale_pending_markers_resets_only_stale0B9_
FN:1373,_RNCNvNtNtNtCsawjdjYzw0zz_7mostrod3app7dev_fee5testss_47handle_payment_success_sets_paid_and_hash_in_db0B9_
FN:1786,_RNCNvNtNtNtCsawjdjYzw0zz_7mostrod3app7dev_fee5testss_47payment_timeout_with_untrackable_hash_keeps_row0B9_
FN:1876,_RNCNvNtNtNtCsawjdjYzw0zz_7mostrod3app7dev_fee5testss_48handle_payment_success_confirms_already_paid_row0B9_
FN:1837,_RNCNvNtNtNtCsawjdjYzw0zz_7mostrod3app7dev_fee5testss_48process_new_payments_query_failure_returns_early0B9_
FN:1948,_RNCNvNtNtNtCsawjdjYzw0zz_7mostrod3app7dev_fee5testss_48resolve_dev_fee_invoice_rejects_non_positive_fee0B9_
FN:1442,_RNCNvNtNtNtCsawjdjYzw0zz_7mostrod3app7dev_fee5testss_48targeted_dev_fee_updates_do_not_overwrite_status0B9_
FN:1308,_RNCNvNtNtNtCsawjdjYzw0zz_7mostrod3app7dev_fee5testss_49release_pending_claim_clears_matching_marker_only0B9_
FN:1343,_RNCNvNtNtNtCsawjdjYzw0zz_7mostrod3app7dev_fee5testss_51release_pending_claim_logs_db_failure_without_panic0B9_
FN:1625,_RNCNvNtNtNtCsawjdjYzw0zz_7mostrod3app7dev_fee5testss_52cleanup_skips_reset_when_marker_changes_concurrently0B9_
FN:1979,_RNCNvNtNtNtCsawjdjYzw0zz_7mostrod3app7dev_fee5testss_52send_dev_fee_payment_fails_fast_when_lnd_unreachable0B9_
FN:1402,_RNCNvNtNtNtCsawjdjYzw0zz_7mostrod3app7dev_fee5testss_54handle_payment_failure_marks_unpaid_and_preserves_hash0B9_
FN:1693,_RNCNvNtNtNtCsawjdjYzw0zz_7mostrod3app7dev_fee5testss_54verify_confirmed_skips_cached_and_leaves_unknown_alone0B9_
FN:1924,_RNCNvNtNtNtCsawjdjYzw0zz_7mostrod3app7dev_fee5testss_58handle_payment_failure_db_failure_is_logged_not_propagated0B9_
FN:1730,_RNCNvNtNtNtCsawjdjYzw0zz_7mostrod3app7dev_fee5testss_60recover_partial_payment_with_unknown_ln_status_is_left_alone0B9_
FN:1898,_RNCNvNtNtNtCsawjdjYzw0zz_7mostrod3app7dev_fee5testss_61handle_payment_success_db_failure_logs_critical_without_panic0B9_
FN:1850,_RNCNvNtNtNtCsawjdjYzw0zz_7mostrod3app7dev_fee5testss_64handle_payment_success_warns_on_hash_mismatch_and_uses_lnd_value0B9_
FN:1065,_RNvNtNtNtCsawjdjYzw0zz_7mostrod3app7dev_fee5tests15setup_orders_db
FN:1091,_RNvNtNtNtCsawjdjYzw0zz_7mostrod3app7dev_fee5tests17insert_test_order
FN:1044,_RNvNtNtNtCsawjdjYzw0zz_7mostrod3app7dev_fee5tests18init_test_settings
FN:1524,_RNvNtNtNtCsawjdjYzw0zz_7mostrod3app7dev_fee5tests19signed_test_invoice
FN:1506,_RNvNtNtNtCsawjdjYzw0zz_7mostrod3app7dev_fee5tests8dead_lnd
FN:1216,_RNvNtNtNtCsawjdjYzw0zz_7mostrod3app7dev_fee5testss_22test_parse_not_pending
FN:1222,_RNvNtNtNtCsawjdjYzw0zz_7mostrod3app7dev_fee5testss_24test_parse_plain_pending
FN:1249,_RNvNtNtNtCsawjdjYzw0zz_7mostrod3app7dev_fee5testss_28test_parse_current_timestamp
FN:1228,_RNvNtNtNtCsawjdjYzw0zz_7mostrod3app7dev_fee5testss_28test_parse_invalid_timestamp
FN:1210,_RNvNtNtNtCsawjdjYzw0zz_7mostrod3app7dev_fee5testss_29test_parse_legacy_format_uuid
FN:1234,_RNvNtNtNtCsawjdjYzw0zz_7mostrod3app7dev_fee5testss_30test_parse_too_small_timestamp
FN:1204,_RNvNtNtNtCsawjdjYzw0zz_7mostrod3app7dev_fee5testss_31test_parse_new_format_with_uuid
FN:1240,_RNvNtNtNtCsawjdjYzw0zz_7mostrod3app7dev_fee5testss_33test_parse_missing_separator_dash
FN:1192,_RNvNtNtNtCsawjdjYzw0zz_7mostrod3app7dev_fee5testss_37atomic_claim_with_empty_hash_succeeds
FN:1548,_RNvNtNtNtCsawjdjYzw0zz_7mostrod3app7dev_fee5testss_39run_dev_fee_cycle_on_empty_db_is_a_noop
FN:1181,_RNvNtNtNtCsawjdjYzw0zz_7mostrod3app7dev_fee5testss_40atomic_claim_fails_for_nonexistent_order
FN:1169,_RNvNtNtNtCsawjdjYzw0zz_7mostrod3app7dev_fee5testss_41atomic_claim_fails_for_already_paid_order
FN:1118,_RNvNtNtNtCsawjdjYzw0zz_7mostrod3app7dev_fee5testss_41atomic_claim_succeeds_for_unclaimed_order
FN:1585,_RNvNtNtNtCsawjdjYzw0zz_7mostrod3app7dev_fee5testss_42cleanup_survives_query_and_update_failures
FN:1138,_RNvNtNtNtCsawjdjYzw0zz_7mostrod3app7dev_fee5testss_44atomic_claim_fails_for_already_claimed_order
FN:1962,_RNvNtNtNtCsawjdjYzw0zz_7mostrod3app7dev_fee5testss_45send_dev_fee_payment_rejects_non_positive_fee
FN:1557,_RNvNtNtNtCsawjdjYzw0zz_7mostrod3app7dev_fee5testss_46cleanup_resets_legacy_marker_without_timestamp
FN:1760,_RNvNtNtNtCsawjdjYzw0zz_7mostrod3app7dev_fee5testss_46payment_timeout_with_unknown_status_keeps_hash
FN:1806,_RNvNtNtNtCsawjdjYzw0zz_7mostrod3app7dev_fee5testss_46process_new_payments_claim_failure_skips_order
FN:1259,_RNvNtNtNtCsawjdjYzw0zz_7mostrod3app7dev_fee5testss_47cleanup_stale_pending_markers_resets_only_stale
FN:1373,_RNvNtNtNtCsawjdjYzw0zz_7mostrod3app7dev_fee5testss_47handle_payment_success_sets_paid_and_hash_in_db
FN:1786,_RNvNtNtNtCsawjdjYzw0zz_7mostrod3app7dev_fee5testss_47payment_timeout_with_untrackable_hash_keeps_row
FN:1876,_RNvNtNtNtCsawjdjYzw0zz_7mostrod3app7dev_fee5testss_48handle_payment_success_confirms_already_paid_row
FN:1837,_RNvNtNtNtCsawjdjYzw0zz_7mostrod3app7dev_fee5testss_48process_new_payments_query_failure_returns_early
FN:1948,_RNvNtNtNtCsawjdjYzw0zz_7mostrod3app7dev_fee5testss_48resolve_dev_fee_invoice_rejects_non_positive_fee
FN:1442,_RNvNtNtNtCsawjdjYzw0zz_7mostrod3app7dev_fee5testss_48targeted_dev_fee_updates_do_not_overwrite_status
FN:1308,_RNvNtNtNtCsawjdjYzw0zz_7mostrod3app7dev_fee5testss_49release_pending_claim_clears_matching_marker_only
FN:1343,_RNvNtNtNtCsawjdjYzw0zz_7mostrod3app7dev_fee5testss_51release_pending_claim_logs_db_failure_without_panic
FN:1625,_RNvNtNtNtCsawjdjYzw0zz_7mostrod3app7dev_fee5testss_52cleanup_skips_reset_when_marker_changes_concurrently
FN:1979,_RNvNtNtNtCsawjdjYzw0zz_7mostrod3app7dev_fee5testss_52send_dev_fee_payment_fails_fast_when_lnd_unreachable
FN:1402,_RNvNtNtNtCsawjdjYzw0zz_7mostrod3app7dev_fee5testss_54handle_payment_failure_marks_unpaid_and_preserves_hash
FN:1693,_RNvNtNtNtCsawjdjYzw0zz_7mostrod3app7dev_fee5testss_54verify_confirmed_skips_cached_and_leaves_unknown_alone
FN:1924,_RNvNtNtNtCsawjdjYzw0zz_7mostrod3app7dev_fee5testss_58handle_payment_failure_db_failure_is_logged_not_propagated
FN:1730,_RNvNtNtNtCsawjdjYzw0zz_7mostrod3app7dev_fee5testss_60recover_partial_payment_with_unknown_ln_status_is_left_alone
FN:1898,_RNvNtNtNtCsawjdjYzw0zz_7mostrod3app7dev_fee5testss_61handle_payment_success_db_failure_logs_critical_without_panic
FN:1850,_RNvNtNtNtCsawjdjYzw0zz_7mostrod3app7dev_fee5testss_64handle_payment_success_warns_on_hash_mismatch_and_uses_lnd_value
FN:968,_RNCNCNvNtNtCsawjdjYzw0zz_7mostrod3app7dev_fee20send_dev_fee_payment00B9_
FN:985,_RNCNCNvNtNtCsawjdjYzw0zz_7mostrod3app7dev_fee20send_dev_fee_payment0s0_0B9_
FN:1015,_RNCNCNvNtNtCsawjdjYzw0zz_7mostrod3app7dev_fee20send_dev_fee_payment0s1_0B9_
FN:977,_RNCNCNvNtNtCsawjdjYzw0zz_7mostrod3app7dev_fee20send_dev_fee_payment0s_0B9_
FN:901,_RNCNCNvNtNtCsawjdjYzw0zz_7mostrod3app7dev_fee23resolve_dev_fee_invoice00B9_
FN:908,_RNCNCNvNtNtCsawjdjYzw0zz_7mostrod3app7dev_fee23resolve_dev_fee_invoice0s_0B9_
FN:848,_RNCNCNvNtNtCsawjdjYzw0zz_7mostrod3app7dev_fee27try_claim_order_for_dev_fee00B9_
FN:148,_RNCNCNvNtNtCsawjdjYzw0zz_7mostrod3app7dev_fee29cleanup_stale_pending_markers00B9_
FN:149,_RNCNCNvNtNtCsawjdjYzw0zz_7mostrod3app7dev_fee29cleanup_stale_pending_markers0s_0B9_
FN:90,_RNCNvNtNtCsawjdjYzw0zz_7mostrod3app7dev_fee17run_dev_fee_cycle0B7_
FN:949,_RNCNvNtNtCsawjdjYzw0zz_7mostrod3app7dev_fee20send_dev_fee_payment0B7_
FN:733,_RNCNvNtNtCsawjdjYzw0zz_7mostrod3app7dev_fee21release_pending_claim0B7_
FN:627,_RNCNvNtNtCsawjdjYzw0zz_7mostrod3app7dev_fee22handle_payment_failure0B7_
FN:543,_RNCNvNtNtCsawjdjYzw0zz_7mostrod3app7dev_fee22handle_payment_success0B7_
FN:661,_RNCNvNtNtCsawjdjYzw0zz_7mostrod3app7dev_fee22handle_payment_timeout0B7_
FN:874,_RNCNvNtNtCsawjdjYzw0zz_7mostrod3app7dev_fee23parse_pending_timestamp0B7_
FN:886,_RNCNvNtNtCsawjdjYzw0zz_7mostrod3app7dev_fee23resolve_dev_fee_invoice0B7_
FN:206,_RNCNvNtNtCsawjdjYzw0zz_7mostrod3app7dev_fee23verify_confirmed_orders0B7_
FN:262,_RNCNvNtNtCsawjdjYzw0zz_7mostrod3app7dev_fee24recover_partial_payments0B7_
FN:835,_RNCNvNtNtCsawjdjYzw0zz_7mostrod3app7dev_fee27try_claim_order_for_dev_fee0B7_
FN:768,_RNCNvNtNtCsawjdjYzw0zz_7mostrod3app7dev_fee28check_dev_fee_payment_status0B7_
FN:395,_RNCNvNtNtCsawjdjYzw0zz_7mostrod3app7dev_fee28process_new_dev_fee_payments0B7_
FN:103,_RNCNvNtNtCsawjdjYzw0zz_7mostrod3app7dev_fee29cleanup_stale_pending_markers0B7_
FN:86,_RNvNtNtCsawjdjYzw0zz_7mostrod3app7dev_fee17run_dev_fee_cycle
FN:945,_RNvNtNtCsawjdjYzw0zz_7mostrod3app7dev_fee20send_dev_fee_payment
FN:733,_RNvNtNtCsawjdjYzw0zz_7mostrod3app7dev_fee21release_pending_claim
FN:622,_RNvNtNtCsawjdjYzw0zz_7mostrod3app7dev_fee22handle_payment_failure
FN:538,_RNvNtNtCsawjdjYzw0zz_7mostrod3app7dev_fee22handle_payment_success
FN:656,_RNvNtNtCsawjdjYzw0zz_7mostrod3app7dev_fee22handle_payment_timeout
FN:860,_RNvNtNtCsawjdjYzw0zz_7mostrod3app7dev_fee23parse_pending_timestamp
FN:886,_RNvNtNtCsawjdjYzw0zz_7mostrod3app7dev_fee23resolve_dev_fee_invoice
FN:202,_RNvNtNtCsawjdjYzw0zz_7mostrod3app7dev_fee23verify_confirmed_orders
FN:258,_RNvNtNtCsawjdjYzw0zz_7mostrod3app7dev_fee24recover_partial_payments
FN:831,_RNvNtNtCsawjdjYzw0zz_7mostrod3app7dev_fee27try_claim_order_for_dev_fee
FN:765,_RNvNtNtCsawjdjYzw0zz_7mostrod3app7dev_fee28check_dev_fee_payment_status
FN:391,_RNvNtNtCsawjdjYzw0zz_7mostrod3app7dev_fee28process_new_dev_fee_payments
FN:103,_RNvNtNtCsawjdjYzw0zz_7mostrod3app7dev_fee29cleanup_stale_pending_markers
FNDA:29,_RNCNvNtNtNtCsawjdjYzw0zz_7mostrod3app7dev_fee5tests15setup_orders_db0B9_
FNDA:29,_RNCNvNtNtNtCsawjdjYzw0zz_7mostrod3app7dev_fee5tests17insert_test_order0B9_
FNDA:1,_RNCNvNtNtNtCsawjdjYzw0zz_7mostrod3app7dev_fee5tests19signed_test_invoice0B9_
FNDA:9,_RNCNvNtNtNtCsawjdjYzw0zz_7mostrod3app7dev_fee5tests8dead_lnd0B9_
FNDA:1,_RNCNvNtNtNtCsawjdjYzw0zz_7mostrod3app7dev_fee5testss_37atomic_claim_with_empty_hash_succeeds0B9_
FNDA:1,_RNCNvNtNtNtCsawjdjYzw0zz_7mostrod3app7dev_fee5testss_39run_dev_fee_cycle_on_empty_db_is_a_noop0B9_
FNDA:1,_RNCNvNtNtNtCsawjdjYzw0zz_7mostrod3app7dev_fee5testss_40atomic_claim_fails_for_nonexistent_order0B9_
FNDA:1,_RNCNvNtNtNtCsawjdjYzw0zz_7mostrod3app7dev_fee5testss_41atomic_claim_fails_for_already_paid_order0B9_
FNDA:1,_RNCNvNtNtNtCsawjdjYzw0zz_7mostrod3app7dev_fee5testss_41atomic_claim_succeeds_for_unclaimed_order0B9_
FNDA:1,_RNCNvNtNtNtCsawjdjYzw0zz_7mostrod3app7dev_fee5testss_42cleanup_survives_query_and_update_failures0B9_
FNDA:1,_RNCNvNtNtNtCsawjdjYzw0zz_7mostrod3app7dev_fee5testss_44atomic_claim_fails_for_already_claimed_order0B9_
FNDA:1,_RNCNvNtNtNtCsawjdjYzw0zz_7mostrod3app7dev_fee5testss_45send_dev_fee_payment_rejects_non_positive_fee0B9_
FNDA:1,_RNCNvNtNtNtCsawjdjYzw0zz_7mostrod3app7dev_fee5testss_46cleanup_resets_legacy_marker_without_timestamp0B9_
FNDA:1,_RNCNvNtNtNtCsawjdjYzw0zz_7mostrod3app7dev_fee5testss_46payment_timeout_with_unknown_status_keeps_hash0B9_
FNDA:1,_RNCNvNtNtNtCsawjdjYzw0zz_7mostrod3app7dev_fee5testss_46process_new_payments_claim_failure_skips_order0B9_
FNDA:1,_RNCNvNtNtNtCsawjdjYzw0zz_7mostrod3app7dev_fee5testss_47cleanup_stale_pending_markers_resets_only_stale0B9_
FNDA:1,_RNCNvNtNtNtCsawjdjYzw0zz_7mostrod3app7dev_fee5testss_47handle_payment_success_sets_paid_and_hash_in_db0B9_
FNDA:1,_RNCNvNtNtNtCsawjdjYzw0zz_7mostrod3app7dev_fee5testss_47payment_timeout_with_untrackable_hash_keeps_row0B9_
FNDA:1,_RNCNvNtNtNtCsawjdjYzw0zz_7mostrod3app7dev_fee5testss_48handle_payment_success_confirms_already_paid_row0B9_
FNDA:1,_RNCNvNtNtNtCsawjdjYzw0zz_7mostrod3app7dev_fee5testss_48process_new_payments_query_failure_returns_early0B9_
FNDA:1,_RNCNvNtNtNtCsawjdjYzw0zz_7mostrod3app7dev_fee5testss_48resolve_dev_fee_invoice_rejects_non_positive_fee0B9_
FNDA:1,_RNCNvNtNtNtCsawjdjYzw0zz_7mostrod3app7dev_fee5testss_48targeted_dev_fee_updates_do_not_overwrite_status0B9_
FNDA:1,_RNCNvNtNtNtCsawjdjYzw0zz_7mostrod3app7dev_fee5testss_49release_pending_claim_clears_matching_marker_only0B9_
FNDA:1,_RNCNvNtNtNtCsawjdjYzw0zz_7mostrod3app7dev_fee5testss_51release_pending_claim_logs_db_failure_without_panic0B9_
FNDA:1,_RNCNvNtNtNtCsawjdjYzw0zz_7mostrod3app7dev_fee5testss_52cleanup_skips_reset_when_marker_changes_concurrently0B9_
FNDA:1,_RNCNvNtNtNtCsawjdjYzw0zz_7mostrod3app7dev_fee5testss_52send_dev_fee_payment_fails_fast_when_lnd_unreachable0B9_
FNDA:1,_RNCNvNtNtNtCsawjdjYzw0zz_7mostrod3app7dev_fee5testss_54handle_payment_failure_marks_unpaid_and_preserves_hash0B9_
FNDA:1,_RNCNvNtNtNtCsawjdjYzw0zz_7mostrod3app7dev_fee5testss_54verify_confirmed_skips_cached_and_leaves_unknown_alone0B9_
FNDA:1,_RNCNvNtNtNtCsawjdjYzw0zz_7mostrod3app7dev_fee5testss_58handle_payment_failure_db_failure_is_logged_not_propagated0B9_
FNDA:1,_RNCNvNtNtNtCsawjdjYzw0zz_7mostrod3app7dev_fee5testss_60recover_partial_payment_with_unknown_ln_status_is_left_alone0B9_
FNDA:1,_RNCNvNtNtNtCsawjdjYzw0zz_7mostrod3app7dev_fee5testss_61handle_payment_success_db_failure_logs_critical_without_panic0B9_
FNDA:1,_RNCNvNtNtNtCsawjdjYzw0zz_7mostrod3app7dev_fee5testss_64handle_payment_success_warns_on_hash_mismatch_and_uses_lnd_value0B9_
FNDA:29,_RNvNtNtNtCsawjdjYzw0zz_7mostrod3app7dev_fee5tests15setup_orders_db
FNDA:29,_RNvNtNtNtCsawjdjYzw0zz_7mostrod3app7dev_fee5tests17insert_test_order
FNDA:29,_RNvNtNtNtCsawjdjYzw0zz_7mostrod3app7dev_fee5tests18init_test_settings
FNDA:1,_RNvNtNtNtCsawjdjYzw0zz_7mostrod3app7dev_fee5tests19signed_test_invoice
FNDA:9,_RNvNtNtNtCsawjdjYzw0zz_7mostrod3app7dev_fee5tests8dead_lnd
FNDA:1,_RNvNtNtNtCsawjdjYzw0zz_7mostrod3app7dev_fee5testss_22test_parse_not_pending
FNDA:1,_RNvNtNtNtCsawjdjYzw0zz_7mostrod3app7dev_fee5testss_24test_parse_plain_pending
FNDA:1,_RNvNtNtNtCsawjdjYzw0zz_7mostrod3app7dev_fee5testss_28test_parse_current_timestamp
FNDA:1,_RNvNtNtNtCsawjdjYzw0zz_7mostrod3app7dev_fee5testss_28test_parse_invalid_timestamp
FNDA:1,_RNvNtNtNtCsawjdjYzw0zz_7mostrod3app7dev_fee5testss_29test_parse_legacy_format_uuid
FNDA:1,_RNvNtNtNtCsawjdjYzw0zz_7mostrod3app7dev_fee5testss_30test_parse_too_small_timestamp
FNDA:1,_RNvNtNtNtCsawjdjYzw0zz_7mostrod3app7dev_fee5testss_31test_parse_new_format_with_uuid
FNDA:1,_RNvNtNtNtCsawjdjYzw0zz_7mostrod3app7dev_fee5testss_33test_parse_missing_separator_dash
FNDA:1,_RNvNtNtNtCsawjdjYzw0zz_7mostrod3app7dev_fee5testss_37atomic_claim_with_empty_hash_succeeds
FNDA:1,_RNvNtNtNtCsawjdjYzw0zz_7mostrod3app7dev_fee5testss_39run_dev_fee_cycle_on_empty_db_is_a_noop
FNDA:1,_RNvNtNtNtCsawjdjYzw0zz_7mostrod3app7dev_fee5testss_40atomic_claim_fails_for_nonexistent_order
FNDA:1,_RNvNtNtNtCsawjdjYzw0zz_7mostrod3app7dev_fee5testss_41atomic_claim_fails_for_already_paid_order
FNDA:1,_RNvNtNtNtCsawjdjYzw0zz_7mostrod3app7dev_fee5testss_41atomic_claim_succeeds_for_unclaimed_order
FNDA:1,_RNvNtNtNtCsawjdjYzw0zz_7mostrod3app7dev_fee5testss_42cleanup_survives_query_and_update_failures
FNDA:1,_RNvNtNtNtCsawjdjYzw0zz_7mostrod3app7dev_fee5testss_44atomic_claim_fails_for_already_claimed_order
FNDA:1,_RNvNtNtNtCsawjdjYzw0zz_7mostrod3app7dev_fee5testss_45send_dev_fee_payment_rejects_non_positive_fee
FNDA:1,_RNvNtNtNtCsawjdjYzw0zz_7mostrod3app7dev_fee5testss_46cleanup_resets_legacy_marker_without_timestamp
FNDA:1,_RNvNtNtNtCsawjdjYzw0zz_7mostrod3app7dev_fee5testss_46payment_timeout_with_unknown_status_keeps_hash
FNDA:1,_RNvNtNtNtCsawjdjYzw0zz_7mostrod3app7dev_fee5testss_46process_new_payments_claim_failure_skips_order
FNDA:1,_RNvNtNtNtCsawjdjYzw0zz_7mostrod3app7dev_fee5testss_47cleanup_stale_pending_markers_resets_only_stale
FNDA:1,_RNvNtNtNtCsawjdjYzw0zz_7mostrod3app7dev_fee5testss_47handle_payment_success_sets_paid_and_hash_in_db
FNDA:1,_RNvNtNtNtCsawjdjYzw0zz_7mostrod3app7dev_fee5testss_47payment_timeout_with_untrackable_hash_keeps_row
FNDA:1,_RNvNtNtNtCsawjdjYzw0zz_7mostrod3app7dev_fee5testss_48handle_payment_success_confirms_already_paid_row
FNDA:1,_RNvNtNtNtCsawjdjYzw0zz_7mostrod3app7dev_fee5testss_48process_new_payments_query_failure_returns_early
FNDA:1,_RNvNtNtNtCsawjdjYzw0zz_7mostrod3app7dev_fee5testss_48resolve_dev_fee_invoice_rejects_non_positive_fee
FNDA:1,_RNvNtNtNtCsawjdjYzw0zz_7mostrod3app7dev_fee5testss_48targeted_dev_fee_updates_do_not_overwrite_status
FNDA:1,_RNvNtNtNtCsawjdjYzw0zz_7mostrod3app7dev_fee5testss_49release_pending_claim_clears_matching_marker_only
FNDA:1,_RNvNtNtNtCsawjdjYzw0zz_7mostrod3app7dev_fee5testss_51release_pending_claim_logs_db_failure_without_panic
FNDA:1,_RNvNtNtNtCsawjdjYzw0zz_7mostrod3app7dev_fee5testss_52cleanup_skips_reset_when_marker_changes_concurrently
FNDA:1,_RNvNtNtNtCsawjdjYzw0zz_7mostrod3app7dev_fee5testss_52send_dev_fee_payment_fails_fast_when_lnd_unreachable
FNDA:1,_RNvNtNtNtCsawjdjYzw0zz_7mostrod3app7dev_fee5testss_54handle_payment_failure_marks_unpaid_and_preserves_hash
FNDA:1,_RNvNtNtNtCsawjdjYzw0zz_7mostrod3app7dev_fee5testss_54verify_confirmed_skips_cached_and_leaves_unknown_alone
FNDA:1,_RNvNtNtNtCsawjdjYzw0zz_7mostrod3app7dev_fee5testss_58handle_payment_failure_db_failure_is_logged_not_propagated
FNDA:1,_RNvNtNtNtCsawjdjYzw0zz_7mostrod3app7dev_fee5testss_60recover_partial_payment_with_unknown_ln_status_is_left_alone
FNDA:1,_RNvNtNtNtCsawjdjYzw0zz_7mostrod3app7dev_fee5testss_61handle_payment_success_db_failure_logs_critical_without_panic
FNDA:1,_RNvNtNtNtCsawjdjYzw0zz_7mostrod3app7dev_fee5testss_64handle_payment_success_warns_on_hash_mismatch_and_uses_lnd_value
FNDA:0,_RNCNCNvNtNtCsawjdjYzw0zz_7mostrod3app7dev_fee20send_dev_fee_payment00B9_
FNDA:0,_RNCNCNvNtNtCsawjdjYzw0zz_7mostrod3app7dev_fee20send_dev_fee_payment0s0_0B9_
FNDA:0,_RNCNCNvNtNtCsawjdjYzw0zz_7mostrod3app7dev_fee20send_dev_fee_payment0s1_0B9_
FNDA:1,_RNCNCNvNtNtCsawjdjYzw0zz_7mostrod3app7dev_fee20send_dev_fee_payment0s_0B9_
FNDA:0,_RNCNCNvNtNtCsawjdjYzw0zz_7mostrod3app7dev_fee23resolve_dev_fee_invoice00B9_
FNDA:0,_RNCNCNvNtNtCsawjdjYzw0zz_7mostrod3app7dev_fee23resolve_dev_fee_invoice0s_0B9_
FNDA:1,_RNCNCNvNtNtCsawjdjYzw0zz_7mostrod3app7dev_fee27try_claim_order_for_dev_fee00B9_
FNDA:0,_RNCNCNvNtNtCsawjdjYzw0zz_7mostrod3app7dev_fee29cleanup_stale_pending_markers00B9_
FNDA:5,_RNCNCNvNtNtCsawjdjYzw0zz_7mostrod3app7dev_fee29cleanup_stale_pending_markers0s_0B9_
FNDA:1,_RNCNvNtNtCsawjdjYzw0zz_7mostrod3app7dev_fee17run_dev_fee_cycle0B7_
FNDA:2,_RNCNvNtNtCsawjdjYzw0zz_7mostrod3app7dev_fee20send_dev_fee_payment0B7_
FNDA:3,_RNCNvNtNtCsawjdjYzw0zz_7mostrod3app7dev_fee21release_pending_claim0B7_
FNDA:2,_RNCNvNtNtCsawjdjYzw0zz_7mostrod3app7dev_fee22handle_payment_failure0B7_
FNDA:5,_RNCNvNtNtCsawjdjYzw0zz_7mostrod3app7dev_fee22handle_payment_success0B7_
FNDA:2,_RNCNvNtNtCsawjdjYzw0zz_7mostrod3app7dev_fee22handle_payment_timeout0B7_
FNDA:8,_RNCNvNtNtCsawjdjYzw0zz_7mostrod3app7dev_fee23parse_pending_timestamp0B7_
FNDA:1,_RNCNvNtNtCsawjdjYzw0zz_7mostrod3app7dev_fee23resolve_dev_fee_invoice0B7_
FNDA:3,_RNCNvNtNtCsawjdjYzw0zz_7mostrod3app7dev_fee23verify_confirmed_orders0B7_
FNDA:3,_RNCNvNtNtCsawjdjYzw0zz_7mostrod3app7dev_fee24recover_partial_payments0B7_
FNDA:6,_RNCNvNtNtCsawjdjYzw0zz_7mostrod3app7dev_fee27try_claim_order_for_dev_fee0B7_
FNDA:5,_RNCNvNtNtCsawjdjYzw0zz_7mostrod3app7dev_fee28check_dev_fee_payment_status0B7_
FNDA:3,_RNCNvNtNtCsawjdjYzw0zz_7mostrod3app7dev_fee28process_new_dev_fee_payments0B7_
FNDA:6,_RNCNvNtNtCsawjdjYzw0zz_7mostrod3app7dev_fee29cleanup_stale_pending_markers0B7_
FNDA:1,_RNvNtNtCsawjdjYzw0zz_7mostrod3app7dev_fee17run_dev_fee_cycle
FNDA:2,_RNvNtNtCsawjdjYzw0zz_7mostrod3app7dev_fee20send_dev_fee_payment
FNDA:3,_RNvNtNtCsawjdjYzw0zz_7mostrod3app7dev_fee21release_pending_claim
FNDA:2,_RNvNtNtCsawjdjYzw0zz_7mostrod3app7dev_fee22handle_payment_failure
FNDA:5,_RNvNtNtCsawjdjYzw0zz_7mostrod3app7dev_fee22handle_payment_success
FNDA:2,_RNvNtNtCsawjdjYzw0zz_7mostrod3app7dev_fee22handle_payment_timeout
FNDA:16,_RNvNtNtCsawjdjYzw0zz_7mostrod3app7dev_fee23parse_pending_timestamp
FNDA:1,_RNvNtNtCsawjdjYzw0zz_7mostrod3app7dev_fee23resolve_dev_fee_invoice
FNDA:3,_RNvNtNtCsawjdjYzw0zz_7mostrod3app7dev_fee23verify_confirmed_orders
FNDA:3,_RNvNtNtCsawjdjYzw0zz_7mostrod3app7dev_fee24recover_partial_payments
FNDA:6,_RNvNtNtCsawjdjYzw0zz_7mostrod3app7dev_fee27try_claim_order_for_dev_fee
FNDA:5,_RNvNtNtCsawjdjYzw0zz_7mostrod3app7dev_fee28check_dev_fee_payment_status
FNDA:3,_RNvNtNtCsawjdjYzw0zz_7mostrod3app7dev_fee28process_new_dev_fee_payments
FNDA:6,_RNvNtNtCsawjdjYzw0zz_7mostrod3app7dev_fee29cleanup_stale_pending_markers
FNF:110
FNH:104
DA:86,1
DA:87,1
DA:88,1
DA:89,1
DA:90,1
DA:91,1
DA:93,1
DA:94,1
DA:95,1
DA:96,1
DA:97,1
DA:103,6
DA:105,6
DA:107,6
DA:110,6
DA:111,6
DA:113,5
DA:114,1
DA:115,1
DA:116,1
DA:120,5
DA:122,6
DA:123,6
DA:124,6
DA:125,6
DA:126,6
DA:127,6
DA:129,6
DA:131,6
DA:132,1
DA:134,5
DA:138,5
DA:142,6
DA:143,1
DA:144,5
DA:146,5
DA:147,5
DA:148,5
DA:149,5
DA:151,5
DA:157,5
DA:162,5
DA:163,5
DA:164,5
DA:165,5
DA:167,4
DA:168,4
DA:169,3
DA:174,1
DA:180,1
DA:181,1
DA:189,5
DA:190,4
DA:194,1
DA:195,6
DA:202,3
DA:203,3
DA:204,3
DA:205,3
DA:206,3
DA:207,3
DA:214,3
DA:215,3
DA:217,2
DA:218,1
DA:219,1
DA:220,1
DA:224,3
DA:225,3
DA:227,3
DA:228,1
DA:229,2
DA:231,2
DA:232,0
DA:233,0
DA:234,0
DA:240,0
DA:247,2
DA:250,3
DA:258,3
DA:259,3
DA:260,3
DA:261,3
DA:262,3
DA:263,3
DA:272,3
DA:273,3
DA:275,2
DA:276,1
DA:277,1
DA:278,1
DA:282,2
DA:283,1
DA:284,1
DA:286,1
DA:291,1
DA:293,0
DA:298,0
DA:303,0
DA:304,0
DA:305,0
DA:306,0
DA:308,0
DA:309,0
DA:310,0
DA:311,0
DA:312,0
DA:313,0
DA:314,0
DA:315,0
DA:317,0
DA:318,0
DA:320,0
DA:324,0
DA:325,0
DA:328,0
DA:331,0
DA:332,0
DA:333,0
DA:335,0
DA:336,0
DA:337,0
DA:338,0
DA:341,0
DA:342,0
DA:350,0
DA:355,0
DA:360,0
DA:361,0
DA:362,0
DA:363,0
DA:365,0
DA:369,0
DA:372,0
DA:378,1
DA:385,3
DA:391,3
DA:392,3
DA:393,3
DA:394,3
DA:395,3
DA:396,3
DA:397,2
DA:398,1
DA:399,1
DA:400,1
DA:403,2
DA:405,2
DA:406,1
DA:409,1
DA:410,1
DA:412,1
DA:414,0
DA:418,0
DA:420,1
DA:421,1
DA:425,1
DA:428,0
DA:433,0
DA:435,0
DA:436,0
DA:437,0
DA:439,0
DA:441,0
DA:442,0
DA:443,0
DA:447,0
DA:448,0
DA:451,0
DA:455,0
DA:456,0
DA:463,0
DA:468,0
DA:473,0
DA:474,0
DA:475,0
DA:476,0
DA:477,0
DA:479,0
DA:480,0
DA:484,0
DA:485,0
DA:487,0
DA:490,0
DA:491,0
DA:495,0
DA:496,0
DA:498,0
DA:499,0
DA:500,0
DA:501,0
DA:503,0
DA:504,0
DA:508,0
DA:510,0
DA:511,0
DA:512,0
DA:517,0
DA:518,0
DA:519,0
DA:521,0
DA:523,0
DA:524,0
DA:526,0
DA:527,0
DA:530,0
DA:534,3
DA:538,5
DA:539,5
DA:540,5
DA:541,5
DA:542,5
DA:543,5
DA:544,5
DA:545,5
DA:547,5
DA:548,4
DA:552,4
DA:553,1
DA:555,5
DA:557,5
DA:559,5
DA:564,5
DA:565,5
DA:566,5
DA:567,5
DA:569,1
DA:570,1
DA:574,1
DA:575,1
DA:576,1
DA:577,1
DA:579,4
DA:580,4
DA:582,1
DA:583,1
DA:584,1
DA:585,1
DA:586,1
DA:588,1
DA:589,1
DA:590,1
DA:591,0
DA:592,1
DA:593,3
DA:594,3
DA:595,3
DA:596,3
DA:598,3
DA:599,3
DA:600,3
DA:601,3
DA:602,3
DA:604,3
DA:611,3
DA:612,3
DA:616,0
DA:617,0
DA:620,5
DA:622,2
DA:623,2
DA:624,2
DA:625,2
DA:626,2
DA:627,2
DA:631,2
DA:635,2
DA:640,2
DA:645,2
DA:646,2
DA:647,2
DA:649,1
DA:653,1
DA:654,2
DA:656,2
DA:657,2
DA:658,2
DA:659,2
DA:660,2
DA:661,2
DA:662,2
DA:663,2
DA:664,2
DA:669,2
DA:671,0
DA:675,0
DA:680,0
DA:681,0
DA:682,0
DA:683,0
DA:685,0
DA:689,0
DA:690,0
DA:693,0
DA:699,0
DA:704,0
DA:709,0
DA:710,0
DA:711,0
DA:712,0
DA:714,0
DA:718,0
DA:721,2
DA:727,2
DA:733,3
DA:734,3
DA:738,3
DA:739,3
DA:740,3
DA:741,3
DA:743,1
DA:747,2
DA:748,3
DA:765,5
DA:766,5
DA:767,5
DA:768,5
DA:771,5
DA:772,5
DA:774,1
DA:778,1
DA:783,4
DA:784,3
DA:785,1
DA:786,1
DA:790,1
DA:794,3
DA:795,3
DA:796,3
DA:798,3
DA:800,0
DA:801,0
DA:802,0
DA:803,0
DA:804,0
DA:806,3
DA:807,3
DA:811,3
DA:814,0
DA:818,0
DA:821,5
DA:831,6
DA:832,6
DA:833,6
DA:834,6
DA:835,6
DA:836,6
DA:837,6
DA:838,6
DA:839,6
DA:840,6
DA:841,6
DA:842,6
DA:843,6
DA:844,6
DA:845,6
DA:846,6
DA:847,6
DA:848,6
DA:850,5
DA:851,6
DA:860,16
DA:861,16
DA:865,13
DA:866,3
DA:867,10
DA:869,10
DA:870,1
DA:871,9
DA:873,9
DA:874,9
DA:875,16
DA:886,1
DA:887,1
DA:892,1
DA:893,1
DA:894,0
DA:896,0
DA:897,0
DA:898,0
DA:899,0
DA:900,0
DA:901,0
DA:902,0
DA:906,0
DA:907,0
DA:908,0
DA:909,0
DA:913,0
DA:914,0
DA:916,0
DA:917,0
DA:921,0
DA:922,0
DA:924,0
DA:925,0
DA:927,0
DA:932,0
DA:933,1
DA:945,2
DA:946,2
DA:947,2
DA:948,2
DA:949,2
DA:952,2
DA:957,2
DA:958,1
DA:959,1
DA:961,1
DA:963,1
DA:964,1
DA:965,1
DA:966,1
DA:967,1
DA:968,1
DA:969,0
DA:973,0
DA:974,0
DA:975,0
DA:976,0
DA:977,1
DA:978,1
DA:982,1
DA:983,1
DA:985,0
DA:986,0
DA:987,0
DA:988,0
DA:990,0
DA:993,0
DA:997,0
DA:998,0
DA:999,0
DA:1000,0
DA:1002,0
DA:1004,0
DA:1006,0
DA:1010,0
DA:1011,0
DA:1012,0
DA:1013,0
DA:1014,0
DA:1015,0
DA:1016,0
DA:1020,0
DA:1021,0
DA:1023,0
DA:1027,0
DA:1028,2
DA:1044,29
DA:1045,29
DA:1046,29
DA:1047,29
DA:1048,29
DA:1049,29
DA:1050,29
DA:1051,29
DA:1052,29
DA:1053,29
DA:1054,29
DA:1055,29
DA:1056,29
DA:1057,29
DA:1058,29
DA:1059,29
DA:1060,29
DA:1061,29
DA:1062,29
DA:1063,29
DA:1065,29
DA:1066,29
DA:1067,29
DA:1068,29
DA:1069,29
DA:1070,29
DA:1071,29
DA:1073,29
DA:1074,29
DA:1075,29
DA:1076,29
DA:1077,29
DA:1078,29
DA:1079,29
DA:1080,29
DA:1081,29
DA:1082,29
DA:1083,29
DA:1084,29
DA:1085,29
DA:1086,29
DA:1088,29
DA:1089,29
DA:1091,29
DA:1092,29
DA:1093,29
DA:1094,29
DA:1095,29
DA:1096,29
DA:1097,29
DA:1098,29
DA:1099,29
DA:1100,29
DA:1101,29
DA:1102,29
DA:1103,29
DA:1104,29
DA:1105,29
DA:1106,29
DA:1107,29
DA:1108,29
DA:1109,29
DA:1110,29
DA:1111,29
DA:1112,29
DA:1113,29
DA:1114,29
DA:1115,29
DA:1118,1
DA:1119,1
DA:1120,1
DA:1121,1
DA:1123,1
DA:1124,1
DA:1125,1
DA:1126,1
DA:1128,1
DA:1129,1
DA:1130,1
DA:1131,1
DA:1132,1
DA:1133,1
DA:1134,1
DA:1135,1
DA:1138,1
DA:1139,1
DA:1140,1
DA:1141,1
DA:1142,1
DA:1143,1
DA:1144,1
DA:1145,1
DA:1146,1
DA:1147,1
DA:1148,1
DA:1149,1
DA:1151,1
DA:1152,1
DA:1153,1
DA:1154,1
DA:1155,1
DA:1159,1
DA:1160,1
DA:1161,1
DA:1162,1
DA:1163,1
DA:1164,1
DA:1165,1
DA:1166,1
DA:1169,1
DA:1170,1
DA:1171,1
DA:1172,1
DA:1174,1
DA:1175,1
DA:1176,1
DA:1177,1
DA:1178,1
DA:1181,1
DA:1182,1
DA:1183,1
DA:1185,1
DA:1186,1
DA:1187,1
DA:1188,1
DA:1189,1
DA:1192,1
DA:1193,1
DA:1194,1
DA:1195,1
DA:1197,1
DA:1198,1
DA:1199,1
DA:1200,1
DA:1201,1
DA:1204,1
DA:1205,1
DA:1206,1
DA:1207,1
DA:1210,1
DA:1211,1
DA:1212,1
DA:1213,1
DA:1216,1
DA:1217,1
DA:1218,1
DA:1219,1
DA:1222,1
DA:1223,1
DA:1224,1
DA:1225,1
DA:1228,1
DA:1229,1
DA:1230,1
DA:1231,1
DA:1234,1
DA:1235,1
DA:1236,1
DA:1237,1
DA:1240,1
DA:1244,1
DA:1245,1
DA:1246,1
DA:1249,1
DA:1250,1
DA:1251,1
DA:1252,1
DA:1253,1
DA:1254,1
DA:1255,1
DA:1256,1
DA:1259,1
DA:1260,1
DA:1261,1
DA:1262,1
DA:1264,1
DA:1265,1
DA:1266,1
DA:1267,1
DA:1268,1
DA:1269,1
DA:1270,1
DA:1271,1
DA:1272,1
DA:1273,1
DA:1274,1
DA:1275,1
DA:1276,1
DA:1277,1
DA:1278,1
DA:1279,1
DA:1280,1
DA:1281,1
DA:1283,1
DA:1285,1
DA:1286,1
DA:1287,1
DA:1288,1
DA:1289,1
DA:1290,1
DA:1291,1
DA:1292,1
DA:1293,1
DA:1297,1
DA:1298,1
DA:1299,1
DA:1300,1
DA:1301,1
DA:1302,1
DA:1303,1
DA:1304,1
DA:1305,1
DA:1308,1
DA:1309,1
DA:1310,1
DA:1311,1
DA:1312,1
DA:1313,1
DA:1314,1
DA:1315,1
DA:1316,1
DA:1317,1
DA:1318,1
DA:1319,1
DA:1322,1
DA:1323,1
DA:1324,1
DA:1325,1
DA:1326,1
DA:1327,1
DA:1328,1
DA:1329,1
DA:1332,1
DA:1333,1
DA:1334,1
DA:1335,1
DA:1336,1
DA:1337,1
DA:1338,1
DA:1339,1
DA:1340,1
DA:1343,1
DA:1346,1
DA:1347,1
DA:1348,1
DA:1349,1
DA:1350,1
DA:1351,1
DA:1352,1
DA:1353,1
DA:1354,1
DA:1355,1
DA:1357,1
DA:1359,1
DA:1360,1
DA:1361,1
DA:1362,1
DA:1363,1
DA:1364,1
DA:1365,1
DA:1366,1
DA:1367,1
DA:1368,1
DA:1369,1
DA:1370,1
DA:1373,1
DA:1376,1
DA:1377,1
DA:1378,1
DA:1380,1
DA:1381,1
DA:1382,1
DA:1383,1
DA:1384,1
DA:1386,1
DA:1387,1
DA:1389,1
DA:1390,1
DA:1391,1
DA:1392,1
DA:1393,1
DA:1394,1
DA:1396,1
DA:1397,1
DA:1398,1
DA:1399,1
DA:1402,1
DA:1406,1
DA:1407,1
DA:1408,1
DA:1409,1
DA:1410,1
DA:1411,1
DA:1412,1
DA:1413,1
DA:1414,1
DA:1415,1
DA:1416,1
DA:1418,1
DA:1419,1
DA:1420,1
DA:1421,1
DA:1422,1
DA:1424,1
DA:1425,1
DA:1426,1
DA:1428,1
DA:1430,1
DA:1431,1
DA:1432,1
DA:1433,1
DA:1434,1
DA:1435,1
DA:1437,1
DA:1438,1
DA:1439,1
DA:1442,1
DA:1445,1
DA:1446,1
DA:1449,1
DA:1450,1
DA:1451,1
DA:1452,1
DA:1453,1
DA:1454,1
DA:1455,1
DA:1456,1
DA:1457,1
DA:1460,1
DA:1461,1
DA:1462,1
DA:1463,1
DA:1464,1
DA:1467,1
DA:1468,1
DA:1469,1
DA:1470,1
DA:1471,1
DA:1474,1
DA:1475,1
DA:1477,1
DA:1478,1
DA:1479,1
DA:1480,1
DA:1481,1
DA:1482,1
DA:1483,1
DA:1485,1
DA:1489,1
DA:1490,1
DA:1491,1
DA:1492,1
DA:1506,9
DA:1507,9
DA:1508,9
DA:1509,9
DA:1510,9
DA:1511,9
DA:1512,9
DA:1513,9
DA:1514,9
DA:1515,9
DA:1516,9
DA:1517,9
DA:1518,9
DA:1519,9
DA:1520,9
DA:1521,9
DA:1524,1
DA:1529,1
DA:1530,1
DA:1531,1
DA:1532,1
DA:1533,1
DA:1534,1
DA:1535,1
DA:1536,1
DA:1537,1
DA:1538,1
DA:1539,1
DA:1540,1
DA:1541,1
DA:1542,1
DA:1543,1
DA:1548,1
DA:1549,1
DA:1550,1
DA:1551,1
DA:1552,1
DA:1553,1
DA:1554,1
DA:1557,1
DA:1560,1
DA:1561,1
DA:1562,1
DA:1563,1
DA:1564,1
DA:1565,1
DA:1566,1
DA:1567,1
DA:1568,1
DA:1569,1
DA:1570,1
DA:1572,1
DA:1574,1
DA:1575,1
DA:1576,1
DA:1577,1
DA:1578,1
DA:1579,1
DA:1580,1
DA:1581,1
DA:1582,1
DA:1585,1
DA:1588,1
DA:1589,1
DA:1590,1
DA:1591,1
DA:1592,1
DA:1593,1
DA:1594,1
DA:1595,1
DA:1596,1
DA:1597,1
DA:1598,1
DA:1599,1
DA:1600,1
DA:1601,1
DA:1602,1
DA:1603,1
DA:1604,1
DA:1605,1
DA:1606,1
DA:1607,1
DA:1608,1
DA:1609,1
DA:1610,1
DA:1611,1
DA:1612,1
DA:1613,1
DA:1616,1
DA:1617,1
DA:1618,1
DA:1619,1
DA:1620,1
DA:1621,1
DA:1622,1
DA:1625,1
DA:1633,1
DA:1634,1
DA:1635,1
DA:1637,1
DA:1638,1
DA:1639,1
DA:1640,1
DA:1641,1
DA:1642,1
DA:1643,1
DA:1644,1
DA:1645,1
DA:1646,1
DA:1647,1
DA:1648,1
DA:1649,1
DA:1650,1
DA:1651,1
DA:1652,1
DA:1653,1
DA:1654,1
DA:1656,1
DA:1657,1
DA:1658,1
DA:1659,1
DA:1660,1
DA:1661,1
DA:1662,1
DA:1663,1
DA:1664,1
DA:1665,1
DA:1666,1
DA:1668,1
DA:1670,1
DA:1671,1
DA:1672,1
DA:1673,1
DA:1674,1
DA:1675,1
DA:1676,1
DA:1678,1
DA:1679,1
DA:1680,1
DA:1681,1
DA:1682,1
DA:1683,1
DA:1684,1
DA:1685,1
DA:1689,1
DA:1690,1
DA:1693,1
DA:1694,1
DA:1695,1
DA:1696,1
DA:1697,1
DA:1698,1
DA:1699,1
DA:1700,1
DA:1701,1
DA:1702,1
DA:1703,1
DA:1704,1
DA:1705,1
DA:1706,1
DA:1707,1
DA:1709,1
DA:1711,1
DA:1712,1
DA:1713,1
DA:1714,1
DA:1717,1
DA:1718,1
DA:1719,1
DA:1722,1
DA:1723,1
DA:1724,1
DA:1725,1
DA:1726,1
DA:1727,1
DA:1730,1
DA:1733,1
DA:1734,1
DA:1735,1
DA:1737,1
DA:1738,1
DA:1739,1
DA:1741,1
DA:1742,1
DA:1743,1
DA:1744,1
DA:1745,1
DA:1746,1
DA:1747,1
DA:1748,1
DA:1749,1
DA:1752,1
DA:1753,1
DA:1754,1
DA:1755,1
DA:1756,1
DA:1757,1
DA:1760,1
DA:1761,1
DA:1762,1
DA:1763,1
DA:1764,1
DA:1765,1
DA:1766,1
DA:1767,1
DA:1768,1
DA:1769,1
DA:1771,1
DA:1772,1
DA:1773,1
DA:1775,1
DA:1776,1
DA:1777,1
DA:1778,1
DA:1779,1
DA:1780,1
DA:1781,1
DA:1782,1
DA:1783,1
DA:1786,1
DA:1789,1
DA:1790,1
DA:1791,1
DA:1792,1
DA:1793,1
DA:1794,1
DA:1795,1
DA:1796,1
DA:1797,1
DA:1799,1
DA:1800,1
DA:1801,1
DA:1802,1
DA:1803,1
DA:1806,1
DA:1810,1
DA:1811,1
DA:1812,1
DA:1813,1
DA:1814,1
DA:1815,1
DA:1816,1
DA:1817,1
DA:1818,1
DA:1819,1
DA:1821,1
DA:1822,1
DA:1823,1
DA:1825,1
DA:1826,1
DA:1827,1
DA:1828,1
DA:1829,1
DA:1830,1
DA:1831,1
DA:1832,1
DA:1833,1
DA:1834,1
DA:1837,1
DA:1838,1
DA:1839,1
DA:1840,1
DA:1841,1
DA:1842,1
DA:1843,1
DA:1844,1
DA:1845,1
DA:1846,1
DA:1847,1
DA:1850,1
DA:1851,1
DA:1852,1
DA:1853,1
DA:1854,1
DA:1855,1
DA:1856,1
DA:1857,1
DA:1858,1
DA:1859,1
DA:1861,1
DA:1862,1
DA:1864,1
DA:1865,1
DA:1866,1
DA:1867,1
DA:1868,1
DA:1869,1
DA:1870,1
DA:1871,1
DA:1872,1
DA:1873,1
DA:1876,1
DA:1880,1
DA:1881,1
DA:1882,1
DA:1883,1
DA:1884,1
DA:1885,1
DA:1886,1
DA:1887,1
DA:1888,1
DA:1890,1
DA:1892,1
DA:1893,1
DA:1894,1
DA:1895,1
DA:1898,1
DA:1899,1
DA:1900,1
DA:1901,1
DA:1902,1
DA:1903,1
DA:1904,1
DA:1905,1
DA:1906,1
DA:1907,1
DA:1908,1
DA:1909,1
DA:1910,1
DA:1911,1
DA:1912,1
DA:1913,1
DA:1914,1
DA:1916,1
DA:1917,1
DA:1920,1
DA:1921,1
DA:1924,1
DA:1926,1
DA:1927,1
DA:1928,1
DA:1929,1
DA:1930,1
DA:1931,1
DA:1932,1
DA:1933,1
DA:1934,1
DA:1935,1
DA:1936,1
DA:1937,1
DA:1938,1
DA:1939,1
DA:1940,1
DA:1941,1
DA:1943,1
DA:1944,1
DA:1945,1
DA:1948,1
DA:1949,1
DA:1950,1
DA:1951,1
DA:1952,1
DA:1953,1
DA:1954,1
DA:1955,1
DA:1956,1
DA:1957,1
DA:1958,1
DA:1959,1
DA:1962,1
DA:1963,1
DA:1964,1
DA:1965,1
DA:1966,1
DA:1967,1
DA:1968,1
DA:1969,1
DA:1970,1
DA:1971,1
DA:1972,1
DA:1973,1
DA:1974,1
DA:1975,1
DA:1976,1
DA:1979,1
DA:1984,1
DA:1985,1
DA:1986,1
DA:1987,1
DA:1988,1
DA:1989,1
DA:1990,1
DA:1991,1
DA:1992,1
DA:1993,1
DA:1994,1
DA:1995,1
DA:1996,1
DA:1997,1
BRF:0
BRH:0
LF:1281
LH:1099
end_of_record
SF:/home/runner/work/mostro/mostro/src/app/dispute.rs
FN:193,_RNCNCNvNtNtCsawjdjYzw0zz_7mostrod3app7dispute14dispute_action00B9_
FN:207,_RNCNCNvNtNtCsawjdjYzw0zz_7mostrod3app7dispute14dispute_action0s0_0B9_
FN:210,_RNCNCNvNtNtCsawjdjYzw0zz_7mostrod3app7dispute14dispute_action0s1_0B9_
FN:216,_RNCNCNvNtNtCsawjdjYzw0zz_7mostrod3app7dispute14dispute_action0s2_0B9_
FN:219,_RNCNCNvNtNtCsawjdjYzw0zz_7mostrod3app7dispute14dispute_action0s3_0B9_
FN:235,_RNCNCNvNtNtCsawjdjYzw0zz_7mostrod3app7dispute14dispute_action0s4_0B9_
FN:200,_RNCNCNvNtNtCsawjdjYzw0zz_7mostrod3app7dispute14dispute_action0s_0B9_
FN:59,_RNCNCNvNtNtCsawjdjYzw0zz_7mostrod3app7dispute21publish_dispute_event00B9_
FN:157,_RNCNvNtNtCsawjdjYzw0zz_7mostrod3app7dispute14dispute_action0B7_
FN:99,_RNCNvNtNtCsawjdjYzw0zz_7mostrod3app7dispute15get_valid_order0B7_
FN:25,_RNCNvNtNtCsawjdjYzw0zz_7mostrod3app7dispute21publish_dispute_event0B7_
FN:118,_RNCNvNtNtCsawjdjYzw0zz_7mostrod3app7dispute23notify_dispute_to_users0B7_
FN:258,_RNCNvNtNtCsawjdjYzw0zz_7mostrod3app7dispute35close_dispute_after_user_resolution0B7_
FN:152,_RNvNtNtCsawjdjYzw0zz_7mostrod3app7dispute14dispute_action
FN:99,_RNvNtNtCsawjdjYzw0zz_7mostrod3app7dispute15get_valid_order
FN:86,_RNvNtNtCsawjdjYzw0zz_7mostrod3app7dispute20get_counterpart_info
FN:20,_RNvNtNtCsawjdjYzw0zz_7mostrod3app7dispute21publish_dispute_event
FN:112,_RNvNtNtCsawjdjYzw0zz_7mostrod3app7dispute23notify_dispute_to_users
FN:252,_RNvNtNtCsawjdjYzw0zz_7mostrod3app7dispute35close_dispute_after_user_resolution
FN:668,_RNCNCNvNtNtNtCsawjdjYzw0zz_7mostrod3app7dispute5testss_55dispute_action_seller_initiated_flow_on_fiat_sent_order00Bb_
FN:674,_RNCNCNvNtNtNtCsawjdjYzw0zz_7mostrod3app7dispute5testss_55dispute_action_seller_initiated_flow_on_fiat_sent_order0s0_0Bb_
FN:671,_RNCNCNvNtNtNtCsawjdjYzw0zz_7mostrod3app7dispute5testss_55dispute_action_seller_initiated_flow_on_fiat_sent_order0s_0Bb_
FN:620,_RNCNCNvNtNtNtCsawjdjYzw0zz_7mostrod3app7dispute5testss_65dispute_action_buyer_initiated_flow_persists_dispute_and_notifies00Bb_
FN:626,_RNCNCNvNtNtNtCsawjdjYzw0zz_7mostrod3app7dispute5testss_65dispute_action_buyer_initiated_flow_persists_dispute_and_notifies0s0_0Bb_
FN:623,_RNCNCNvNtNtNtCsawjdjYzw0zz_7mostrod3app7dispute5testss_65dispute_action_buyer_initiated_flow_persists_dispute_and_notifies0s_0Bb_
FN:380,_RNCNvNtNtNtCsawjdjYzw0zz_7mostrod3app7dispute5tests12create_order0B9_
FN:382,_RNCNvNtNtNtCsawjdjYzw0zz_7mostrod3app7dispute5tests12create_orders0_0B9_
FN:381,_RNCNvNtNtNtCsawjdjYzw0zz_7mostrod3app7dispute5tests12create_orders_0B9_
FN:345,_RNCNvNtNtNtCsawjdjYzw0zz_7mostrod3app7dispute5tests16create_test_pool0B9_
FN:520,_RNCNvNtNtNtCsawjdjYzw0zz_7mostrod3app7dispute5testss_49dispute_action_rejects_order_missing_buyer_pubkey0B9_
FN:546,_RNCNvNtNtNtCsawjdjYzw0zz_7mostrod3app7dispute5testss_49dispute_action_rejects_sender_that_is_not_a_party0B9_
FN:406,_RNCNvNtNtNtCsawjdjYzw0zz_7mostrod3app7dispute5testss_49dispute_action_without_order_id_returns_not_found0B9_
FN:494,_RNCNvNtNtNtCsawjdjYzw0zz_7mostrod3app7dispute5testss_50dispute_action_rejects_order_missing_seller_pubkey0B9_
FN:418,_RNCNvNtNtNtCsawjdjYzw0zz_7mostrod3app7dispute5testss_54dispute_action_with_unknown_order_id_returns_not_found0B9_
FN:436,_RNCNvNtNtNtCsawjdjYzw0zz_7mostrod3app7dispute5testss_55dispute_action_rejects_order_that_already_has_a_dispute0B9_
FN:467,_RNCNvNtNtNtCsawjdjYzw0zz_7mostrod3app7dispute5testss_55dispute_action_rejects_order_with_non_disputable_status0B9_
FN:632,_RNCNvNtNtNtCsawjdjYzw0zz_7mostrod3app7dispute5testss_55dispute_action_seller_initiated_flow_on_fiat_sent_order0B9_
FN:704,_RNCNvNtNtNtCsawjdjYzw0zz_7mostrod3app7dispute5testss_58close_dispute_after_user_resolution_updates_dispute_status0B9_
FN:734,_RNCNvNtNtNtCsawjdjYzw0zz_7mostrod3app7dispute5testss_62close_dispute_after_user_resolution_handles_inconsistent_flags0B9_
FN:680,_RNCNvNtNtNtCsawjdjYzw0zz_7mostrod3app7dispute5testss_63close_dispute_after_user_resolution_is_noop_without_dispute_row0B9_
FN:580,_RNCNvNtNtNtCsawjdjYzw0zz_7mostrod3app7dispute5testss_65dispute_action_buyer_initiated_flow_persists_dispute_and_notifies0B9_
FN:364,_RNvNtNtNtCsawjdjYzw0zz_7mostrod3app7dispute5tests12create_event
FN:374,_RNvNtNtNtCsawjdjYzw0zz_7mostrod3app7dispute5tests12create_order
FN:388,_RNvNtNtNtCsawjdjYzw0zz_7mostrod3app7dispute5tests15dispute_msg_for
FN:345,_RNvNtNtNtCsawjdjYzw0zz_7mostrod3app7dispute5tests16create_test_pool
FN:351,_RNvNtNtNtCsawjdjYzw0zz_7mostrod3app7dispute5tests9build_ctx
FN:520,_RNvNtNtNtCsawjdjYzw0zz_7mostrod3app7dispute5testss_49dispute_action_rejects_order_missing_buyer_pubkey
FN:546,_RNvNtNtNtCsawjdjYzw0zz_7mostrod3app7dispute5testss_49dispute_action_rejects_sender_that_is_not_a_party
FN:406,_RNvNtNtNtCsawjdjYzw0zz_7mostrod3app7dispute5testss_49dispute_action_without_order_id_returns_not_found
FN:494,_RNvNtNtNtCsawjdjYzw0zz_7mostrod3app7dispute5testss_50dispute_action_rejects_order_missing_seller_pubkey
FN:418,_RNvNtNtNtCsawjdjYzw0zz_7mostrod3app7dispute5testss_54dispute_action_with_unknown_order_id_returns_not_found
FN:436,_RNvNtNtNtCsawjdjYzw0zz_7mostrod3app7dispute5testss_55dispute_action_rejects_order_that_already_has_a_dispute
FN:467,_RNvNtNtNtCsawjdjYzw0zz_7mostrod3app7dispute5testss_55dispute_action_rejects_order_with_non_disputable_status
FN:632,_RNvNtNtNtCsawjdjYzw0zz_7mostrod3app7dispute5testss_55dispute_action_seller_initiated_flow_on_fiat_sent_order
FN:704,_RNvNtNtNtCsawjdjYzw0zz_7mostrod3app7dispute5testss_58close_dispute_after_user_resolution_updates_dispute_status
FN:734,_RNvNtNtNtCsawjdjYzw0zz_7mostrod3app7dispute5testss_62close_dispute_after_user_resolution_handles_inconsistent_flags
FN:393,_RNvNtNtNtCsawjdjYzw0zz_7mostrod3app7dispute5testss_62get_counterpart_info_identifies_initiator_and_rejects_stranger
FN:680,_RNvNtNtNtCsawjdjYzw0zz_7mostrod3app7dispute5testss_63close_dispute_after_user_resolution_is_noop_without_dispute_row
FN:580,_RNvNtNtNtCsawjdjYzw0zz_7mostrod3app7dispute5testss_65dispute_action_buyer_initiated_flow_persists_dispute_and_notifies
FNDA:0,_RNCNCNvNtNtCsawjdjYzw0zz_7mostrod3app7dispute14dispute_action00B9_
FNDA:0,_RNCNCNvNtNtCsawjdjYzw0zz_7mostrod3app7dispute14dispute_action0s0_0B9_
FNDA:0,_RNCNCNvNtNtCsawjdjYzw0zz_7mostrod3app7dispute14dispute_action0s1_0B9_
FNDA:0,_RNCNCNvNtNtCsawjdjYzw0zz_7mostrod3app7dispute14dispute_action0s2_0B9_
FNDA:0,_RNCNCNvNtNtCsawjdjYzw0zz_7mostrod3app7dispute14dispute_action0s3_0B9_
FNDA:2,_RNCNCNvNtNtCsawjdjYzw0zz_7mostrod3app7dispute14dispute_action0s4_0B9_
FNDA:0,_RNCNCNvNtNtCsawjdjYzw0zz_7mostrod3app7dispute14dispute_action0s_0B9_
FNDA:0,_RNCNCNvNtNtCsawjdjYzw0zz_7mostrod3app7dispute21publish_dispute_event00B9_
FNDA:10,_RNCNvNtNtCsawjdjYzw0zz_7mostrod3app7dispute14dispute_action0B7_
FNDA:8,_RNCNvNtNtCsawjdjYzw0zz_7mostrod3app7dispute15get_valid_order0B7_
FNDA:2,_RNCNvNtNtCsawjdjYzw0zz_7mostrod3app7dispute21publish_dispute_event0B7_
FNDA:2,_RNCNvNtNtCsawjdjYzw0zz_7mostrod3app7dispute23notify_dispute_to_users0B7_
FNDA:8,_RNCNvNtNtCsawjdjYzw0zz_7mostrod3app7dispute35close_dispute_after_user_resolution0B7_
FNDA:10,_RNvNtNtCsawjdjYzw0zz_7mostrod3app7dispute14dispute_action
FNDA:8,_RNvNtNtCsawjdjYzw0zz_7mostrod3app7dispute15get_valid_order
FNDA:6,_RNvNtNtCsawjdjYzw0zz_7mostrod3app7dispute20get_counterpart_info
FNDA:2,_RNvNtNtCsawjdjYzw0zz_7mostrod3app7dispute21publish_dispute_event
FNDA:2,_RNvNtNtCsawjdjYzw0zz_7mostrod3app7dispute23notify_dispute_to_users
FNDA:8,_RNvNtNtCsawjdjYzw0zz_7mostrod3app7dispute35close_dispute_after_user_resolution
FNDA:45,_RNCNCNvNtNtNtCsawjdjYzw0zz_7mostrod3app7dispute5testss_55dispute_action_seller_initiated_flow_on_fiat_sent_order00Bb_
FNDA:2,_RNCNCNvNtNtNtCsawjdjYzw0zz_7mostrod3app7dispute5testss_55dispute_action_seller_initiated_flow_on_fiat_sent_order0s0_0Bb_
FNDA:1,_RNCNCNvNtNtNtCsawjdjYzw0zz_7mostrod3app7dispute5testss_55dispute_action_seller_initiated_flow_on_fiat_sent_order0s_0Bb_
FNDA:43,_RNCNCNvNtNtNtCsawjdjYzw0zz_7mostrod3app7dispute5testss_65dispute_action_buyer_initiated_flow_persists_dispute_and_notifies00Bb_
FNDA:2,_RNCNCNvNtNtNtCsawjdjYzw0zz_7mostrod3app7dispute5testss_65dispute_action_buyer_initiated_flow_persists_dispute_and_notifies0s0_0Bb_
FNDA:1,_RNCNCNvNtNtNtCsawjdjYzw0zz_7mostrod3app7dispute5testss_65dispute_action_buyer_initiated_flow_persists_dispute_and_notifies0s_0Bb_
FNDA:9,_RNCNvNtNtNtCsawjdjYzw0zz_7mostrod3app7dispute5tests12create_order0B9_
FNDA:9,_RNCNvNtNtNtCsawjdjYzw0zz_7mostrod3app7dispute5tests12create_orders0_0B9_
FNDA:9,_RNCNvNtNtNtCsawjdjYzw0zz_7mostrod3app7dispute5tests12create_orders_0B9_
FNDA:12,_RNCNvNtNtNtCsawjdjYzw0zz_7mostrod3app7dispute5tests16create_test_pool0B9_
FNDA:1,_RNCNvNtNtNtCsawjdjYzw0zz_7mostrod3app7dispute5testss_49dispute_action_rejects_order_missing_buyer_pubkey0B9_
FNDA:1,_RNCNvNtNtNtCsawjdjYzw0zz_7mostrod3app7dispute5testss_49dispute_action_rejects_sender_that_is_not_a_party0B9_
FNDA:1,_RNCNvNtNtNtCsawjdjYzw0zz_7mostrod3app7dispute5testss_49dispute_action_without_order_id_returns_not_found0B9_
FNDA:1,_RNCNvNtNtNtCsawjdjYzw0zz_7mostrod3app7dispute5testss_50dispute_action_rejects_order_missing_seller_pubkey0B9_
FNDA:1,_RNCNvNtNtNtCsawjdjYzw0zz_7mostrod3app7dispute5testss_54dispute_action_with_unknown_order_id_returns_not_found0B9_
FNDA:1,_RNCNvNtNtNtCsawjdjYzw0zz_7mostrod3app7dispute5testss_55dispute_action_rejects_order_that_already_has_a_dispute0B9_
FNDA:1,_RNCNvNtNtNtCsawjdjYzw0zz_7mostrod3app7dispute5testss_55dispute_action_rejects_order_with_non_disputable_status0B9_
FNDA:1,_RNCNvNtNtNtCsawjdjYzw0zz_7mostrod3app7dispute5testss_55dispute_action_seller_initiated_flow_on_fiat_sent_order0B9_
FNDA:1,_RNCNvNtNtNtCsawjdjYzw0zz_7mostrod3app7dispute5testss_58close_dispute_after_user_resolution_updates_dispute_status0B9_
FNDA:1,_RNCNvNtNtNtCsawjdjYzw0zz_7mostrod3app7dispute5testss_62close_dispute_after_user_resolution_handles_inconsistent_flags0B9_
FNDA:1,_RNCNvNtNtNtCsawjdjYzw0zz_7mostrod3app7dispute5testss_63close_dispute_after_user_resolution_is_noop_without_dispute_row0B9_
FNDA:1,_RNCNvNtNtNtCsawjdjYzw0zz_7mostrod3app7dispute5testss_65dispute_action_buyer_initiated_flow_persists_dispute_and_notifies0B9_
FNDA:9,_RNvNtNtNtCsawjdjYzw0zz_7mostrod3app7dispute5tests12create_event
FNDA:10,_RNvNtNtNtCsawjdjYzw0zz_7mostrod3app7dispute5tests12create_order
FNDA:9,_RNvNtNtNtCsawjdjYzw0zz_7mostrod3app7dispute5tests15dispute_msg_for
FNDA:12,_RNvNtNtNtCsawjdjYzw0zz_7mostrod3app7dispute5tests16create_test_pool
FNDA:12,_RNvNtNtNtCsawjdjYzw0zz_7mostrod3app7dispute5tests9build_ctx
FNDA:1,_RNvNtNtNtCsawjdjYzw0zz_7mostrod3app7dispute5testss_49dispute_action_rejects_order_missing_buyer_pubkey
FNDA:1,_RNvNtNtNtCsawjdjYzw0zz_7mostrod3app7dispute5testss_49dispute_action_rejects_sender_that_is_not_a_party
FNDA:1,_RNvNtNtNtCsawjdjYzw0zz_7mostrod3app7dispute5testss_49dispute_action_without_order_id_returns_not_found
FNDA:1,_RNvNtNtNtCsawjdjYzw0zz_7mostrod3app7dispute5testss_50dispute_action_rejects_order_missing_seller_pubkey
FNDA:1,_RNvNtNtNtCsawjdjYzw0zz_7mostrod3app7dispute5testss_54dispute_action_with_unknown_order_id_returns_not_found
FNDA:1,_RNvNtNtNtCsawjdjYzw0zz_7mostrod3app7dispute5testss_55dispute_action_rejects_order_that_already_has_a_dispute
FNDA:1,_RNvNtNtNtCsawjdjYzw0zz_7mostrod3app7dispute5testss_55dispute_action_rejects_order_with_non_disputable_status
FNDA:1,_RNvNtNtNtCsawjdjYzw0zz_7mostrod3app7dispute5testss_55dispute_action_seller_initiated_flow_on_fiat_sent_order
FNDA:1,_RNvNtNtNtCsawjdjYzw0zz_7mostrod3app7dispute5testss_58close_dispute_after_user_resolution_updates_dispute_status
FNDA:1,_RNvNtNtNtCsawjdjYzw0zz_7mostrod3app7dispute5testss_62close_dispute_after_user_resolution_handles_inconsistent_flags
FNDA:1,_RNvNtNtNtCsawjdjYzw0zz_7mostrod3app7dispute5testss_62get_counterpart_info_identifies_initiator_and_rejects_stranger
FNDA:1,_RNvNtNtNtCsawjdjYzw0zz_7mostrod3app7dispute5testss_63close_dispute_after_user_resolution_is_noop_without_dispute_row
FNDA:1,_RNvNtNtNtCsawjdjYzw0zz_7mostrod3app7dispute5testss_65dispute_action_buyer_initiated_flow_persists_dispute_and_notifies
FNF:59
FNH:52
DA:20,2
DA:21,2
DA:22,2
DA:23,2
DA:24,2
DA:25,2
DA:27,2
DA:28,1
DA:29,1
DA:33,2
DA:35,2
DA:36,2
DA:37,2
DA:40,2
DA:41,2
DA:42,2
DA:45,2
DA:46,2
DA:47,2
DA:50,2
DA:51,2
DA:52,2
DA:58,2
DA:59,2
DA:61,2
DA:64,2
DA:65,2
DA:67,0
DA:71,0
DA:73,2
DA:74,2
DA:75,2
DA:78,2
DA:86,6
DA:87,6
DA:88,6
DA:89,4
DA:90,2
DA:92,6
DA:99,8
DA:101,8
DA:104,6
DA:106,1
DA:107,5
DA:109,5
DA:110,8
DA:112,2
DA:113,2
DA:114,2
DA:115,2
DA:116,2
DA:117,2
DA:118,2
DA:120,2
DA:121,2
DA:122,2
DA:123,2
DA:124,2
DA:125,2
DA:126,2
DA:127,2
DA:128,2
DA:131,2
DA:132,2
DA:133,2
DA:134,2
DA:135,2
DA:136,2
DA:137,2
DA:138,2
DA:139,2
DA:141,2
DA:142,2
DA:152,10
DA:153,10
DA:154,10
DA:155,10
DA:156,10
DA:157,10
DA:158,10
DA:159,10
DA:160,9
DA:162,1
DA:165,9
DA:166,1
DA:167,8
DA:169,8
DA:171,5
DA:172,3
DA:173,1
DA:174,1
DA:177,3
DA:179,3
DA:180,2
DA:181,1
DA:185,2
DA:188,2
DA:189,2
DA:190,2
DA:191,2
DA:192,2
DA:193,2
DA:194,0
DA:197,2
DA:198,2
DA:199,2
DA:200,2
DA:203,2
DA:205,1
DA:206,1
DA:207,1
DA:208,1
DA:209,1
DA:210,1
DA:214,1
DA:215,1
DA:216,1
DA:217,1
DA:218,1
DA:219,1
DA:223,2
DA:224,2
DA:225,2
DA:226,2
DA:227,2
DA:228,2
DA:229,2
DA:230,2
DA:233,2
DA:234,2
DA:235,2
DA:237,0
DA:238,10
DA:252,8
DA:253,8
DA:254,8
DA:255,8
DA:256,8
DA:257,8
DA:258,8
DA:259,8
DA:260,8
DA:261,4
DA:262,4
DA:264,4
DA:265,0
DA:272,4
DA:280,4
DA:281,2
DA:282,1
DA:284,1
DA:292,1
DA:297,4
DA:298,4
DA:299,4
DA:300,4
DA:302,4
DA:303,4
DA:304,4
DA:306,4
DA:307,4
DA:308,4
DA:310,4
DA:311,4
DA:312,4
DA:316,4
DA:317,4
DA:318,4
DA:319,4
DA:320,4
DA:321,4
DA:322,0
DA:324,0
DA:325,0
DA:333,4
DA:334,8
DA:345,12
DA:346,12
DA:347,12
DA:348,12
DA:349,12
DA:351,12
DA:354,12
DA:355,12
DA:356,12
DA:357,12
DA:358,12
DA:359,12
DA:364,9
DA:365,9
DA:366,9
DA:367,9
DA:368,9
DA:369,9
DA:370,9
DA:371,9
DA:372,9
DA:374,10
DA:376,10
DA:377,10
DA:378,10
DA:379,10
DA:380,10
DA:381,10
DA:382,10
DA:384,10
DA:386,10
DA:388,9
DA:389,9
DA:390,9
DA:393,1
DA:394,1
DA:395,1
DA:397,1
DA:398,1
DA:399,1
DA:400,1
DA:403,1
DA:406,1
DA:407,1
DA:408,1
DA:409,1
DA:410,1
DA:412,1
DA:414,1
DA:415,1
DA:418,1
DA:419,1
DA:420,1
DA:421,1
DA:422,1
DA:424,1
DA:425,1
DA:426,1
DA:427,1
DA:428,1
DA:429,1
DA:430,1
DA:432,1
DA:433,1
DA:436,1
DA:437,1
DA:438,1
DA:439,1
DA:440,1
DA:442,1
DA:443,1
DA:444,1
DA:445,1
DA:446,1
DA:447,1
DA:448,1
DA:449,1
DA:451,1
DA:452,1
DA:453,1
DA:454,1
DA:455,1
DA:456,1
DA:457,1
DA:458,1
DA:460,1
DA:461,1
DA:462,1
DA:463,1
DA:464,1
DA:467,1
DA:468,1
DA:469,1
DA:470,1
DA:471,1
DA:473,1
DA:474,1
DA:475,1
DA:476,1
DA:478,1
DA:479,1
DA:480,1
DA:481,1
DA:482,1
DA:483,1
DA:484,1
DA:485,1
DA:487,1
DA:488,1
DA:489,1
DA:490,1
DA:491,1
DA:494,1
DA:495,1
DA:496,1
DA:497,1
DA:499,1
DA:500,1
DA:501,1
DA:502,1
DA:504,1
DA:505,1
DA:506,1
DA:507,1
DA:508,1
DA:509,1
DA:510,1
DA:511,1
DA:513,1
DA:514,1
DA:515,1
DA:516,1
DA:517,1
DA:520,1
DA:521,1
DA:522,1
DA:523,1
DA:525,1
DA:526,1
DA:527,1
DA:528,1
DA:530,1
DA:531,1
DA:532,1
DA:533,1
DA:534,1
DA:535,1
DA:536,1
DA:537,1
DA:539,1
DA:540,1
DA:541,1
DA:542,1
DA:543,1
DA:546,1
DA:547,1
DA:548,1
DA:549,1
DA:550,1
DA:552,1
DA:553,1
DA:554,1
DA:555,1
DA:557,1
DA:558,1
DA:559,1
DA:560,1
DA:561,1
DA:562,1
DA:563,1
DA:564,1
DA:565,1
DA:567,1
DA:568,1
DA:569,1
DA:570,1
DA:571,1
DA:580,1
DA:581,1
DA:582,1
DA:583,1
DA:584,1
DA:586,1
DA:587,1
DA:588,1
DA:589,1
DA:591,1
DA:592,1
DA:593,1
DA:594,1
DA:595,1
DA:596,1
DA:597,1
DA:598,1
DA:600,1
DA:601,1
DA:606,1
DA:607,1
DA:608,1
DA:609,1
DA:612,1
DA:613,1
DA:614,1
DA:617,1
DA:618,1
DA:619,1
DA:620,43
DA:621,1
DA:622,1
DA:623,1
DA:624,1
DA:625,1
DA:626,2
DA:627,2
DA:628,2
DA:629,1
DA:632,1
DA:633,1
DA:634,1
DA:635,1
DA:636,1
DA:638,1
DA:639,1
DA:640,1
DA:641,1
DA:643,1
DA:644,1
DA:645,1
DA:646,1
DA:647,1
DA:648,1
DA:649,1
DA:650,1
DA:652,1
DA:653,1
DA:657,1
DA:658,1
DA:659,1
DA:660,1
DA:662,1
DA:663,1
DA:665,1
DA:666,1
DA:667,1
DA:668,45
DA:669,1
DA:670,1
DA:671,1
DA:672,1
DA:673,1
DA:674,2
DA:675,2
DA:676,2
DA:677,1
DA:680,1
DA:681,1
DA:682,1
DA:683,1
DA:684,1
DA:685,1
DA:688,1
DA:689,1
DA:690,1
DA:691,1
DA:692,1
DA:693,1
DA:694,1
DA:695,1
DA:697,1
DA:698,1
DA:704,1
DA:705,1
DA:706,1
DA:707,1
DA:708,1
DA:710,1
DA:711,1
DA:712,1
DA:713,1
DA:714,1
DA:715,1
DA:716,1
DA:718,1
DA:719,1
DA:720,1
DA:721,1
DA:722,1
DA:723,1
DA:724,1
DA:725,1
DA:727,1
DA:728,1
DA:729,1
DA:734,1
DA:735,1
DA:736,1
DA:737,1
DA:738,1
DA:741,1
DA:742,1
DA:743,1
DA:744,1
DA:745,1
DA:746,1
DA:747,1
DA:748,1
DA:750,1
DA:751,1
DA:752,1
DA:753,1
DA:754,1
DA:755,1
DA:756,1
DA:757,1
DA:759,1
DA:760,1
DA:761,1
BRF:0
BRH:0
LF:549
LH:534
end_of_record
SF:/home/runner/work/mostro/mostro/src/app/fiat_sent.rs
FN:39,_RNCNCNvNtNtCsawjdjYzw0zz_7mostrod3app9fiat_sent16fiat_sent_action00B9_
FN:90,_RNCNCNvNtNtCsawjdjYzw0zz_7mostrod3app9fiat_sent16fiat_sent_action0s_0B9_
FN:13,_RNCNvNtNtCsawjdjYzw0zz_7mostrod3app9fiat_sent16fiat_sent_action0B7_
FN:8,_RNvNtNtCsawjdjYzw0zz_7mostrod3app9fiat_sent16fiat_sent_action
FN:173,_RNCNCNvNtNtNtCsawjdjYzw0zz_7mostrod3app9fiat_sent5tests18queued_actions_for00Bb_
FN:174,_RNCNCNvNtNtNtCsawjdjYzw0zz_7mostrod3app9fiat_sent5tests18queued_actions_for0s_0Bb_
FN:277,_RNCNCNvNtNtNtCsawjdjYzw0zz_7mostrod3app9fiat_sent5testss_62fiat_sent_action_marks_order_fiat_sent_and_notifies_both_peers00Bb_
FN:111,_RNCNvNtNtNtCsawjdjYzw0zz_7mostrod3app9fiat_sent5tests16create_test_pool0B9_
FN:167,_RNCNvNtNtNtCsawjdjYzw0zz_7mostrod3app9fiat_sent5tests18queued_actions_for0B9_
FN:179,_RNCNvNtNtNtCsawjdjYzw0zz_7mostrod3app9fiat_sent5testss_49fiat_sent_action_rejects_order_that_is_not_active0B9_
FN:225,_RNCNvNtNtNtCsawjdjYzw0zz_7mostrod3app9fiat_sent5testss_51fiat_sent_action_rejects_invalid_next_trade_payload0B9_
FN:283,_RNCNvNtNtNtCsawjdjYzw0zz_7mostrod3app9fiat_sent5testss_51fiat_sent_action_stores_next_trade_for_range_orders0B9_
FN:200,_RNCNvNtNtNtCsawjdjYzw0zz_7mostrod3app9fiat_sent5testss_53fiat_sent_action_rejects_sender_that_is_not_the_buyer0B9_
FN:250,_RNCNvNtNtNtCsawjdjYzw0zz_7mostrod3app9fiat_sent5testss_62fiat_sent_action_marks_order_fiat_sent_and_notifies_both_peers0B9_
FN:111,_RNvNtNtNtCsawjdjYzw0zz_7mostrod3app9fiat_sent5tests16create_test_pool
FN:142,_RNvNtNtNtCsawjdjYzw0zz_7mostrod3app9fiat_sent5tests17active_sell_order
FN:160,_RNvNtNtNtCsawjdjYzw0zz_7mostrod3app9fiat_sent5tests17fiat_sent_message
FN:107,_RNvNtNtNtCsawjdjYzw0zz_7mostrod3app9fiat_sent5tests18init_global_config
FN:167,_RNvNtNtNtCsawjdjYzw0zz_7mostrod3app9fiat_sent5tests18queued_actions_for
FN:126,_RNvNtNtNtCsawjdjYzw0zz_7mostrod3app9fiat_sent5tests36create_unwrapped_message_with_pubkey
FN:117,_RNvNtNtNtCsawjdjYzw0zz_7mostrod3app9fiat_sent5tests9build_ctx
FN:179,_RNvNtNtNtCsawjdjYzw0zz_7mostrod3app9fiat_sent5testss_49fiat_sent_action_rejects_order_that_is_not_active
FN:225,_RNvNtNtNtCsawjdjYzw0zz_7mostrod3app9fiat_sent5testss_51fiat_sent_action_rejects_invalid_next_trade_payload
FN:283,_RNvNtNtNtCsawjdjYzw0zz_7mostrod3app9fiat_sent5testss_51fiat_sent_action_stores_next_trade_for_range_orders
FN:200,_RNvNtNtNtCsawjdjYzw0zz_7mostrod3app9fiat_sent5testss_53fiat_sent_action_rejects_sender_that_is_not_the_buyer
FN:250,_RNvNtNtNtCsawjdjYzw0zz_7mostrod3app9fiat_sent5testss_62fiat_sent_action_marks_order_fiat_sent_and_notifies_both_peers
FNDA:0,_RNCNCNvNtNtCsawjdjYzw0zz_7mostrod3app9fiat_sent16fiat_sent_action00B9_
FNDA:0,_RNCNCNvNtNtCsawjdjYzw0zz_7mostrod3app9fiat_sent16fiat_sent_action0s_0B9_
FNDA:6,_RNCNvNtNtCsawjdjYzw0zz_7mostrod3app9fiat_sent16fiat_sent_action0B7_
FNDA:6,_RNvNtNtCsawjdjYzw0zz_7mostrod3app9fiat_sent16fiat_sent_action
FNDA:47,_RNCNCNvNtNtNtCsawjdjYzw0zz_7mostrod3app9fiat_sent5tests18queued_actions_for00Bb_
FNDA:2,_RNCNCNvNtNtNtCsawjdjYzw0zz_7mostrod3app9fiat_sent5tests18queued_actions_for0s_0Bb_
FNDA:2,_RNCNCNvNtNtNtCsawjdjYzw0zz_7mostrod3app9fiat_sent5testss_62fiat_sent_action_marks_order_fiat_sent_and_notifies_both_peers00Bb_
FNDA:5,_RNCNvNtNtNtCsawjdjYzw0zz_7mostrod3app9fiat_sent5tests16create_test_pool0B9_
FNDA:1,_RNCNvNtNtNtCsawjdjYzw0zz_7mostrod3app9fiat_sent5tests18queued_actions_for0B9_
FNDA:1,_RNCNvNtNtNtCsawjdjYzw0zz_7mostrod3app9fiat_sent5testss_49fiat_sent_action_rejects_order_that_is_not_active0B9_
FNDA:1,_RNCNvNtNtNtCsawjdjYzw0zz_7mostrod3app9fiat_sent5testss_51fiat_sent_action_rejects_invalid_next_trade_payload0B9_
FNDA:1,_RNCNvNtNtNtCsawjdjYzw0zz_7mostrod3app9fiat_sent5testss_51fiat_sent_action_stores_next_trade_for_range_orders0B9_
FNDA:1,_RNCNvNtNtNtCsawjdjYzw0zz_7mostrod3app9fiat_sent5testss_53fiat_sent_action_rejects_sender_that_is_not_the_buyer0B9_
FNDA:1,_RNCNvNtNtNtCsawjdjYzw0zz_7mostrod3app9fiat_sent5testss_62fiat_sent_action_marks_order_fiat_sent_and_notifies_both_peers0B9_
FNDA:5,_RNvNtNtNtCsawjdjYzw0zz_7mostrod3app9fiat_sent5tests16create_test_pool
FNDA:5,_RNvNtNtNtCsawjdjYzw0zz_7mostrod3app9fiat_sent5tests17active_sell_order
FNDA:5,_RNvNtNtNtCsawjdjYzw0zz_7mostrod3app9fiat_sent5tests17fiat_sent_message
FNDA:2,_RNvNtNtNtCsawjdjYzw0zz_7mostrod3app9fiat_sent5tests18init_global_config
FNDA:1,_RNvNtNtNtCsawjdjYzw0zz_7mostrod3app9fiat_sent5tests18queued_actions_for
FNDA:5,_RNvNtNtNtCsawjdjYzw0zz_7mostrod3app9fiat_sent5tests36create_unwrapped_message_with_pubkey
FNDA:5,_RNvNtNtNtCsawjdjYzw0zz_7mostrod3app9fiat_sent5tests9build_ctx
FNDA:1,_RNvNtNtNtCsawjdjYzw0zz_7mostrod3app9fiat_sent5testss_49fiat_sent_action_rejects_order_that_is_not_active
FNDA:1,_RNvNtNtNtCsawjdjYzw0zz_7mostrod3app9fiat_sent5testss_51fiat_sent_action_rejects_invalid_next_trade_payload
FNDA:1,_RNvNtNtNtCsawjdjYzw0zz_7mostrod3app9fiat_sent5testss_51fiat_sent_action_stores_next_trade_for_range_orders
FNDA:1,_RNvNtNtNtCsawjdjYzw0zz_7mostrod3app9fiat_sent5testss_53fiat_sent_action_rejects_sender_that_is_not_the_buyer
FNDA:1,_RNvNtNtNtCsawjdjYzw0zz_7mostrod3app9fiat_sent5testss_62fiat_sent_action_marks_order_fiat_sent_and_notifies_both_peers
FNF:26
FNH:24
DA:8,6
DA:9,6
DA:10,6
DA:11,6
DA:12,6
DA:13,6
DA:14,6
DA:16,6
DA:19,5
DA:20,1
DA:21,4
DA:25,4
DA:26,1
DA:27,3
DA:30,3
DA:31,3
DA:32,3
DA:33,3
DA:37,2
DA:38,2
DA:39,2
DA:41,2
DA:44,2
DA:45,2
DA:46,2
DA:47,2
DA:50,2
DA:51,2
DA:52,2
DA:53,2
DA:54,2
DA:55,2
DA:56,2
DA:57,2
DA:58,2
DA:60,2
DA:61,2
DA:62,2
DA:63,2
DA:66,2
DA:67,2
DA:68,2
DA:69,2
DA:70,2
DA:71,2
DA:72,2
DA:73,2
DA:74,2
DA:77,2
DA:80,1
DA:81,1
DA:82,1
DA:83,1
DA:84,1
DA:87,2
DA:88,2
DA:89,2
DA:90,2
DA:92,2
DA:93,6
DA:107,2
DA:108,2
DA:109,2
DA:111,5
DA:112,5
DA:113,5
DA:114,5
DA:115,5
DA:117,5
DA:118,5
DA:119,5
DA:120,5
DA:121,5
DA:122,5
DA:126,5
DA:127,5
DA:128,5
DA:129,5
DA:130,5
DA:131,5
DA:132,5
DA:133,5
DA:134,5
DA:135,5
DA:136,5
DA:137,5
DA:138,5
DA:139,5
DA:140,5
DA:142,5
DA:143,5
DA:144,5
DA:145,5
DA:146,5
DA:147,5
DA:148,5
DA:149,5
DA:150,5
DA:151,5
DA:152,5
DA:153,5
DA:154,5
DA:155,5
DA:156,5
DA:157,5
DA:158,5
DA:160,5
DA:161,5
DA:162,5
DA:167,1
DA:168,1
DA:169,1
DA:170,1
DA:171,1
DA:172,1
DA:173,47
DA:174,2
DA:175,1
DA:176,1
DA:179,1
DA:181,1
DA:182,1
DA:183,1
DA:184,1
DA:185,1
DA:186,1
DA:187,1
DA:188,1
DA:189,1
DA:190,1
DA:193,1
DA:196,1
DA:197,1
DA:200,1
DA:202,1
DA:203,1
DA:204,1
DA:205,1
DA:206,1
DA:207,1
DA:208,1
DA:209,1
DA:210,1
DA:211,1
DA:212,1
DA:215,1
DA:218,1
DA:219,1
DA:220,1
DA:221,1
DA:222,1
DA:225,1
DA:227,1
DA:228,1
DA:229,1
DA:230,1
DA:231,1
DA:232,1
DA:233,1
DA:234,1
DA:235,1
DA:236,1
DA:237,1
DA:240,1
DA:243,1
DA:244,1
DA:245,1
DA:246,1
DA:247,1
DA:250,1
DA:252,1
DA:253,1
DA:254,1
DA:255,1
DA:256,1
DA:257,1
DA:258,1
DA:259,1
DA:260,1
DA:261,1
DA:262,1
DA:263,1
DA:266,1
DA:269,1
DA:270,1
DA:271,1
DA:272,1
DA:273,1
DA:274,1
DA:275,1
DA:276,1
DA:277,2
DA:278,1
DA:279,1
DA:280,1
DA:283,1
DA:285,1
DA:286,1
DA:287,1
DA:288,1
DA:289,1
DA:290,1
DA:291,1
DA:292,1
DA:293,1
DA:294,1
DA:295,1
DA:296,1
DA:297,1
DA:298,1
DA:300,1
DA:303,1
DA:306,1
DA:307,1
DA:308,1
DA:309,1
DA:310,1
DA:311,1
BRF:0
BRH:0
LF:238
LH:236
end_of_record
SF:/home/runner/work/mostro/mostro/src/app/last_trade_index.rs
FN:83,_RNCNCNvNtNtCsawjdjYzw0zz_7mostrod3app16last_trade_index16last_trade_index00B9_
FN:48,_RNCNvNtNtCsawjdjYzw0zz_7mostrod3app16last_trade_index16last_trade_index0B7_
FN:43,_RNvNtNtCsawjdjYzw0zz_7mostrod3app16last_trade_index16last_trade_index
FN:138,_RNCNvNtNtNtCsawjdjYzw0zz_7mostrod3app16last_trade_index5tests13setup_test_db0B9_
FN:173,_RNCNvNtNtNtCsawjdjYzw0zz_7mostrod3app16last_trade_index5tests16insert_test_user0B9_
FN:279,_RNCNvNtNtNtCsawjdjYzw0zz_7mostrod3app16last_trade_index5testss_35test_last_trade_index_correct_value0B9_
FN:188,_RNCNvNtNtNtCsawjdjYzw0zz_7mostrod3app16last_trade_index5testss_36test_last_trade_index_user_not_found0B9_
FN:324,_RNCNvNtNtNtCsawjdjYzw0zz_7mostrod3app16last_trade_index5testss_43test_last_trade_index_message_serialization0B9_
FN:253,_RNCNvNtNtNtCsawjdjYzw0zz_7mostrod3app16last_trade_index5testss_43test_last_trade_index_success_path_sends_dm0B9_
FN:228,_RNCNvNtNtNtCsawjdjYzw0zz_7mostrod3app16last_trade_index5testss_44test_last_trade_index_zero_index_is_rejected0B9_
FN:138,_RNvNtNtNtCsawjdjYzw0zz_7mostrod3app16last_trade_index5tests13setup_test_db
FN:108,_RNvNtNtNtCsawjdjYzw0zz_7mostrod3app16last_trade_index5tests16create_test_keys
FN:173,_RNvNtNtNtCsawjdjYzw0zz_7mostrod3app16last_trade_index5tests16insert_test_user
FN:115,_RNvNtNtNtCsawjdjYzw0zz_7mostrod3app16last_trade_index5tests29create_test_unwrapped_message
FN:279,_RNvNtNtNtCsawjdjYzw0zz_7mostrod3app16last_trade_index5testss_35test_last_trade_index_correct_value
FN:188,_RNvNtNtNtCsawjdjYzw0zz_7mostrod3app16last_trade_index5testss_36test_last_trade_index_user_not_found
FN:324,_RNvNtNtNtCsawjdjYzw0zz_7mostrod3app16last_trade_index5testss_43test_last_trade_index_message_serialization
FN:253,_RNvNtNtNtCsawjdjYzw0zz_7mostrod3app16last_trade_index5testss_43test_last_trade_index_success_path_sends_dm
FN:228,_RNvNtNtNtCsawjdjYzw0zz_7mostrod3app16last_trade_index5testss_44test_last_trade_index_zero_index_is_rejected
FNDA:0,_RNCNCNvNtNtCsawjdjYzw0zz_7mostrod3app16last_trade_index16last_trade_index00B9_
FNDA:4,_RNCNvNtNtCsawjdjYzw0zz_7mostrod3app16last_trade_index16last_trade_index0B7_
FNDA:4,_RNvNtNtCsawjdjYzw0zz_7mostrod3app16last_trade_index16last_trade_index
FNDA:5,_RNCNvNtNtNtCsawjdjYzw0zz_7mostrod3app16last_trade_index5tests13setup_test_db0B9_
FNDA:5,_RNCNvNtNtNtCsawjdjYzw0zz_7mostrod3app16last_trade_index5tests16insert_test_user0B9_
FNDA:1,_RNCNvNtNtNtCsawjdjYzw0zz_7mostrod3app16last_trade_index5testss_35test_last_trade_index_correct_value0B9_
FNDA:1,_RNCNvNtNtNtCsawjdjYzw0zz_7mostrod3app16last_trade_index5testss_36test_last_trade_index_user_not_found0B9_
FNDA:1,_RNCNvNtNtNtCsawjdjYzw0zz_7mostrod3app16last_trade_index5testss_43test_last_trade_index_message_serialization0B9_
FNDA:1,_RNCNvNtNtNtCsawjdjYzw0zz_7mostrod3app16last_trade_index5testss_43test_last_trade_index_success_path_sends_dm0B9_
FNDA:1,_RNCNvNtNtNtCsawjdjYzw0zz_7mostrod3app16last_trade_index5testss_44test_last_trade_index_zero_index_is_rejected0B9_
FNDA:5,_RNvNtNtNtCsawjdjYzw0zz_7mostrod3app16last_trade_index5tests13setup_test_db
FNDA:9,_RNvNtNtNtCsawjdjYzw0zz_7mostrod3app16last_trade_index5tests16create_test_keys
FNDA:5,_RNvNtNtNtCsawjdjYzw0zz_7mostrod3app16last_trade_index5tests16insert_test_user
FNDA:3,_RNvNtNtNtCsawjdjYzw0zz_7mostrod3app16last_trade_index5tests29create_test_unwrapped_message
FNDA:1,_RNvNtNtNtCsawjdjYzw0zz_7mostrod3app16last_trade_index5testss_35test_last_trade_index_correct_value
FNDA:1,_RNvNtNtNtCsawjdjYzw0zz_7mostrod3app16last_trade_index5testss_36test_last_trade_index_user_not_found
FNDA:1,_RNvNtNtNtCsawjdjYzw0zz_7mostrod3app16last_trade_index5testss_43test_last_trade_index_message_serialization
FNDA:1,_RNvNtNtNtCsawjdjYzw0zz_7mostrod3app16last_trade_index5testss_43test_last_trade_index_success_path_sends_dm
FNDA:1,_RNvNtNtNtCsawjdjYzw0zz_7mostrod3app16last_trade_index5testss_44test_last_trade_index_zero_index_is_rejected
FNF:19
FNH:18
DA:43,4
DA:44,4
DA:45,4
DA:46,4
DA:47,4
DA:48,4
DA:49,4
DA:51,4
DA:53,4
DA:56,4
DA:60,4
DA:61,2
DA:63,2
DA:68,2
DA:69,1
DA:70,1
DA:73,1
DA:74,1
DA:75,1
DA:76,1
DA:77,1
DA:78,1
DA:80,1
DA:81,1
DA:82,1
DA:83,1
DA:86,1
DA:90,1
DA:93,1
DA:94,0
DA:95,1
DA:97,1
DA:98,4
DA:108,9
DA:109,9
DA:110,9
DA:115,3
DA:116,3
DA:117,3
DA:119,3
DA:122,3
DA:123,3
DA:124,3
DA:125,3
DA:126,3
DA:127,3
DA:128,3
DA:129,3
DA:130,3
DA:131,3
DA:132,3
DA:133,3
DA:134,3
DA:135,3
DA:138,5
DA:139,5
DA:140,5
DA:141,5
DA:142,5
DA:143,5
DA:146,5
DA:147,5
DA:148,5
DA:149,5
DA:150,5
DA:151,5
DA:152,5
DA:153,5
DA:154,5
DA:155,5
DA:156,5
DA:157,5
DA:158,5
DA:159,5
DA:160,5
DA:161,5
DA:162,5
DA:163,5
DA:164,5
DA:165,5
DA:166,5
DA:167,5
DA:169,5
DA:170,5
DA:173,5
DA:174,5
DA:175,5
DA:176,5
DA:177,5
DA:178,5
DA:179,5
DA:180,5
DA:181,5
DA:182,5
DA:183,5
DA:184,5
DA:185,5
DA:188,1
DA:190,1
DA:192,1
DA:193,1
DA:194,1
DA:195,1
DA:196,1
DA:199,1
DA:202,1
DA:205,1
DA:208,1
DA:209,1
DA:214,1
DA:215,1
DA:216,1
DA:217,1
DA:218,1
DA:219,1
DA:220,1
DA:221,1
DA:222,1
DA:223,1
DA:224,1
DA:225,1
DA:228,1
DA:230,1
DA:231,1
DA:232,1
DA:235,1
DA:236,1
DA:237,1
DA:238,1
DA:239,1
DA:240,1
DA:243,1
DA:246,1
DA:247,1
DA:248,1
DA:249,1
DA:250,1
DA:253,1
DA:256,1
DA:257,1
DA:258,1
DA:261,1
DA:262,1
DA:263,1
DA:264,1
DA:265,1
DA:266,1
DA:269,1
DA:272,1
DA:273,1
DA:274,1
DA:275,1
DA:276,1
DA:279,1
DA:281,1
DA:284,1
DA:285,1
DA:286,1
DA:289,1
DA:290,1
DA:291,1
DA:294,1
DA:295,1
DA:300,1
DA:301,1
DA:307,1
DA:308,1
DA:309,1
DA:310,1
DA:311,1
DA:312,1
DA:316,1
DA:317,1
DA:318,1
DA:319,1
DA:320,1
DA:321,1
DA:324,1
DA:326,1
DA:327,1
DA:328,1
DA:329,1
DA:331,1
DA:333,1
DA:336,1
DA:337,1
DA:338,1
DA:339,1
DA:340,1
DA:341,1
DA:344,1
DA:345,1
DA:348,1
DA:349,1
DA:350,1
DA:353,1
DA:354,1
DA:355,1
DA:356,1
DA:357,1
BRF:0
BRH:0
LF:224
LH:219
end_of_record
SF:/home/runner/work/mostro/mostro/src/app/order.rs
FN:149,_RNCNCNvNtNtCsawjdjYzw0zz_7mostrod3app5order12order_action00B9_
FN:89,_RNCNvNtNtCsawjdjYzw0zz_7mostrod3app5order12order_action0B7_
FN:12,_RNCNvNtNtCsawjdjYzw0zz_7mostrod3app5order25calculate_and_check_quote0B7_
FN:84,_RNvNtNtCsawjdjYzw0zz_7mostrod3app5order12order_action
FN:8,_RNvNtNtCsawjdjYzw0zz_7mostrod3app5order25calculate_and_check_quote
FN:618,_RNvNtNtNtNtCsawjdjYzw0zz_7mostrod3app5order5tests23quote_calculation_testss_28test_quote_calculation_logic
FN:635,_RNvNtNtNtNtCsawjdjYzw0zz_7mostrod3app5order5tests23quote_calculation_testss_29test_amount_limits_validation
FN:175,_RNCNvNtNtNtCsawjdjYzw0zz_7mostrod3app5order5tests16create_test_pool0B9_
FN:187,_RNCNvNtNtNtCsawjdjYzw0zz_7mostrod3app5order5tests19create_test_message0B9_
FN:234,_RNCNvNtNtNtCsawjdjYzw0zz_7mostrod3app5order5testss_26test_order_action_no_order0B9_
FN:291,_RNCNvNtNtNtCsawjdjYzw0zz_7mostrod3app5order5testss_32test_order_action_invalid_amount0B9_
FN:313,_RNCNvNtNtNtCsawjdjYzw0zz_7mostrod3app5order5testss_34test_order_action_with_valid_order0B9_
FN:365,_RNCNvNtNtNtCsawjdjYzw0zz_7mostrod3app5order5testss_35test_order_action_trade_index_logic0B9_
FN:259,_RNCNvNtNtNtCsawjdjYzw0zz_7mostrod3app5order5testss_37test_order_action_invalid_fiat_amount0B9_
FN:333,_RNCNvNtNtNtCsawjdjYzw0zz_7mostrod3app5order5testss_40test_order_action_range_order_validation0B9_
FN:349,_RNCNvNtNtNtCsawjdjYzw0zz_7mostrod3app5order5testss_42test_order_action_zero_amount_with_premium0B9_
FN:492,_RNCNvNtNtNtNtCsawjdjYzw0zz_7mostrod3app5order5tests23order_action_flow_tests19create_migrated_ctx0Bb_
FN:529,_RNCNvNtNtNtNtCsawjdjYzw0zz_7mostrod3app5order5tests23order_action_flow_testss_37unsupported_fiat_currency_is_rejected0Bb_
FN:587,_RNCNvNtNtNtNtCsawjdjYzw0zz_7mostrod3app5order5tests23order_action_flow_testss_47valid_order_with_trade_index_updates_user_index0Bb_
FN:560,_RNCNvNtNtNtNtCsawjdjYzw0zz_7mostrod3app5order5tests23order_action_flow_testss_48valid_order_reaches_publication_and_persists_row0Bb_
FN:544,_RNCNvNtNtNtNtCsawjdjYzw0zz_7mostrod3app5order5tests23order_action_flow_testss_61missing_trade_index_with_distinct_identity_is_invalid_payload0Bb_
FN:400,_RNCNvNtNtNtNtCsawjdjYzw0zz_7mostrod3app5order5tests31calculate_and_check_quote_tests10create_ctx0Bb_
FN:438,_RNCNvNtNtNtNtCsawjdjYzw0zz_7mostrod3app5order5tests31calculate_and_check_quote_testss_26negative_amount_is_invalid0Bb_
FN:448,_RNCNvNtNtNtNtCsawjdjYzw0zz_7mostrod3app5order5tests31calculate_and_check_quote_testss_37market_priced_order_uses_cached_price0Bb_
FN:424,_RNCNvNtNtNtNtCsawjdjYzw0zz_7mostrod3app5order5tests31calculate_and_check_quote_testss_38fixed_amount_below_min_is_out_of_range0Bb_
FN:417,_RNCNvNtNtNtNtCsawjdjYzw0zz_7mostrod3app5order5tests31calculate_and_check_quote_testss_38fixed_amount_inside_limits_is_accepted0Bb_
FN:458,_RNCNvNtNtNtNtCsawjdjYzw0zz_7mostrod3app5order5tests31calculate_and_check_quote_testss_44market_priced_order_without_price_data_fails0Bb_
FN:472,_RNCNvNtNtNtNtCsawjdjYzw0zz_7mostrod3app5order5tests31calculate_and_check_quote_testss_45market_priced_order_above_max_is_out_of_range0Bb_
FN:179,_RNvNtNtNtCsawjdjYzw0zz_7mostrod3app5order5tests16create_test_keys
FN:175,_RNvNtNtNtCsawjdjYzw0zz_7mostrod3app5order5tests16create_test_pool
FN:183,_RNvNtNtNtCsawjdjYzw0zz_7mostrod3app5order5tests19create_test_message
FN:206,_RNvNtNtNtCsawjdjYzw0zz_7mostrod3app5order5tests25create_test_order_message
FN:193,_RNvNtNtNtCsawjdjYzw0zz_7mostrod3app5order5tests29create_test_unwrapped_message
FN:234,_RNvNtNtNtCsawjdjYzw0zz_7mostrod3app5order5testss_26test_order_action_no_order
FN:291,_RNvNtNtNtCsawjdjYzw0zz_7mostrod3app5order5testss_32test_order_action_invalid_amount
FN:313,_RNvNtNtNtCsawjdjYzw0zz_7mostrod3app5order5testss_34test_order_action_with_valid_order
FN:365,_RNvNtNtNtCsawjdjYzw0zz_7mostrod3app5order5testss_35test_order_action_trade_index_logic
FN:259,_RNvNtNtNtCsawjdjYzw0zz_7mostrod3app5order5testss_37test_order_action_invalid_fiat_amount
FN:333,_RNvNtNtNtCsawjdjYzw0zz_7mostrod3app5order5testss_40test_order_action_range_order_validation
FN:349,_RNvNtNtNtCsawjdjYzw0zz_7mostrod3app5order5testss_42test_order_action_zero_amount_with_premium
FN:504,_RNvNtNtNtNtCsawjdjYzw0zz_7mostrod3app5order5tests23order_action_flow_tests12init_globals
FN:510,_RNvNtNtNtNtCsawjdjYzw0zz_7mostrod3app5order5tests23order_action_flow_tests13order_message
FN:492,_RNvNtNtNtNtCsawjdjYzw0zz_7mostrod3app5order5tests23order_action_flow_tests19create_migrated_ctx
FN:529,_RNvNtNtNtNtCsawjdjYzw0zz_7mostrod3app5order5tests23order_action_flow_testss_37unsupported_fiat_currency_is_rejected
FN:587,_RNvNtNtNtNtCsawjdjYzw0zz_7mostrod3app5order5tests23order_action_flow_testss_47valid_order_with_trade_index_updates_user_index
FN:560,_RNvNtNtNtNtCsawjdjYzw0zz_7mostrod3app5order5tests23order_action_flow_testss_48valid_order_reaches_publication_and_persists_row
FN:544,_RNvNtNtNtNtCsawjdjYzw0zz_7mostrod3app5order5tests23order_action_flow_testss_61missing_trade_index_with_distinct_identity_is_invalid_payload
FN:400,_RNvNtNtNtNtCsawjdjYzw0zz_7mostrod3app5order5tests31calculate_and_check_quote_tests10create_ctx
FN:408,_RNvNtNtNtNtCsawjdjYzw0zz_7mostrod3app5order5tests31calculate_and_check_quote_tests10order_with
FN:438,_RNvNtNtNtNtCsawjdjYzw0zz_7mostrod3app5order5tests31calculate_and_check_quote_testss_26negative_amount_is_invalid
FN:448,_RNvNtNtNtNtCsawjdjYzw0zz_7mostrod3app5order5tests31calculate_and_check_quote_testss_37market_priced_order_uses_cached_price
FN:424,_RNvNtNtNtNtCsawjdjYzw0zz_7mostrod3app5order5tests31calculate_and_check_quote_testss_38fixed_amount_below_min_is_out_of_range
FN:417,_RNvNtNtNtNtCsawjdjYzw0zz_7mostrod3app5order5tests31calculate_and_check_quote_testss_38fixed_amount_inside_limits_is_accepted
FN:458,_RNvNtNtNtNtCsawjdjYzw0zz_7mostrod3app5order5tests31calculate_and_check_quote_testss_44market_priced_order_without_price_data_fails
FN:472,_RNvNtNtNtNtCsawjdjYzw0zz_7mostrod3app5order5tests31calculate_and_check_quote_testss_45market_priced_order_above_max_is_out_of_range
FNDA:0,_RNCNCNvNtNtCsawjdjYzw0zz_7mostrod3app5order12order_action00B9_
FNDA:15,_RNCNvNtNtCsawjdjYzw0zz_7mostrod3app5order12order_action0B7_
FNDA:9,_RNCNvNtNtCsawjdjYzw0zz_7mostrod3app5order25calculate_and_check_quote0B7_
FNDA:15,_RNvNtNtCsawjdjYzw0zz_7mostrod3app5order12order_action
FNDA:9,_RNvNtNtCsawjdjYzw0zz_7mostrod3app5order25calculate_and_check_quote
FNDA:1,_RNvNtNtNtNtCsawjdjYzw0zz_7mostrod3app5order5tests23quote_calculation_testss_28test_quote_calculation_logic
FNDA:1,_RNvNtNtNtNtCsawjdjYzw0zz_7mostrod3app5order5tests23quote_calculation_testss_29test_amount_limits_validation
FNDA:7,_RNCNvNtNtNtCsawjdjYzw0zz_7mostrod3app5order5tests16create_test_pool0B9_
FNDA:4,_RNCNvNtNtNtCsawjdjYzw0zz_7mostrod3app5order5tests19create_test_message0B9_
FNDA:1,_RNCNvNtNtNtCsawjdjYzw0zz_7mostrod3app5order5testss_26test_order_action_no_order0B9_
FNDA:1,_RNCNvNtNtNtCsawjdjYzw0zz_7mostrod3app5order5testss_32test_order_action_invalid_amount0B9_
FNDA:1,_RNCNvNtNtNtCsawjdjYzw0zz_7mostrod3app5order5testss_34test_order_action_with_valid_order0B9_
FNDA:1,_RNCNvNtNtNtCsawjdjYzw0zz_7mostrod3app5order5testss_35test_order_action_trade_index_logic0B9_
FNDA:1,_RNCNvNtNtNtCsawjdjYzw0zz_7mostrod3app5order5testss_37test_order_action_invalid_fiat_amount0B9_
FNDA:1,_RNCNvNtNtNtCsawjdjYzw0zz_7mostrod3app5order5testss_40test_order_action_range_order_validation0B9_
FNDA:1,_RNCNvNtNtNtCsawjdjYzw0zz_7mostrod3app5order5testss_42test_order_action_zero_amount_with_premium0B9_
FNDA:4,_RNCNvNtNtNtNtCsawjdjYzw0zz_7mostrod3app5order5tests23order_action_flow_tests19create_migrated_ctx0Bb_
FNDA:1,_RNCNvNtNtNtNtCsawjdjYzw0zz_7mostrod3app5order5tests23order_action_flow_testss_37unsupported_fiat_currency_is_rejected0Bb_
FNDA:1,_RNCNvNtNtNtNtCsawjdjYzw0zz_7mostrod3app5order5tests23order_action_flow_testss_47valid_order_with_trade_index_updates_user_index0Bb_
FNDA:1,_RNCNvNtNtNtNtCsawjdjYzw0zz_7mostrod3app5order5tests23order_action_flow_testss_48valid_order_reaches_publication_and_persists_row0Bb_
FNDA:1,_RNCNvNtNtNtNtCsawjdjYzw0zz_7mostrod3app5order5tests23order_action_flow_testss_61missing_trade_index_with_distinct_identity_is_invalid_payload0Bb_
FNDA:6,_RNCNvNtNtNtNtCsawjdjYzw0zz_7mostrod3app5order5tests31calculate_and_check_quote_tests10create_ctx0Bb_
FNDA:1,_RNCNvNtNtNtNtCsawjdjYzw0zz_7mostrod3app5order5tests31calculate_and_check_quote_testss_26negative_amount_is_invalid0Bb_
FNDA:1,_RNCNvNtNtNtNtCsawjdjYzw0zz_7mostrod3app5order5tests31calculate_and_check_quote_testss_37market_priced_order_uses_cached_price0Bb_
FNDA:1,_RNCNvNtNtNtNtCsawjdjYzw0zz_7mostrod3app5order5tests31calculate_and_check_quote_testss_38fixed_amount_below_min_is_out_of_range0Bb_
FNDA:1,_RNCNvNtNtNtNtCsawjdjYzw0zz_7mostrod3app5order5tests31calculate_and_check_quote_testss_38fixed_amount_inside_limits_is_accepted0Bb_
FNDA:1,_RNCNvNtNtNtNtCsawjdjYzw0zz_7mostrod3app5order5tests31calculate_and_check_quote_testss_44market_priced_order_without_price_data_fails0Bb_
FNDA:1,_RNCNvNtNtNtNtCsawjdjYzw0zz_7mostrod3app5order5tests31calculate_and_check_quote_testss_45market_priced_order_above_max_is_out_of_range0Bb_
FNDA:35,_RNvNtNtNtCsawjdjYzw0zz_7mostrod3app5order5tests16create_test_keys
FNDA:7,_RNvNtNtNtCsawjdjYzw0zz_7mostrod3app5order5tests16create_test_pool
FNDA:18,_RNvNtNtNtCsawjdjYzw0zz_7mostrod3app5order5tests19create_test_message
FNDA:3,_RNvNtNtNtCsawjdjYzw0zz_7mostrod3app5order5tests25create_test_order_message
FNDA:12,_RNvNtNtNtCsawjdjYzw0zz_7mostrod3app5order5tests29create_test_unwrapped_message
FNDA:1,_RNvNtNtNtCsawjdjYzw0zz_7mostrod3app5order5testss_26test_order_action_no_order
FNDA:1,_RNvNtNtNtCsawjdjYzw0zz_7mostrod3app5order5testss_32test_order_action_invalid_amount
FNDA:1,_RNvNtNtNtCsawjdjYzw0zz_7mostrod3app5order5testss_34test_order_action_with_valid_order
FNDA:1,_RNvNtNtNtCsawjdjYzw0zz_7mostrod3app5order5testss_35test_order_action_trade_index_logic
FNDA:1,_RNvNtNtNtCsawjdjYzw0zz_7mostrod3app5order5testss_37test_order_action_invalid_fiat_amount
FNDA:1,_RNvNtNtNtCsawjdjYzw0zz_7mostrod3app5order5testss_40test_order_action_range_order_validation
FNDA:1,_RNvNtNtNtCsawjdjYzw0zz_7mostrod3app5order5testss_42test_order_action_zero_amount_with_premium
FNDA:4,_RNvNtNtNtNtCsawjdjYzw0zz_7mostrod3app5order5tests23order_action_flow_tests12init_globals
FNDA:4,_RNvNtNtNtNtCsawjdjYzw0zz_7mostrod3app5order5tests23order_action_flow_tests13order_message
FNDA:4,_RNvNtNtNtNtCsawjdjYzw0zz_7mostrod3app5order5tests23order_action_flow_tests19create_migrated_ctx
FNDA:1,_RNvNtNtNtNtCsawjdjYzw0zz_7mostrod3app5order5tests23order_action_flow_testss_37unsupported_fiat_currency_is_rejected
FNDA:1,_RNvNtNtNtNtCsawjdjYzw0zz_7mostrod3app5order5tests23order_action_flow_testss_47valid_order_with_trade_index_updates_user_index
FNDA:1,_RNvNtNtNtNtCsawjdjYzw0zz_7mostrod3app5order5tests23order_action_flow_testss_48valid_order_reaches_publication_and_persists_row
FNDA:1,_RNvNtNtNtNtCsawjdjYzw0zz_7mostrod3app5order5tests23order_action_flow_testss_61missing_trade_index_with_distinct_identity_is_invalid_payload
FNDA:6,_RNvNtNtNtNtCsawjdjYzw0zz_7mostrod3app5order5tests31calculate_and_check_quote_tests10create_ctx
FNDA:6,_RNvNtNtNtNtCsawjdjYzw0zz_7mostrod3app5order5tests31calculate_and_check_quote_tests10order_with
FNDA:1,_RNvNtNtNtNtCsawjdjYzw0zz_7mostrod3app5order5tests31calculate_and_check_quote_testss_26negative_amount_is_invalid
FNDA:1,_RNvNtNtNtNtCsawjdjYzw0zz_7mostrod3app5order5tests31calculate_and_check_quote_testss_37market_priced_order_uses_cached_price
FNDA:1,_RNvNtNtNtNtCsawjdjYzw0zz_7mostrod3app5order5tests31calculate_and_check_quote_testss_38fixed_amount_below_min_is_out_of_range
FNDA:1,_RNvNtNtNtNtCsawjdjYzw0zz_7mostrod3app5order5tests31calculate_and_check_quote_testss_38fixed_amount_inside_limits_is_accepted
FNDA:1,_RNvNtNtNtNtCsawjdjYzw0zz_7mostrod3app5order5tests31calculate_and_check_quote_testss_44market_priced_order_without_price_data_fails
FNDA:1,_RNvNtNtNtNtCsawjdjYzw0zz_7mostrod3app5order5tests31calculate_and_check_quote_testss_45market_priced_order_above_max_is_out_of_range
FNF:55
FNH:54
DA:8,9
DA:9,9
DA:10,9
DA:11,9
DA:12,9
DA:14,9
DA:16,9
DA:17,3
DA:18,2
DA:19,2
DA:20,2
DA:25,0
DA:28,1
DA:31,6
DA:35,8
DA:36,1
DA:37,7
DA:39,7
DA:40,6
DA:42,2
DA:43,5
DA:45,5
DA:46,9
DA:84,15
DA:85,15
DA:86,15
DA:87,15
DA:88,15
DA:89,15
DA:90,15
DA:92,15
DA:94,15
DA:96,7
DA:99,7
DA:100,7
DA:101,1
DA:102,6
DA:106,6
DA:107,6
DA:108,2
DA:109,4
DA:110,0
DA:113,4
DA:114,1
DA:115,3
DA:118,3
DA:121,3
DA:122,0
DA:123,3
DA:126,3
DA:127,0
DA:128,3
DA:131,3
DA:132,3
DA:135,3
DA:136,1
DA:138,2
DA:139,1
DA:141,1
DA:147,2
DA:148,2
DA:149,2
DA:152,2
DA:153,2
DA:154,2
DA:155,2
DA:156,2
DA:157,2
DA:158,2
DA:159,2
DA:160,2
DA:161,2
DA:162,2
DA:163,8
DA:164,8
DA:165,15
DA:175,7
DA:176,7
DA:177,7
DA:179,35
DA:180,35
DA:181,35
DA:183,18
DA:184,18
DA:185,18
DA:186,18
DA:187,18
DA:188,18
DA:189,18
DA:191,18
DA:193,12
DA:194,12
DA:195,12
DA:197,12
DA:198,12
DA:199,12
DA:200,12
DA:201,12
DA:202,12
DA:203,12
DA:204,12
DA:206,3
DA:207,3
DA:208,3
DA:209,3
DA:210,3
DA:211,3
DA:212,3
DA:213,3
DA:214,3
DA:215,3
DA:216,3
DA:218,3
DA:219,3
DA:220,3
DA:221,3
DA:222,3
DA:224,3
DA:225,3
DA:226,3
DA:227,3
DA:228,3
DA:229,3
DA:231,3
DA:234,1
DA:235,1
DA:237,1
DA:238,1
DA:239,1
DA:240,1
DA:241,1
DA:242,1
DA:245,1
DA:246,1
DA:247,1
DA:248,1
DA:249,1
DA:250,1
DA:251,1
DA:252,1
DA:254,1
DA:255,1
DA:256,1
DA:259,1
DA:260,1
DA:262,1
DA:263,1
DA:264,1
DA:265,1
DA:266,1
DA:267,1
DA:270,1
DA:271,1
DA:272,1
DA:273,1
DA:274,1
DA:280,1
DA:281,1
DA:282,1
DA:283,1
DA:284,1
DA:285,1
DA:286,1
DA:287,1
DA:288,1
DA:291,1
DA:292,1
DA:294,1
DA:295,1
DA:296,1
DA:297,1
DA:298,1
DA:299,1
DA:302,1
DA:303,1
DA:304,1
DA:305,1
DA:306,1
DA:307,1
DA:308,1
DA:309,1
DA:310,1
DA:313,1
DA:314,1
DA:316,1
DA:317,1
DA:318,1
DA:319,1
DA:320,1
DA:321,1
DA:322,1
DA:329,1
DA:330,1
DA:333,1
DA:334,1
DA:336,1
DA:337,1
DA:338,1
DA:339,1
DA:340,1
DA:341,1
DA:343,1
DA:345,1
DA:346,1
DA:349,1
DA:350,1
DA:352,1
DA:353,1
DA:354,1
DA:355,1
DA:356,1
DA:357,1
DA:359,1
DA:361,1
DA:362,1
DA:365,1
DA:366,1
DA:368,1
DA:369,1
DA:370,1
DA:371,1
DA:372,1
DA:375,1
DA:376,1
DA:377,1
DA:379,1
DA:382,1
DA:384,1
DA:387,1
DA:390,1
DA:391,1
DA:392,1
DA:400,6
DA:401,6
DA:402,6
DA:403,6
DA:404,6
DA:405,6
DA:406,6
DA:408,6
DA:409,6
DA:410,6
DA:411,6
DA:412,6
DA:413,6
DA:414,6
DA:417,1
DA:418,1
DA:419,1
DA:420,1
DA:421,1
DA:424,1
DA:425,1
DA:427,1
DA:428,1
DA:429,1
DA:430,1
DA:431,1
DA:432,1
DA:433,1
DA:434,1
DA:435,1
DA:438,1
DA:439,1
DA:440,1
DA:441,1
DA:442,1
DA:443,1
DA:444,1
DA:445,1
DA:448,1
DA:449,1
DA:451,1
DA:452,1
DA:454,1
DA:455,1
DA:458,1
DA:459,1
DA:461,1
DA:462,1
DA:463,1
DA:464,1
DA:465,1
DA:466,1
DA:467,1
DA:468,1
DA:469,1
DA:472,1
DA:473,1
DA:474,1
DA:476,1
DA:477,1
DA:478,1
DA:479,1
DA:480,1
DA:481,1
DA:482,1
DA:483,1
DA:484,1
DA:492,4
DA:493,4
DA:494,4
DA:495,4
DA:496,4
DA:497,4
DA:498,4
DA:499,4
DA:500,4
DA:501,4
DA:502,4
DA:504,4
DA:506,4
DA:507,4
DA:508,4
DA:510,4
DA:511,4
DA:512,4
DA:513,4
DA:514,4
DA:515,4
DA:516,4
DA:517,4
DA:518,4
DA:519,4
DA:520,4
DA:521,4
DA:522,4
DA:523,4
DA:524,4
DA:526,4
DA:529,1
DA:530,1
DA:531,1
DA:532,1
DA:533,1
DA:535,1
DA:536,1
DA:537,1
DA:538,1
DA:539,1
DA:540,1
DA:541,1
DA:544,1
DA:545,1
DA:546,1
DA:547,1
DA:549,1
DA:551,1
DA:552,1
DA:553,1
DA:554,1
DA:555,1
DA:556,1
DA:557,1
DA:560,1
DA:561,1
DA:562,1
DA:563,1
DA:565,1
DA:566,1
DA:568,1
DA:569,1
DA:572,1
DA:573,1
DA:577,1
DA:578,1
DA:579,1
DA:580,1
DA:581,1
DA:582,1
DA:583,1
DA:584,1
DA:587,1
DA:588,1
DA:589,1
DA:590,1
DA:591,1
DA:595,1
DA:596,1
DA:597,1
DA:598,1
DA:599,1
DA:600,1
DA:601,1
DA:602,1
DA:603,1
DA:604,1
DA:606,1
DA:607,1
DA:608,1
DA:609,1
DA:610,1
DA:611,1
DA:612,1
DA:618,1
DA:620,1
DA:621,1
DA:624,1
DA:625,1
DA:628,1
DA:629,1
DA:630,1
DA:631,1
DA:632,1
DA:635,1
DA:637,1
DA:638,1
DA:639,1
DA:642,1
DA:645,1
DA:646,1
DA:649,1
DA:650,1
DA:651,1
BRF:0
BRH:0
LF:463
LH:458
end_of_record
SF:/home/runner/work/mostro/mostro/src/app/orders.rs
FN:38,_RNCNCNvNtNtCsawjdjYzw0zz_7mostrod3app6orders13orders_action00B9_
FN:11,_RNCNvNtNtCsawjdjYzw0zz_7mostrod3app6orders13orders_action0B7_
FN:7,_RNvNtNtCsawjdjYzw0zz_7mostrod3app6orders13orders_action
FN:149,_RNCNCNvNtNtNtCsawjdjYzw0zz_7mostrod3app6orders5testss_54orders_action_rejects_more_ids_than_configured_maximum00Bb_
FN:205,_RNCNCNvNtNtNtCsawjdjYzw0zz_7mostrod3app6orders5testss_58orders_action_returns_user_orders_and_clears_buyer_invoice00Bb_
FN:217,_RNCNCNvNtNtNtCsawjdjYzw0zz_7mostrod3app6orders5testss_58orders_action_returns_user_orders_and_clears_buyer_invoice0s1_0Bb_
FN:206,_RNCNCNvNtNtNtCsawjdjYzw0zz_7mostrod3app6orders5testss_58orders_action_returns_user_orders_and_clears_buyer_invoice0s_0Bb_
FN:70,_RNCNvNtNtNtCsawjdjYzw0zz_7mostrod3app6orders5tests9setup_ctx0B9_
FN:127,_RNCNvNtNtNtCsawjdjYzw0zz_7mostrod3app6orders5testss_36orders_action_rejects_empty_ids_list0B9_
FN:112,_RNCNvNtNtNtCsawjdjYzw0zz_7mostrod3app6orders5testss_48orders_action_rejects_missing_or_non_ids_payload0B9_
FN:142,_RNCNvNtNtNtCsawjdjYzw0zz_7mostrod3app6orders5testss_54orders_action_rejects_more_ids_than_configured_maximum0B9_
FN:179,_RNCNvNtNtNtCsawjdjYzw0zz_7mostrod3app6orders5testss_58orders_action_returns_user_orders_and_clears_buyer_invoice0B9_
FN:160,_RNCNvNtNtNtCsawjdjYzw0zz_7mostrod3app6orders5testss_61orders_action_returns_not_found_for_unknown_or_foreign_orders0B9_
FN:98,_RNvNtNtNtCsawjdjYzw0zz_7mostrod3app6orders5tests10base_order
FN:94,_RNvNtNtNtCsawjdjYzw0zz_7mostrod3app6orders5tests10orders_msg
FN:84,_RNvNtNtNtCsawjdjYzw0zz_7mostrod3app6orders5tests12orders_event
FN:70,_RNvNtNtNtCsawjdjYzw0zz_7mostrod3app6orders5tests9setup_ctx
FN:127,_RNvNtNtNtCsawjdjYzw0zz_7mostrod3app6orders5testss_36orders_action_rejects_empty_ids_list
FN:112,_RNvNtNtNtCsawjdjYzw0zz_7mostrod3app6orders5testss_48orders_action_rejects_missing_or_non_ids_payload
FN:142,_RNvNtNtNtCsawjdjYzw0zz_7mostrod3app6orders5testss_54orders_action_rejects_more_ids_than_configured_maximum
FN:179,_RNvNtNtNtCsawjdjYzw0zz_7mostrod3app6orders5testss_58orders_action_returns_user_orders_and_clears_buyer_invoice
FN:160,_RNvNtNtNtCsawjdjYzw0zz_7mostrod3app6orders5testss_61orders_action_returns_not_found_for_unknown_or_foreign_orders
FNDA:2,_RNCNCNvNtNtCsawjdjYzw0zz_7mostrod3app6orders13orders_action00B9_
FNDA:6,_RNCNvNtNtCsawjdjYzw0zz_7mostrod3app6orders13orders_action0B7_
FNDA:6,_RNvNtNtCsawjdjYzw0zz_7mostrod3app6orders13orders_action
FNDA:11,_RNCNCNvNtNtNtCsawjdjYzw0zz_7mostrod3app6orders5testss_54orders_action_rejects_more_ids_than_configured_maximum00Bb_
FNDA:52,_RNCNCNvNtNtNtCsawjdjYzw0zz_7mostrod3app6orders5testss_58orders_action_returns_user_orders_and_clears_buyer_invoice00Bb_
FNDA:2,_RNCNCNvNtNtNtCsawjdjYzw0zz_7mostrod3app6orders5testss_58orders_action_returns_user_orders_and_clears_buyer_invoice0s1_0Bb_
FNDA:1,_RNCNCNvNtNtNtCsawjdjYzw0zz_7mostrod3app6orders5testss_58orders_action_returns_user_orders_and_clears_buyer_invoice0s_0Bb_
FNDA:5,_RNCNvNtNtNtCsawjdjYzw0zz_7mostrod3app6orders5tests9setup_ctx0B9_
FNDA:1,_RNCNvNtNtNtCsawjdjYzw0zz_7mostrod3app6orders5testss_36orders_action_rejects_empty_ids_list0B9_
FNDA:1,_RNCNvNtNtNtCsawjdjYzw0zz_7mostrod3app6orders5testss_48orders_action_rejects_missing_or_non_ids_payload0B9_
FNDA:1,_RNCNvNtNtNtCsawjdjYzw0zz_7mostrod3app6orders5testss_54orders_action_rejects_more_ids_than_configured_maximum0B9_
FNDA:1,_RNCNvNtNtNtCsawjdjYzw0zz_7mostrod3app6orders5testss_58orders_action_returns_user_orders_and_clears_buyer_invoice0B9_
FNDA:1,_RNCNvNtNtNtCsawjdjYzw0zz_7mostrod3app6orders5testss_61orders_action_returns_not_found_for_unknown_or_foreign_orders0B9_
FNDA:3,_RNvNtNtNtCsawjdjYzw0zz_7mostrod3app6orders5tests10base_order
FNDA:5,_RNvNtNtNtCsawjdjYzw0zz_7mostrod3app6orders5tests10orders_msg
FNDA:5,_RNvNtNtNtCsawjdjYzw0zz_7mostrod3app6orders5tests12orders_event
FNDA:5,_RNvNtNtNtCsawjdjYzw0zz_7mostrod3app6orders5tests9setup_ctx
FNDA:1,_RNvNtNtNtCsawjdjYzw0zz_7mostrod3app6orders5testss_36orders_action_rejects_empty_ids_list
FNDA:1,_RNvNtNtNtCsawjdjYzw0zz_7mostrod3app6orders5testss_48orders_action_rejects_missing_or_non_ids_payload
FNDA:1,_RNvNtNtNtCsawjdjYzw0zz_7mostrod3app6orders5testss_54orders_action_rejects_more_ids_than_configured_maximum
FNDA:1,_RNvNtNtNtCsawjdjYzw0zz_7mostrod3app6orders5testss_58orders_action_returns_user_orders_and_clears_buyer_invoice
FNDA:1,_RNvNtNtNtCsawjdjYzw0zz_7mostrod3app6orders5testss_61orders_action_returns_not_found_for_unknown_or_foreign_orders
FNF:22
FNH:22
DA:7,6
DA:8,6
DA:9,6
DA:10,6
DA:11,6
DA:12,6
DA:14,6
DA:16,4
DA:17,4
DA:18,2
DA:22,4
DA:23,1
DA:24,3
DA:26,3
DA:27,3
DA:28,1
DA:29,2
DA:32,2
DA:33,2
DA:34,1
DA:35,1
DA:36,1
DA:37,1
DA:38,2
DA:39,2
DA:41,2
DA:42,2
DA:43,2
DA:44,1
DA:45,1
DA:47,1
DA:48,1
DA:49,1
DA:50,1
DA:51,1
DA:52,1
DA:53,1
DA:54,1
DA:55,1
DA:57,1
DA:58,6
DA:70,5
DA:71,5
DA:72,5
DA:73,5
DA:74,5
DA:75,5
DA:76,5
DA:77,5
DA:78,5
DA:79,5
DA:80,5
DA:84,5
DA:85,5
DA:86,5
DA:87,5
DA:88,5
DA:89,5
DA:90,5
DA:91,5
DA:92,5
DA:94,5
DA:95,5
DA:96,5
DA:98,3
DA:99,3
DA:100,3
DA:101,3
DA:102,3
DA:103,3
DA:104,3
DA:105,3
DA:106,3
DA:107,3
DA:108,3
DA:109,3
DA:112,1
DA:113,1
DA:114,1
DA:115,1
DA:116,1
DA:118,1
DA:120,1
DA:121,1
DA:122,1
DA:123,1
DA:124,1
DA:127,1
DA:128,1
DA:129,1
DA:130,1
DA:131,1
DA:133,1
DA:135,1
DA:136,1
DA:137,1
DA:138,1
DA:139,1
DA:142,1
DA:143,1
DA:144,1
DA:145,1
DA:146,1
DA:148,1
DA:149,11
DA:151,1
DA:153,1
DA:154,1
DA:155,1
DA:156,1
DA:157,1
DA:160,1
DA:161,1
DA:162,1
DA:163,1
DA:164,1
DA:168,1
DA:169,1
DA:170,1
DA:172,1
DA:173,1
DA:175,1
DA:176,1
DA:179,1
DA:180,1
DA:181,1
DA:182,1
DA:183,1
DA:185,1
DA:186,1
DA:187,1
DA:188,1
DA:190,1
DA:191,1
DA:192,1
DA:194,1
DA:195,1
DA:196,1
DA:200,1
DA:201,1
DA:202,1
DA:203,1
DA:204,1
DA:205,52
DA:206,1
DA:207,1
DA:208,1
DA:210,1
DA:211,1
DA:212,1
DA:213,1
DA:214,1
DA:215,1
DA:216,1
DA:217,2
DA:218,1
DA:219,1
DA:220,1
DA:221,1
DA:222,1
DA:223,1
BRF:0
BRH:0
LF:187
LH:186
end_of_record
SF:/home/runner/work/mostro/mostro/src/app/rate_user.rs
FN:113,_RNCNCNvNtNtCsawjdjYzw0zz_7mostrod3app9rate_user29update_user_reputation_action00B9_
FN:128,_RNCNCNvNtNtCsawjdjYzw0zz_7mostrod3app9rate_user29update_user_reputation_action0s0_0B9_
FN:148,_RNCNCNvNtNtCsawjdjYzw0zz_7mostrod3app9rate_user29update_user_reputation_action0s1_0B9_
FN:189,_RNCNCNvNtNtCsawjdjYzw0zz_7mostrod3app9rate_user29update_user_reputation_action0s2_0B9_
FN:119,_RNCNCNvNtNtCsawjdjYzw0zz_7mostrod3app9rate_user29update_user_reputation_action0s_0B9_
FN:217,_RNCNvNtNtCsawjdjYzw0zz_7mostrod3app9rate_user29calculate_days_since_creation0B7_
FN:218,_RNCNvNtNtCsawjdjYzw0zz_7mostrod3app9rate_user29calculate_days_since_creations_0B7_
FN:75,_RNCNvNtNtCsawjdjYzw0zz_7mostrod3app9rate_user29update_user_reputation_action0B7_
FN:7,_RNvNtNtCsawjdjYzw0zz_7mostrod3app9rate_user26prepare_variables_for_vote
FN:212,_RNvNtNtCsawjdjYzw0zz_7mostrod3app9rate_user29calculate_days_since_creation
FN:70,_RNvNtNtCsawjdjYzw0zz_7mostrod3app9rate_user29update_user_reputation_action
FN:255,_RNCNvNtNtNtCsawjdjYzw0zz_7mostrod3app9rate_user5tests16create_test_pool0B9_
FN:858,_RNCNvNtNtNtCsawjdjYzw0zz_7mostrod3app9rate_user5testss_49test_update_user_rating_db_failure_surfaces_error0B9_
FN:314,_RNCNvNtNtNtCsawjdjYzw0zz_7mostrod3app9rate_user5testss_49test_update_user_reputation_allows_success_status0B9_
FN:754,_RNCNvNtNtNtCsawjdjYzw0zz_7mostrod3app9rate_user5testss_52test_buyer_rating_full_privacy_seller_is_silent_noop0B9_
FN:803,_RNCNvNtNtNtCsawjdjYzw0zz_7mostrod3app9rate_user5testss_52test_buyer_rating_with_absent_seller_user_row_errors0B9_
FN:780,_RNCNvNtNtNtCsawjdjYzw0zz_7mostrod3app9rate_user5testss_52test_seller_rating_full_privacy_buyer_is_silent_noop0B9_
FN:831,_RNCNvNtNtNtCsawjdjYzw0zz_7mostrod3app9rate_user5testss_52test_seller_rating_with_absent_buyer_user_row_errors0B9_
FN:904,_RNCNvNtNtNtCsawjdjYzw0zz_7mostrod3app9rate_user5testss_55test_update_user_rating_event_db_failure_surfaces_error0B9_
FN:441,_RNCNvNtNtNtCsawjdjYzw0zz_7mostrod3app9rate_user5testss_55test_update_user_reputation_buyer_already_rated_is_noop0B9_
FN:380,_RNCNvNtNtNtCsawjdjYzw0zz_7mostrod3app9rate_user5testss_57test_update_user_reputation_updates_buyer_and_order_flags0B9_
FN:489,_RNCNvNtNtNtCsawjdjYzw0zz_7mostrod3app9rate_user5testss_58test_update_user_reputation_updates_seller_and_order_flags0B9_
FN:347,_RNCNvNtNtNtCsawjdjYzw0zz_7mostrod3app9rate_user5testss_62test_update_user_reputation_rejects_settled_hold_invoice_buyer0B9_
FN:262,_RNvNtNtNtCsawjdjYzw0zz_7mostrod3app9rate_user5tests16create_test_keys
FN:255,_RNvNtNtNtCsawjdjYzw0zz_7mostrod3app9rate_user5tests16create_test_pool
FN:297,_RNvNtNtNtCsawjdjYzw0zz_7mostrod3app9rate_user5tests17create_test_order
FN:234,_RNvNtNtNtCsawjdjYzw0zz_7mostrod3app9rate_user5tests18init_test_settings
FN:286,_RNvNtNtNtCsawjdjYzw0zz_7mostrod3app9rate_user5tests24create_rate_user_message
FN:270,_RNvNtNtNtCsawjdjYzw0zz_7mostrod3app9rate_user5tests36create_unwrapped_message_with_pubkey
FN:550,_RNvNtNtNtCsawjdjYzw0zz_7mostrod3app9rate_user5testss_37test_prepare_variables_for_vote_buyer
FN:650,_RNvNtNtNtCsawjdjYzw0zz_7mostrod3app9rate_user5testss_37test_rating_validation_invalid_status
FN:586,_RNvNtNtNtCsawjdjYzw0zz_7mostrod3app9rate_user5testss_37test_rating_validation_success_status
FN:568,_RNvNtNtNtCsawjdjYzw0zz_7mostrod3app9rate_user5testss_38test_prepare_variables_for_vote_seller
FN:682,_RNvNtNtNtCsawjdjYzw0zz_7mostrod3app9rate_user5testss_39test_calculate_days_since_creation_zero
FN:673,_RNvNtNtNtCsawjdjYzw0zz_7mostrod3app9rate_user5testss_41test_calculate_days_since_creation_normal
FN:689,_RNvNtNtNtCsawjdjYzw0zz_7mostrod3app9rate_user5testss_43test_calculate_days_since_creation_negative
FN:696,_RNvNtNtNtCsawjdjYzw0zz_7mostrod3app9rate_user5testss_46test_calculate_days_since_creation_partial_day
FN:858,_RNvNtNtNtCsawjdjYzw0zz_7mostrod3app9rate_user5testss_49test_update_user_rating_db_failure_surfaces_error
FN:314,_RNvNtNtNtCsawjdjYzw0zz_7mostrod3app9rate_user5testss_49test_update_user_reputation_allows_success_status
FN:721,_RNvNtNtNtCsawjdjYzw0zz_7mostrod3app9rate_user5testss_50test_prepare_variables_missing_buyer_pubkey_errors
FN:614,_RNvNtNtNtCsawjdjYzw0zz_7mostrod3app9rate_user5testss_50test_rating_validation_settled_hold_invoice_seller
FN:705,_RNvNtNtNtCsawjdjYzw0zz_7mostrod3app9rate_user5testss_51test_prepare_variables_missing_seller_pubkey_errors
FN:737,_RNvNtNtNtCsawjdjYzw0zz_7mostrod3app9rate_user5testss_51test_prepare_variables_unknown_sender_sets_no_flags
FN:754,_RNvNtNtNtCsawjdjYzw0zz_7mostrod3app9rate_user5testss_52test_buyer_rating_full_privacy_seller_is_silent_noop
FN:803,_RNvNtNtNtCsawjdjYzw0zz_7mostrod3app9rate_user5testss_52test_buyer_rating_with_absent_seller_user_row_errors
FN:780,_RNvNtNtNtCsawjdjYzw0zz_7mostrod3app9rate_user5testss_52test_seller_rating_full_privacy_buyer_is_silent_noop
FN:831,_RNvNtNtNtCsawjdjYzw0zz_7mostrod3app9rate_user5testss_52test_seller_rating_with_absent_buyer_user_row_errors
FN:904,_RNvNtNtNtCsawjdjYzw0zz_7mostrod3app9rate_user5testss_55test_update_user_rating_event_db_failure_surfaces_error
FN:441,_RNvNtNtNtCsawjdjYzw0zz_7mostrod3app9rate_user5testss_55test_update_user_reputation_buyer_already_rated_is_noop
FN:632,_RNvNtNtNtCsawjdjYzw0zz_7mostrod3app9rate_user5testss_56test_rating_validation_settled_hold_invoice_buyer_denied
FN:380,_RNvNtNtNtCsawjdjYzw0zz_7mostrod3app9rate_user5testss_57test_update_user_reputation_updates_buyer_and_order_flags
FN:489,_RNvNtNtNtCsawjdjYzw0zz_7mostrod3app9rate_user5testss_58test_update_user_reputation_updates_seller_and_order_flags
FN:347,_RNvNtNtNtCsawjdjYzw0zz_7mostrod3app9rate_user5testss_62test_update_user_reputation_rejects_settled_hold_invoice_buyer
FNDA:0,_RNCNCNvNtNtCsawjdjYzw0zz_7mostrod3app9rate_user29update_user_reputation_action00B9_
FNDA:1,_RNCNCNvNtNtCsawjdjYzw0zz_7mostrod3app9rate_user29update_user_reputation_action0s0_0B9_
FNDA:0,_RNCNCNvNtNtCsawjdjYzw0zz_7mostrod3app9rate_user29update_user_reputation_action0s1_0B9_
FNDA:1,_RNCNCNvNtNtCsawjdjYzw0zz_7mostrod3app9rate_user29update_user_reputation_action0s2_0B9_
FNDA:1,_RNCNCNvNtNtCsawjdjYzw0zz_7mostrod3app9rate_user29update_user_reputation_action0s_0B9_
FNDA:7,_RNCNvNtNtCsawjdjYzw0zz_7mostrod3app9rate_user29calculate_days_since_creation0B7_
FNDA:6,_RNCNvNtNtCsawjdjYzw0zz_7mostrod3app9rate_user29calculate_days_since_creations_0B7_
FNDA:12,_RNCNvNtNtCsawjdjYzw0zz_7mostrod3app9rate_user29update_user_reputation_action0B7_
FNDA:21,_RNvNtNtCsawjdjYzw0zz_7mostrod3app9rate_user26prepare_variables_for_vote
FNDA:8,_RNvNtNtCsawjdjYzw0zz_7mostrod3app9rate_user29calculate_days_since_creation
FNDA:12,_RNvNtNtCsawjdjYzw0zz_7mostrod3app9rate_user29update_user_reputation_action
FNDA:11,_RNCNvNtNtNtCsawjdjYzw0zz_7mostrod3app9rate_user5tests16create_test_pool0B9_
FNDA:1,_RNCNvNtNtNtCsawjdjYzw0zz_7mostrod3app9rate_user5testss_49test_update_user_rating_db_failure_surfaces_error0B9_
FNDA:1,_RNCNvNtNtNtCsawjdjYzw0zz_7mostrod3app9rate_user5testss_49test_update_user_reputation_allows_success_status0B9_
FNDA:1,_RNCNvNtNtNtCsawjdjYzw0zz_7mostrod3app9rate_user5testss_52test_buyer_rating_full_privacy_seller_is_silent_noop0B9_
FNDA:1,_RNCNvNtNtNtCsawjdjYzw0zz_7mostrod3app9rate_user5testss_52test_buyer_rating_with_absent_seller_user_row_errors0B9_
FNDA:1,_RNCNvNtNtNtCsawjdjYzw0zz_7mostrod3app9rate_user5testss_52test_seller_rating_full_privacy_buyer_is_silent_noop0B9_
FNDA:1,_RNCNvNtNtNtCsawjdjYzw0zz_7mostrod3app9rate_user5testss_52test_seller_rating_with_absent_buyer_user_row_errors0B9_
FNDA:1,_RNCNvNtNtNtCsawjdjYzw0zz_7mostrod3app9rate_user5testss_55test_update_user_rating_event_db_failure_surfaces_error0B9_
FNDA:1,_RNCNvNtNtNtCsawjdjYzw0zz_7mostrod3app9rate_user5testss_55test_update_user_reputation_buyer_already_rated_is_noop0B9_
FNDA:1,_RNCNvNtNtNtCsawjdjYzw0zz_7mostrod3app9rate_user5testss_57test_update_user_reputation_updates_buyer_and_order_flags0B9_
FNDA:1,_RNCNvNtNtNtCsawjdjYzw0zz_7mostrod3app9rate_user5testss_58test_update_user_reputation_updates_seller_and_order_flags0B9_
FNDA:1,_RNCNvNtNtNtCsawjdjYzw0zz_7mostrod3app9rate_user5testss_62test_update_user_reputation_rejects_settled_hold_invoice_buyer0B9_
FNDA:68,_RNvNtNtNtCsawjdjYzw0zz_7mostrod3app9rate_user5tests16create_test_keys
FNDA:11,_RNvNtNtNtCsawjdjYzw0zz_7mostrod3app9rate_user5tests16create_test_pool
FNDA:20,_RNvNtNtNtCsawjdjYzw0zz_7mostrod3app9rate_user5tests17create_test_order
FNDA:11,_RNvNtNtNtCsawjdjYzw0zz_7mostrod3app9rate_user5tests18init_test_settings
FNDA:11,_RNvNtNtNtCsawjdjYzw0zz_7mostrod3app9rate_user5tests24create_rate_user_message
FNDA:11,_RNvNtNtNtCsawjdjYzw0zz_7mostrod3app9rate_user5tests36create_unwrapped_message_with_pubkey
FNDA:1,_RNvNtNtNtCsawjdjYzw0zz_7mostrod3app9rate_user5testss_37test_prepare_variables_for_vote_buyer
FNDA:1,_RNvNtNtNtCsawjdjYzw0zz_7mostrod3app9rate_user5testss_37test_rating_validation_invalid_status
FNDA:1,_RNvNtNtNtCsawjdjYzw0zz_7mostrod3app9rate_user5testss_37test_rating_validation_success_status
FNDA:1,_RNvNtNtNtCsawjdjYzw0zz_7mostrod3app9rate_user5testss_38test_prepare_variables_for_vote_seller
FNDA:1,_RNvNtNtNtCsawjdjYzw0zz_7mostrod3app9rate_user5testss_39test_calculate_days_since_creation_zero
FNDA:1,_RNvNtNtNtCsawjdjYzw0zz_7mostrod3app9rate_user5testss_41test_calculate_days_since_creation_normal
